
User_NB-IoT-Frame(KL36)A.50.elf:     file format elf32-littlearm
User_NB-IoT-Frame(KL36)A.50.elf
architecture: arm, flags 0x00000112:
EXEC_P, HAS_SYMS, D_PAGED
start address 0x00006cd1

Program Header:
    LOAD off    0x00000000 vaddr 0x00000000 paddr 0x00000000 align 2**16
         filesz 0x000068c0 memsz 0x000068c0 flags r--
    LOAD off    0x00006c00 vaddr 0x00006c00 paddr 0x00006c00 align 2**16
         filesz 0x00000010 memsz 0x00000010 flags r--
    LOAD off    0x00006c10 vaddr 0x00006c10 paddr 0x00006c10 align 2**16
         filesz 0x000078e0 memsz 0x000078e0 flags rwx
    LOAD off    0x00010000 vaddr 0x20000000 paddr 0x0000e4f0 align 2**16
         filesz 0x00000074 memsz 0x000009a0 flags rw-
    LOAD off    0x0001fc00 vaddr 0x0000fc00 paddr 0x0000fc00 align 2**16
         filesz 0x000000b0 memsz 0x000000b0 flags r--
private flags = 5000200: [Version5 EABI] [soft-float ABI]

Sections:
Idx Name            Size      VMA       LMA       File off  Algn  Flags
  0 .interrupts     000000c0  00006800  00006800  00006800  2**2  CONTENTS, ALLOC, LOAD, READONLY, DATA
  1 .flash_config   00000010  00006c00  00006c00  00006c00  2**0  CONTENTS, ALLOC, LOAD, READONLY, DATA
  2 .text           000078d0  00006c10  00006c10  00006c10  2**3  CONTENTS, ALLOC, LOAD, READONLY, CODE
  3 .ARM            00000008  0000e4e0  0000e4e0  0000e4e0  2**2  CONTENTS, ALLOC, LOAD, READONLY, DATA
  4 .init_array     00000004  0000e4e8  0000e4e8  0000e4e8  2**2  CONTENTS, ALLOC, LOAD, DATA
  5 .fini_array     00000004  0000e4ec  0000e4ec  0000e4ec  2**2  CONTENTS, ALLOC, LOAD, DATA
  6 .mac_config     000000b0  0000fc00  0000fc00  0001fc00  2**2  CONTENTS, ALLOC, LOAD, READONLY, DATA
  7 .mtb            00000000  20000000  20000000  0001fcb0  2**0  CONTENTS
  8 .data           00000074  20000000  0000e4f0  00010000  2**2  CONTENTS, ALLOC, LOAD, DATA
  9 .bss            00000624  20000078  0000e568  00010074  2**3  ALLOC
 10 .heap           00000204  2000069c  0000eb8c  00010074  2**0  ALLOC
 11 .stack          00000100  200008a0  0000ed90  00010074  2**0  ALLOC
 12 .ARM.attributes 00000028  00000000  00000000  0001fcb0  2**0  CONTENTS, READONLY
 13 .debug_info     0000f0c5  00000000  00000000  0001fcd8  2**0  CONTENTS, READONLY, DEBUGGING
 14 .debug_abbrev   0000225e  00000000  00000000  0002ed9d  2**0  CONTENTS, READONLY, DEBUGGING
 15 .debug_loc      0000452a  00000000  00000000  00030ffb  2**0  CONTENTS, READONLY, DEBUGGING
 16 .debug_aranges  00000448  00000000  00000000  00035528  2**3  CONTENTS, READONLY, DEBUGGING
 17 .debug_ranges   000003f8  00000000  00000000  00035970  2**0  CONTENTS, READONLY, DEBUGGING
 18 .debug_macro    00010a16  00000000  00000000  00035d68  2**0  CONTENTS, READONLY, DEBUGGING
 19 .debug_line     000051a5  00000000  00000000  0004677e  2**0  CONTENTS, READONLY, DEBUGGING
 20 .debug_str      00051f4b  00000000  00000000  0004b923  2**0  CONTENTS, READONLY, DEBUGGING
 21 .comment        0000007e  00000000  00000000  0009d86e  2**0  CONTENTS, READONLY
 22 .debug_frame    0000110c  00000000  00000000  0009d8ec  2**2  CONTENTS, READONLY, DEBUGGING
SYMBOL TABLE:
00006800 l    d  .interrupts	00000000 .interrupts
00006c00 l    d  .flash_config	00000000 .flash_config
00006c10 l    d  .text	00000000 .text
0000e4e0 l    d  .ARM	00000000 .ARM
0000e4e8 l    d  .init_array	00000000 .init_array
0000e4ec l    d  .fini_array	00000000 .fini_array
0000fc00 l    d  .mac_config	00000000 .mac_config
20000000 l    d  .mtb	00000000 .mtb
20000000 l    d  .data	00000000 .data
20000078 l    d  .bss	00000000 .bss
2000069c l    d  .heap	00000000 .heap
200008a0 l    d  .stack	00000000 .stack
00000000 l    d  .ARM.attributes	00000000 .ARM.attributes
00000000 l    d  .debug_info	00000000 .debug_info
00000000 l    d  .debug_abbrev	00000000 .debug_abbrev
00000000 l    d  .debug_loc	00000000 .debug_loc
00000000 l    d  .debug_aranges	00000000 .debug_aranges
00000000 l    d  .debug_ranges	00000000 .debug_ranges
00000000 l    d  .debug_macro	00000000 .debug_macro
00000000 l    d  .debug_line	00000000 .debug_line
00000000 l    d  .debug_str	00000000 .debug_str
00000000 l    d  .comment	00000000 .comment
00000000 l    d  .debug_frame	00000000 .debug_frame
00000000 l    df *ABS*	00000000 ./03_MCU/startup/startup_MKL36Z4.o
00000000 l    df *ABS*	00000000 crtstuff.c
0000e4c8 l     O .text	00000000 __EH_FRAME_BEGIN__
00006c10 l     F .text	00000000 __do_global_dtors_aux
20000078 l       .bss	00000001 completed.8654
0000e4ec l     O .fini_array	00000000 __do_global_dtors_aux_fini_array_entry
00006c38 l     F .text	00000000 frame_dummy
2000007c l       .bss	00000018 object.8659
0000e4e8 l     O .init_array	00000000 __frame_dummy_init_array_entry
00000000 l    df *ABS*	00000000 d:/zhangqiang/tools/gcc/7 2017-q4-major/bin/../lib/gcc/arm-none-eabi/7.2.1/../../../../arm-none-eabi/lib/thumb/v6-m/crt0.o
00000000 l    df *ABS*	00000000 _udivsi3.o
00006d1c l       .text	00000000 .udivsi3_skip_div0_test
00000000 l    df *ABS*	00000000 _divsi3.o
00006e30 l       .text	00000000 .divsi3_skip_div0_test
00000000 l    df *ABS*	00000000 _dvmd_tls.o
00000000 l    df *ABS*	00000000 _arm_cmpdf2.o
00000000 l    df *ABS*	00000000 _arm_cmpsf2.o
00000000 l    df *ABS*	00000000 _aeabi_uldivmod.o
00000000 l    df *ABS*	00000000 libgcc2.c
00000000 l    df *ABS*	00000000 libgcc2.c
00000000 l    df *ABS*	00000000 libgcc2.c
00000000 l    df *ABS*	00000000 libgcc2.c
00000000 l    df *ABS*	00000000 libgcc2.c
00000000 l    df *ABS*	00000000 divsf3.c
00000000 l    df *ABS*	00000000 eqsf2.c
00000000 l    df *ABS*	00000000 gesf2.c
00000000 l    df *ABS*	00000000 lesf2.c
00000000 l    df *ABS*	00000000 mulsf3.c
00000000 l    df *ABS*	00000000 subsf3.c
00000000 l    df *ABS*	00000000 fixsfsi.c
00000000 l    df *ABS*	00000000 floatsisf.c
00000000 l    df *ABS*	00000000 floatunsisf.c
00000000 l    df *ABS*	00000000 adddf3.c
00000000 l    df *ABS*	00000000 divdf3.c
00000000 l    df *ABS*	00000000 eqdf2.c
00000000 l    df *ABS*	00000000 gedf2.c
00000000 l    df *ABS*	00000000 ledf2.c
00000000 l    df *ABS*	00000000 muldf3.c
00000000 l    df *ABS*	00000000 subdf3.c
00000000 l    df *ABS*	00000000 unorddf2.c
00000000 l    df *ABS*	00000000 fixdfsi.c
00000000 l    df *ABS*	00000000 floatsidf.c
00000000 l    df *ABS*	00000000 floatunsidf.c
00000000 l    df *ABS*	00000000 extendsfdf2.c
00000000 l    df *ABS*	00000000 truncdfsf2.c
00000000 l    df *ABS*	00000000 _clzsi2.o
00000000 l    df *ABS*	00000000 _clzdi2.o
00000000 l    df *ABS*	00000000 lib_a-strlen.o
00000000 l    df *ABS*	00000000 isr.c
00000000 l    df *ABS*	00000000 main.c
20000094 l     O .bss	00000004 sn.6702
00000000 l    df *ABS*	00000000 common.c
00000000 l    df *ABS*	00000000 timeStamp.c
00000000 l    df *ABS*	00000000 valueType.c
00000000 l    df *ABS*	00000000 lcd.c
0000ddc8 l     O .text	00000600 nAsciiDot
0000dd60 l     O .text	00000066 GB_16
00000000 l    df *ABS*	00000000 printf.c
0000c03c l     F .text	0000002a printk_putc
0000c066 l     F .text	00000092 printk_mknumstr
0000c0f8 l     F .text	00000020 printk_pad_space
00000000 l    df *ABS*	00000000 Int_Handler_init.c
00000000 l    df *ABS*	00000000 system_MKL36Z4.c
00000000 l    df *ABS*	00000000 adc.c
00000000 l    df *ABS*	00000000 spi.c
00000000 l    df *ABS*	00000000 timer.c
00000000 l    df *ABS*	00000000 tsi.c
00000000 l    df *ABS*	00000000 w_log.c
00000000 l    df *ABS*	00000000 e_log.c
00000000 l    df *ABS*	00000000 s_matherr.c
00000000 l    df *ABS*	00000000 s_nan.c
00000000 l    df *ABS*	00000000 errno.c
00000000 l    df *ABS*	00000000 exit.c
00000000 l    df *ABS*	00000000 init.c
00000000 l    df *ABS*	00000000 memcpy-stub.c
00000000 l    df *ABS*	00000000 memset.c
00000000 l    df *ABS*	00000000 _exit.c
00000000 l    df *ABS*	00000000 impure.c
20000014 l     O .data	00000060 impure_data
00000000 l    df *ABS*	00000000 d:/zhangqiang/tools/gcc/7 2017-q4-major/bin/../lib/gcc/arm-none-eabi/7.2.1/thumb/v6-m/crti.o
00000000 l    df *ABS*	00000000 d:/zhangqiang/tools/gcc/7 2017-q4-major/bin/../lib/gcc/arm-none-eabi/7.2.1/thumb/v6-m/crtn.o
00000000 l    df *ABS*	00000000 s_lib_ver.c
00000000 l    df *ABS*	00000000 
0000e4ec l       .init_array	00000000 __init_array_end
0000e4e8 l       .init_array	00000000 __preinit_array_end
0000e4e8 l       .init_array	00000000 __init_array_start
0000e4e8 l       .init_array	00000000 __preinit_array_start
00009868 g     F .text	00000038 .hidden __aeabi_dcmpun
200006a0 g       .heap	00000000 __HeapBase
0000bcf0 g     F .text	00000014 LCD_DrawPoint
00007048 g     F .text	00000012 .hidden __aeabi_dcmple
0000d18c g     F .text	00000110 log
0000bac0 g     F .text	00000016 ArrayCopy
00008ae4 g     F .text	00000078 .hidden __eqdf2
0000d164 g     F .text	0000000c tsi_get_int
20000000 g       .data	00000000 __data_start__
00000100 g       *ABS*	00000000 STACK_SIZE
00006d14  w    F .text	00000004 I2C0_IRQHandler
0000cea0 g     F .text	0000001c lptmr_enable_int
00006d14  w    F .text	00000004 HardFault_Handler
00006d14  w    F .text	00000004 SysTick_Handler
00006d14  w    F .text	00000004 PendSV_Handler
00006d14  w    F .text	00000004 NMI_Handler
0000e4e8 g       .ARM	00000000 __exidx_end
00006d14  w    F .text	00000004 PORTC_PORTD_IRQHandler
0000cfe0 g     F .text	0000001a timer_enable_int
00006d14  w    F .text	00000004 I2C1_IRQHandler
00006d14  w    F .text	00000004 UART1_IRQHandler
0000bf54 g     F .text	000000d0 LCD_aotu
00008b5c g     F .text	000000c8 .hidden __gtdf2
0000d658 g     F .text	0000000c __errno
0000e4f0 g       .fini_array	00000000 __etext
00006d14  w    F .text	00000004 DMA2_IRQHandler
20000098 g     O .bss	000000ad gFlashData
00000400 g       *ABS*	00000000 SECTOR_SIZE
0000bbfe g     F .text	00000032 LCD_Clear
00006d14  w    F .text	00000004 TPM0_IRQHandler
20000000 g     O .data	0000000c TPM_ARR
0000bb60 g     F .text	00000040 LCD_WR_REG
00007018 g     F .text	00000010 .hidden __aeabi_cdcmple
00006d14  w    F .text	00000004 I2S0_IRQHandler
00006d14  w    F .text	00000004 LLWU_IRQHandler
00006d14  w    F .text	00000004 TSI0_IRQHandler
0000cb8c g     F .text	000000a4 adc_init_inner
00006d14  w    F .text	00000004 UART0_IRQHandler
0000cffc g     F .text	00000014 tpm_clear_int
0000d6d8 g     F .text	00000012 memcpy
00007008 g     F .text	00000020 .hidden __aeabi_cdrcmple
000070d0 g     F .text	00000012 .hidden __aeabi_fcmpgt
00008c24 g     F .text	000000d0 .hidden __ltdf2
0000b318 g     F .text	00000018 enable_irq
0000e4e8 g       .init_array	00000000 __DTOR_END__
000070f8 g     F .text	0000003e .hidden __aeabi_uldivmod
0000bf08 g     F .text	0000004a LCD_DrawSurface
00009c3c  w    F .text	00000006 SPIA_Handler
00006d14  w    F .text	00000004 ADC0_IRQHandler
0000bd04 g     F .text	000000b2 LCD_DrawLine
00006d1c g     F .text	0000010a .hidden __udivsi3
20000078 g       .bss	00000000 __START_BSS
0000cc50 g     F .text	000001d8 spi_init
00007d94 g     F .text	00000094 .hidden __aeabi_i2f
000076c8 g     F .text	0000009e .hidden __lesf2
000071bc g     F .text	0000003c .hidden __fixunsdfsi
2000069a g     O .bss	00000001 flag
0000bdb6 g     F .text	0000004c LCD_ShowCharactor
200008a0 g       .heap	00000000 __HeapLimit
20000078 g       .bss	00000000 __bss_start__
00009980 g     F .text	00000064 .hidden __aeabi_ui2d
00006d14  w    F .text	00000004 SPI1_IRQHandler
00007234 g     F .text	00000182 .hidden __udivmoddi4
20000148 g     O .bss	00000400 gRecvBuf
00006d14  w    F .text	00000004 DefaultISR
00007034 g     F .text	00000012 .hidden __aeabi_dcmplt
000084e0 g     F .text	00000604 .hidden __aeabi_ddiv
000075dc g     F .text	0000004e .hidden __nesf2
0000e4e0 g       .ARM	00000000 __exidx_start
00008cf4 g     F .text	000004e4 .hidden __aeabi_dmul
2000000f g     O .data	00000001 __fdlib_version
00009c48  w    F .text	00000006 I2CA_Handler
0000e4c4 g     O .text	00000004 _global_impure_ptr
00007138 g     F .text	00000054 .hidden __aeabi_lmul
20000548 g     O .bss	00000014 gTimeString
0000d690 g     F .text	00000048 __libc_init_array
00006c58 g     F .text	00000000 _mainCRTStartup
0000b994 g     F .text	0000012c DoubleConvertToStr
0000c118 g     F .text	000001c4 printk_mkfloatstr
00009c00  w    F .text	0000003c UARTA_Handler
0000e4c8 g     F .text	00000000 _init
00006d14  w    F .text	00000004 TPM2_IRQHandler
0000d010 g     F .text	00000024 timer_clear_int
00009a88 g     F .text	00000108 .hidden __aeabi_d2f
000071f8 g     F .text	0000003c .hidden __aeabi_d2ulz
0000b8f0 g     F .text	00000028 timeChange
000079cc g     F .text	00000388 .hidden __aeabi_fsub
00006d14  w    F .text	00000004 RTC_IRQHandler
00006cd0  w    F .text	00000044 Reset_Handler
000070e4 g     F .text	00000012 .hidden __aeabi_fcmpge
00006d14  w    F .text	00000004 LCD_IRQHandler
0000d154 g     F .text	00000010 tsi_search
0000cb00 g     F .text	0000000a adc_read
00009cbe  w    F .text	00000014 TIMERA_Handler
0000bb18 g     F .text	00000048 LCD_WR_DATA
0000cf90 g     F .text	0000002c timer_init
0000762c g     F .text	0000009c .hidden __gtsf2
0000c9ec g     F .text	00000028 BIOS_API_Init
00007ea8 g     F .text	00000638 .hidden __aeabi_dadd
2000000c g     O .data	00000003 TPM_IRQ
00008c24 g     F .text	000000d0 .hidden __ledf2
0000c924 g     F .text	00000024 myprintf
000070bc g     F .text	00000012 .hidden __aeabi_fcmple
00006d14  w    F .text	00000004 RTC_Seconds_IRQHandler
00006e30 g     F .text	00000000 .hidden __aeabi_idiv
00006d14  w    F .text	00000004 MCG_IRQHandler
00006d14  w    F .text	00000004 UART2_IRQHandler
20000000 g       *ABS*	00000000 RAM_START
20000074 g       .data	00000000 __data_end__
0000e4e8 g       .init_array	00000000 __CTOR_LIST__
00000200 g       *ABS*	00000000 HEAP_SIZE
0000705c g     F .text	00000012 .hidden __aeabi_dcmpgt
00009b90 g     F .text	0000003c .hidden __clzsi2
2000069c g       .bss	00000000 __bss_end__
00006d14  w    F .text	00000004 Reserved20_IRQHandler
00007070 g     F .text	00000012 .hidden __aeabi_dcmpge
0000b858 g     F .text	00000098 transformToDateString
000091d8 g     F .text	00000690 .hidden __aeabi_dsub
00006c58 g     F .text	00000000 _start
0000001a g       *ABS*	00000000 SECTOR_START
00009bf2  w    F .text	00000006 GPIOA_Handler
20000560 g     O .bss	00000008 gTimeSec
0000cad8 g     F .text	00000028 adc_read_inner
00007d54 g     F .text	00000040 .hidden __aeabi_f2iz
000075dc g     F .text	0000004e .hidden __eqsf2
0000ce64 g     F .text	0000003c lptmr_init
0000b34c g     F .text	000004c8 transformToDate
20001800 g       *ABS*	00000000 RAM_END
000073b8 g     F .text	00000224 .hidden __aeabi_fdiv
0000990c g     F .text	00000074 .hidden __aeabi_i2d
0000ce28 g     F .text	0000003c spi_send1
0000c024 g     F .text	00000018 out_char
0000fc00 g     O .mac_config	000000ad flashInit
0000c948 g     F .text	000000a4 Int_Handler_init
0000c2dc g     F .text	00000646 printk
00007004  w    F .text	00000002 .hidden __aeabi_ldiv0
00007e28 g     F .text	00000080 .hidden __aeabi_ui2f
0000b330 g     F .text	0000001a Delay_ms
20000568 g     O .bss	00000004 bios_fun_point
0000bad8 g     F .text	00000040 LCD_WR_DATA8
0000bc30 g     F .text	000000c0 LCD_Init
0000d6ea g     F .text	00000010 memset
00006800 g       .interrupts	000000c0 __isr_vector
0000a4c4 g     F .text	00000e54 main
00009c42  w    F .text	00000006 SPIB_Handler
00006d14  w    F .text	00000004 PIT_IRQHandler
000076c8 g     F .text	0000009e .hidden __ltsf2
2000056c g     O .bss	0000012b gUserData
00006d1c g     F .text	00000000 .hidden __aeabi_uidiv
00006d14  w    F .text	00000004 SVC_Handler
0000d648 g     F .text	00000004 matherr
20000000 g       .data	00000000 __DATA_RAM
0000d134 g     F .text	00000020 tsi_enable_re_int
0000cfbc g     F .text	00000024 tpm_enable_int
200006a0 g       .heap	00000000 __end__
0000d0e8 g     F .text	0000004c tsi_get_value
0000708c g     F .text	00000010 .hidden __aeabi_cfcmple
00006e30 g     F .text	000001cc .hidden __divsi3
0000e4e8 g       .init_array	00000000 __CTOR_END__
00006d14  w    F .text	00000004 DMA3_IRQHandler
0000e4e8 g       .init_array	00000000 __DTOR_LIST__
2000069c g       .bss	00000000 __END_BSS
0000ca14 g     F .text	000000c4 SystemInit
00006d14  w    F .text	00000004 DMA0_IRQHandler
00008ae4 g     F .text	00000078 .hidden __nedf2
000071f8 g     F .text	0000003c .hidden __fixunsdfdi
00009bf8  w    F .text	00000006 GPIOB_Handler
0000e4d4 g     F .text	00000000 _fini
00006d14  w    F .text	00000004 DAC0_IRQHandler
0000762c g     F .text	0000009c .hidden __gesf2
00009cb8  w    F .text	00000006 INCAP_Handler
0000b918 g     F .text	0000007c IntConvertToStr
0000bba0 g     F .text	00000010 LCD_WR_REG_DATA
20001800 g       .stack	00000000 __StackTop
20000010 g     O .data	00000004 _impure_ptr
0000709c g     F .text	0000000c .hidden __aeabi_fcmpeq
0000cc30 g     F .text	00000020 adc_init
00007768 g     F .text	00000264 .hidden __aeabi_fmul
0000d29c g     F .text	000003ac __ieee754_log
20000000 g       .mtb	00000000 _mtb_end
0000d034 g     F .text	000000b4 tsi_init
00007084 g     F .text	00000018 .hidden __aeabi_cfrcmple
00009c4e  w    F .text	00000006 I2CB_Handler
0000e564 g       *ABS*	00000000 __DATA_END
000071bc g     F .text	0000003c .hidden __aeabi_d2uiz
0000d64c g     F .text	0000000c nan
00006d14  w    F .text	00000004 TPM1_IRQHandler
000070a8 g     F .text	00000012 .hidden __aeabi_fcmplt
20001800 g       *ABS*	00000000 __stack
00006e28 g     F .text	00000008 .hidden __aeabi_uidivmod
00007028 g     F .text	0000000c .hidden __aeabi_dcmpeq
00006d14  w    F .text	00000004 LVD_LVW_IRQHandler
00006d14  w    F .text	00000004 SPI0_IRQHandler
00009cd2  w    F .text	00000006 TIMERB_Handler
00006d14  w    F .text	00000004 PORTA_IRQHandler
0000003f g       *ABS*	00000000 SECTOR_END
00006800 g       .interrupts	00000000 __VECTOR_TABLE
0000e4f0 g       .fini_array	00000000 __DATA_ROM
0000718c g     F .text	00000030 .hidden __aeabi_f2uiz
20001700 g       *ABS*	00000000 __StackLimit
0000d664 g     F .text	0000002c exit
00006d14  w    F .text	00000004 FTFA_IRQHandler
0000bbb0 g     F .text	0000004e Address_set
000098a0 g     F .text	0000006c .hidden __aeabi_d2iz
0000708c g     F .text	00000010 .hidden __aeabi_cfcmpeq
20000000 g       .mtb	00000000 _mtb_start
00006d14  w    F .text	00000004 Reserved40_IRQHandler
00009cd8 g     F .text	00000184 userData_init
00007004  w    F .text	00000002 .hidden __aeabi_idiv0
0000718c g     F .text	00000030 .hidden __fixunssfsi
0000be04 g     F .text	00000104 LCD_ShowString
0000d6fc g     F .text	00000002 _exit
00006d14  w    F .text	00000004 LPTMR0_IRQHandler
00007138 g     F .text	00000054 .hidden __muldi3
00009be4 g     F .text	0000000e strlen
0000cb0c g     F .text	00000080 adc_cal
00007018 g     F .text	00000010 .hidden __aeabi_cdcmpeq
00008b5c g     F .text	000000c8 .hidden __gedf2
0000d170 g     F .text	0000001c tsi_clear_int
000099e4 g     F .text	000000a4 .hidden __aeabi_f2d
00009c54  w    F .text	00000064 TSI_Handler
0000b814 g     F .text	00000044 intToString
00009bcc g     F .text	00000016 .hidden __clzdi2
00006d14  w    F .text	00000004 CMP0_IRQHandler
0000a184 g     F .text	00000340 LCD_Showfirst
00006ffc g     F .text	00000008 .hidden __aeabi_idivmod
00009e5c g     F .text	00000328 userData_get
20000698 g     O .bss	00000002 gRecvLength
0000cebc g     F .text	000000d4 tpm_timer_init
00006d14  w    F .text	00000004 DMA1_IRQHandler



Disassembly of section .text:

00006c10 <__do_global_dtors_aux>:
__do_global_dtors_aux():
    6c10:	b510      	push	{r4, lr}
    6c12:	4c06      	ldr	r4, [pc, #24]	; (6c2c <__do_global_dtors_aux+0x1c>)
    6c14:	7823      	ldrb	r3, [r4, #0]
    6c16:	2b00      	cmp	r3, #0
    6c18:	d107      	bne.n	6c2a <__do_global_dtors_aux+0x1a>
    6c1a:	4b05      	ldr	r3, [pc, #20]	; (6c30 <__do_global_dtors_aux+0x20>)
    6c1c:	2b00      	cmp	r3, #0
    6c1e:	d002      	beq.n	6c26 <__do_global_dtors_aux+0x16>
    6c20:	4804      	ldr	r0, [pc, #16]	; (6c34 <__do_global_dtors_aux+0x24>)
    6c22:	e000      	b.n	6c26 <__do_global_dtors_aux+0x16>
    6c24:	bf00      	nop
    6c26:	2301      	movs	r3, #1
    6c28:	7023      	strb	r3, [r4, #0]
    6c2a:	bd10      	pop	{r4, pc}
    6c2c:	20000078 	.word	0x20000078
    6c30:	00000000 	.word	0x00000000
    6c34:	0000e4c8 	.word	0x0000e4c8

00006c38 <frame_dummy>:
frame_dummy():
    6c38:	4b04      	ldr	r3, [pc, #16]	; (6c4c <frame_dummy+0x14>)
    6c3a:	b510      	push	{r4, lr}
    6c3c:	2b00      	cmp	r3, #0
    6c3e:	d003      	beq.n	6c48 <frame_dummy+0x10>
    6c40:	4903      	ldr	r1, [pc, #12]	; (6c50 <frame_dummy+0x18>)
    6c42:	4804      	ldr	r0, [pc, #16]	; (6c54 <frame_dummy+0x1c>)
    6c44:	e000      	b.n	6c48 <frame_dummy+0x10>
    6c46:	bf00      	nop
    6c48:	bd10      	pop	{r4, pc}
    6c4a:	46c0      	nop			; (mov r8, r8)
    6c4c:	00000000 	.word	0x00000000
    6c50:	2000007c 	.word	0x2000007c
    6c54:	0000e4c8 	.word	0x0000e4c8

00006c58 <_mainCRTStartup>:
_start():
    6c58:	4b16      	ldr	r3, [pc, #88]	; (6cb4 <_mainCRTStartup+0x5c>)
    6c5a:	2b00      	cmp	r3, #0
    6c5c:	d100      	bne.n	6c60 <_mainCRTStartup+0x8>
    6c5e:	4b14      	ldr	r3, [pc, #80]	; (6cb0 <_mainCRTStartup+0x58>)
    6c60:	469d      	mov	sp, r3
    6c62:	2240      	movs	r2, #64	; 0x40
    6c64:	0292      	lsls	r2, r2, #10
    6c66:	1a9a      	subs	r2, r3, r2
    6c68:	4692      	mov	sl, r2
    6c6a:	2100      	movs	r1, #0
    6c6c:	468b      	mov	fp, r1
    6c6e:	460f      	mov	r7, r1
    6c70:	4813      	ldr	r0, [pc, #76]	; (6cc0 <_mainCRTStartup+0x68>)
    6c72:	4a14      	ldr	r2, [pc, #80]	; (6cc4 <_mainCRTStartup+0x6c>)
    6c74:	1a12      	subs	r2, r2, r0
    6c76:	f006 fd38 	bl	d6ea <memset>
    6c7a:	4b0f      	ldr	r3, [pc, #60]	; (6cb8 <_mainCRTStartup+0x60>)
    6c7c:	2b00      	cmp	r3, #0
    6c7e:	d000      	beq.n	6c82 <_mainCRTStartup+0x2a>
    6c80:	4798      	blx	r3
    6c82:	4b0e      	ldr	r3, [pc, #56]	; (6cbc <_mainCRTStartup+0x64>)
    6c84:	2b00      	cmp	r3, #0
    6c86:	d000      	beq.n	6c8a <_mainCRTStartup+0x32>
    6c88:	4798      	blx	r3
    6c8a:	2000      	movs	r0, #0
    6c8c:	2100      	movs	r1, #0
    6c8e:	0004      	movs	r4, r0
    6c90:	000d      	movs	r5, r1
    6c92:	480d      	ldr	r0, [pc, #52]	; (6cc8 <_mainCRTStartup+0x70>)
    6c94:	2800      	cmp	r0, #0
    6c96:	d002      	beq.n	6c9e <_mainCRTStartup+0x46>
    6c98:	480c      	ldr	r0, [pc, #48]	; (6ccc <_mainCRTStartup+0x74>)
    6c9a:	e000      	b.n	6c9e <_mainCRTStartup+0x46>
    6c9c:	bf00      	nop
    6c9e:	f006 fcf7 	bl	d690 <__libc_init_array>
    6ca2:	0020      	movs	r0, r4
    6ca4:	0029      	movs	r1, r5
    6ca6:	f003 fc0d 	bl	a4c4 <main>
    6caa:	f006 fcdb 	bl	d664 <exit>
    6cae:	46c0      	nop			; (mov r8, r8)
    6cb0:	00080000 	.word	0x00080000
    6cb4:	20001800 	.word	0x20001800
	...
    6cc0:	20000078 	.word	0x20000078
    6cc4:	2000069c 	.word	0x2000069c
	...

00006cd0 <Reset_Handler>:
Reset_Handler():
D:\zhangqiang\毕设\experiment\UE\User_NB-IoT_Frame(KL36)(A.50)-190816\Debug/../03_MCU/startup/startup_MKL36Z4.S:118
    6cd0:	b672      	cpsid	i
D:\zhangqiang\毕设\experiment\UE\User_NB-IoT_Frame(KL36)(A.50)-190816\Debug/../03_MCU/startup/startup_MKL36Z4.S:120
    6cd2:	f005 fe9f 	bl	ca14 <SystemInit>
D:\zhangqiang\毕设\experiment\UE\User_NB-IoT_Frame(KL36)(A.50)-190816\Debug/../03_MCU/startup/startup_MKL36Z4.S:122
    6cd6:	b662      	cpsie	i
D:\zhangqiang\毕设\experiment\UE\User_NB-IoT_Frame(KL36)(A.50)-190816\Debug/../03_MCU/startup/startup_MKL36Z4.S:130
    6cd8:	4909      	ldr	r1, [pc, #36]	; (6d00 <Reset_Handler+0x30>)
D:\zhangqiang\毕设\experiment\UE\User_NB-IoT_Frame(KL36)(A.50)-190816\Debug/../03_MCU/startup/startup_MKL36Z4.S:131
    6cda:	4a0a      	ldr	r2, [pc, #40]	; (6d04 <Reset_Handler+0x34>)
D:\zhangqiang\毕设\experiment\UE\User_NB-IoT_Frame(KL36)(A.50)-190816\Debug/../03_MCU/startup/startup_MKL36Z4.S:132
    6cdc:	4b0a      	ldr	r3, [pc, #40]	; (6d08 <Reset_Handler+0x38>)
D:\zhangqiang\毕设\experiment\UE\User_NB-IoT_Frame(KL36)(A.50)-190816\Debug/../03_MCU/startup/startup_MKL36Z4.S:134
    6cde:	1a9b      	subs	r3, r3, r2
D:\zhangqiang\毕设\experiment\UE\User_NB-IoT_Frame(KL36)(A.50)-190816\Debug/../03_MCU/startup/startup_MKL36Z4.S:135
    6ce0:	dd03      	ble.n	6cea <Reset_Handler+0x1a>
D:\zhangqiang\毕设\experiment\UE\User_NB-IoT_Frame(KL36)(A.50)-190816\Debug/../03_MCU/startup/startup_MKL36Z4.S:138
    6ce2:	3b04      	subs	r3, #4
D:\zhangqiang\毕设\experiment\UE\User_NB-IoT_Frame(KL36)(A.50)-190816\Debug/../03_MCU/startup/startup_MKL36Z4.S:139
    6ce4:	58c8      	ldr	r0, [r1, r3]
D:\zhangqiang\毕设\experiment\UE\User_NB-IoT_Frame(KL36)(A.50)-190816\Debug/../03_MCU/startup/startup_MKL36Z4.S:140
    6ce6:	50d0      	str	r0, [r2, r3]
D:\zhangqiang\毕设\experiment\UE\User_NB-IoT_Frame(KL36)(A.50)-190816\Debug/../03_MCU/startup/startup_MKL36Z4.S:141
    6ce8:	dcfb      	bgt.n	6ce2 <Reset_Handler+0x12>
D:\zhangqiang\毕设\experiment\UE\User_NB-IoT_Frame(KL36)(A.50)-190816\Debug/../03_MCU/startup/startup_MKL36Z4.S:154
    6cea:	4908      	ldr	r1, [pc, #32]	; (6d0c <Reset_Handler+0x3c>)
D:\zhangqiang\毕设\experiment\UE\User_NB-IoT_Frame(KL36)(A.50)-190816\Debug/../03_MCU/startup/startup_MKL36Z4.S:155
    6cec:	4a08      	ldr	r2, [pc, #32]	; (6d10 <Reset_Handler+0x40>)
D:\zhangqiang\毕设\experiment\UE\User_NB-IoT_Frame(KL36)(A.50)-190816\Debug/../03_MCU/startup/startup_MKL36Z4.S:157
    6cee:	1a52      	subs	r2, r2, r1
D:\zhangqiang\毕设\experiment\UE\User_NB-IoT_Frame(KL36)(A.50)-190816\Debug/../03_MCU/startup/startup_MKL36Z4.S:158
    6cf0:	dd03      	ble.n	6cfa <Reset_Handler+0x2a>
D:\zhangqiang\毕设\experiment\UE\User_NB-IoT_Frame(KL36)(A.50)-190816\Debug/../03_MCU/startup/startup_MKL36Z4.S:160
    6cf2:	2000      	movs	r0, #0
D:\zhangqiang\毕设\experiment\UE\User_NB-IoT_Frame(KL36)(A.50)-190816\Debug/../03_MCU/startup/startup_MKL36Z4.S:162
    6cf4:	5088      	str	r0, [r1, r2]
D:\zhangqiang\毕设\experiment\UE\User_NB-IoT_Frame(KL36)(A.50)-190816\Debug/../03_MCU/startup/startup_MKL36Z4.S:163
    6cf6:	3a04      	subs	r2, #4
D:\zhangqiang\毕设\experiment\UE\User_NB-IoT_Frame(KL36)(A.50)-190816\Debug/../03_MCU/startup/startup_MKL36Z4.S:164
    6cf8:	dafc      	bge.n	6cf4 <Reset_Handler+0x24>
D:\zhangqiang\毕设\experiment\UE\User_NB-IoT_Frame(KL36)(A.50)-190816\Debug/../03_MCU/startup/startup_MKL36Z4.S:170
    6cfa:	f7ff ffad 	bl	6c58 <_mainCRTStartup>
    6cfe:	0000      	.short	0x0000
D:\zhangqiang\毕设\experiment\UE\User_NB-IoT_Frame(KL36)(A.50)-190816\Debug/../03_MCU/startup/startup_MKL36Z4.S:130
    6d00:	0000e4f0 	.word	0x0000e4f0
D:\zhangqiang\毕设\experiment\UE\User_NB-IoT_Frame(KL36)(A.50)-190816\Debug/../03_MCU/startup/startup_MKL36Z4.S:131
    6d04:	20000000 	.word	0x20000000
D:\zhangqiang\毕设\experiment\UE\User_NB-IoT_Frame(KL36)(A.50)-190816\Debug/../03_MCU/startup/startup_MKL36Z4.S:132
    6d08:	20000074 	.word	0x20000074
D:\zhangqiang\毕设\experiment\UE\User_NB-IoT_Frame(KL36)(A.50)-190816\Debug/../03_MCU/startup/startup_MKL36Z4.S:154
    6d0c:	20000078 	.word	0x20000078
D:\zhangqiang\毕设\experiment\UE\User_NB-IoT_Frame(KL36)(A.50)-190816\Debug/../03_MCU/startup/startup_MKL36Z4.S:155
    6d10:	2000069c 	.word	0x2000069c

00006d14 <ADC0_IRQHandler>:
DMA1_IRQHandler():
D:\zhangqiang\毕设\experiment\UE\User_NB-IoT_Frame(KL36)(A.50)-190816\Debug/../03_MCU/startup/startup_MKL36Z4.S:179
    6d14:	4800      	ldr	r0, [pc, #0]	; (6d18 <ADC0_IRQHandler+0x4>)
D:\zhangqiang\毕设\experiment\UE\User_NB-IoT_Frame(KL36)(A.50)-190816\Debug/../03_MCU/startup/startup_MKL36Z4.S:180
    6d16:	4700      	bx	r0
D:\zhangqiang\毕设\experiment\UE\User_NB-IoT_Frame(KL36)(A.50)-190816\Debug/../03_MCU/startup/startup_MKL36Z4.S:179
    6d18:	00006d15 	.word	0x00006d15

00006d1c <__udivsi3>:
__aeabi_uidiv():
    6d1c:	2200      	movs	r2, #0
    6d1e:	0843      	lsrs	r3, r0, #1
    6d20:	428b      	cmp	r3, r1
    6d22:	d374      	bcc.n	6e0e <__udivsi3+0xf2>
    6d24:	0903      	lsrs	r3, r0, #4
    6d26:	428b      	cmp	r3, r1
    6d28:	d35f      	bcc.n	6dea <__udivsi3+0xce>
    6d2a:	0a03      	lsrs	r3, r0, #8
    6d2c:	428b      	cmp	r3, r1
    6d2e:	d344      	bcc.n	6dba <__udivsi3+0x9e>
    6d30:	0b03      	lsrs	r3, r0, #12
    6d32:	428b      	cmp	r3, r1
    6d34:	d328      	bcc.n	6d88 <__udivsi3+0x6c>
    6d36:	0c03      	lsrs	r3, r0, #16
    6d38:	428b      	cmp	r3, r1
    6d3a:	d30d      	bcc.n	6d58 <__udivsi3+0x3c>
    6d3c:	22ff      	movs	r2, #255	; 0xff
    6d3e:	0209      	lsls	r1, r1, #8
    6d40:	ba12      	rev	r2, r2
    6d42:	0c03      	lsrs	r3, r0, #16
    6d44:	428b      	cmp	r3, r1
    6d46:	d302      	bcc.n	6d4e <__udivsi3+0x32>
    6d48:	1212      	asrs	r2, r2, #8
    6d4a:	0209      	lsls	r1, r1, #8
    6d4c:	d065      	beq.n	6e1a <__udivsi3+0xfe>
    6d4e:	0b03      	lsrs	r3, r0, #12
    6d50:	428b      	cmp	r3, r1
    6d52:	d319      	bcc.n	6d88 <__udivsi3+0x6c>
    6d54:	e000      	b.n	6d58 <__udivsi3+0x3c>
    6d56:	0a09      	lsrs	r1, r1, #8
    6d58:	0bc3      	lsrs	r3, r0, #15
    6d5a:	428b      	cmp	r3, r1
    6d5c:	d301      	bcc.n	6d62 <__udivsi3+0x46>
    6d5e:	03cb      	lsls	r3, r1, #15
    6d60:	1ac0      	subs	r0, r0, r3
    6d62:	4152      	adcs	r2, r2
    6d64:	0b83      	lsrs	r3, r0, #14
    6d66:	428b      	cmp	r3, r1
    6d68:	d301      	bcc.n	6d6e <__udivsi3+0x52>
    6d6a:	038b      	lsls	r3, r1, #14
    6d6c:	1ac0      	subs	r0, r0, r3
    6d6e:	4152      	adcs	r2, r2
    6d70:	0b43      	lsrs	r3, r0, #13
    6d72:	428b      	cmp	r3, r1
    6d74:	d301      	bcc.n	6d7a <__udivsi3+0x5e>
    6d76:	034b      	lsls	r3, r1, #13
    6d78:	1ac0      	subs	r0, r0, r3
    6d7a:	4152      	adcs	r2, r2
    6d7c:	0b03      	lsrs	r3, r0, #12
    6d7e:	428b      	cmp	r3, r1
    6d80:	d301      	bcc.n	6d86 <__udivsi3+0x6a>
    6d82:	030b      	lsls	r3, r1, #12
    6d84:	1ac0      	subs	r0, r0, r3
    6d86:	4152      	adcs	r2, r2
    6d88:	0ac3      	lsrs	r3, r0, #11
    6d8a:	428b      	cmp	r3, r1
    6d8c:	d301      	bcc.n	6d92 <__udivsi3+0x76>
    6d8e:	02cb      	lsls	r3, r1, #11
    6d90:	1ac0      	subs	r0, r0, r3
    6d92:	4152      	adcs	r2, r2
    6d94:	0a83      	lsrs	r3, r0, #10
    6d96:	428b      	cmp	r3, r1
    6d98:	d301      	bcc.n	6d9e <__udivsi3+0x82>
    6d9a:	028b      	lsls	r3, r1, #10
    6d9c:	1ac0      	subs	r0, r0, r3
    6d9e:	4152      	adcs	r2, r2
    6da0:	0a43      	lsrs	r3, r0, #9
    6da2:	428b      	cmp	r3, r1
    6da4:	d301      	bcc.n	6daa <__udivsi3+0x8e>
    6da6:	024b      	lsls	r3, r1, #9
    6da8:	1ac0      	subs	r0, r0, r3
    6daa:	4152      	adcs	r2, r2
    6dac:	0a03      	lsrs	r3, r0, #8
    6dae:	428b      	cmp	r3, r1
    6db0:	d301      	bcc.n	6db6 <__udivsi3+0x9a>
    6db2:	020b      	lsls	r3, r1, #8
    6db4:	1ac0      	subs	r0, r0, r3
    6db6:	4152      	adcs	r2, r2
    6db8:	d2cd      	bcs.n	6d56 <__udivsi3+0x3a>
    6dba:	09c3      	lsrs	r3, r0, #7
    6dbc:	428b      	cmp	r3, r1
    6dbe:	d301      	bcc.n	6dc4 <__udivsi3+0xa8>
    6dc0:	01cb      	lsls	r3, r1, #7
    6dc2:	1ac0      	subs	r0, r0, r3
    6dc4:	4152      	adcs	r2, r2
    6dc6:	0983      	lsrs	r3, r0, #6
    6dc8:	428b      	cmp	r3, r1
    6dca:	d301      	bcc.n	6dd0 <__udivsi3+0xb4>
    6dcc:	018b      	lsls	r3, r1, #6
    6dce:	1ac0      	subs	r0, r0, r3
    6dd0:	4152      	adcs	r2, r2
    6dd2:	0943      	lsrs	r3, r0, #5
    6dd4:	428b      	cmp	r3, r1
    6dd6:	d301      	bcc.n	6ddc <__udivsi3+0xc0>
    6dd8:	014b      	lsls	r3, r1, #5
    6dda:	1ac0      	subs	r0, r0, r3
    6ddc:	4152      	adcs	r2, r2
    6dde:	0903      	lsrs	r3, r0, #4
    6de0:	428b      	cmp	r3, r1
    6de2:	d301      	bcc.n	6de8 <__udivsi3+0xcc>
    6de4:	010b      	lsls	r3, r1, #4
    6de6:	1ac0      	subs	r0, r0, r3
    6de8:	4152      	adcs	r2, r2
    6dea:	08c3      	lsrs	r3, r0, #3
    6dec:	428b      	cmp	r3, r1
    6dee:	d301      	bcc.n	6df4 <__udivsi3+0xd8>
    6df0:	00cb      	lsls	r3, r1, #3
    6df2:	1ac0      	subs	r0, r0, r3
    6df4:	4152      	adcs	r2, r2
    6df6:	0883      	lsrs	r3, r0, #2
    6df8:	428b      	cmp	r3, r1
    6dfa:	d301      	bcc.n	6e00 <__udivsi3+0xe4>
    6dfc:	008b      	lsls	r3, r1, #2
    6dfe:	1ac0      	subs	r0, r0, r3
    6e00:	4152      	adcs	r2, r2
    6e02:	0843      	lsrs	r3, r0, #1
    6e04:	428b      	cmp	r3, r1
    6e06:	d301      	bcc.n	6e0c <__udivsi3+0xf0>
    6e08:	004b      	lsls	r3, r1, #1
    6e0a:	1ac0      	subs	r0, r0, r3
    6e0c:	4152      	adcs	r2, r2
    6e0e:	1a41      	subs	r1, r0, r1
    6e10:	d200      	bcs.n	6e14 <__udivsi3+0xf8>
    6e12:	4601      	mov	r1, r0
    6e14:	4152      	adcs	r2, r2
    6e16:	4610      	mov	r0, r2
    6e18:	4770      	bx	lr
    6e1a:	e7ff      	b.n	6e1c <__udivsi3+0x100>
    6e1c:	b501      	push	{r0, lr}
    6e1e:	2000      	movs	r0, #0
    6e20:	f000 f8f0 	bl	7004 <__aeabi_idiv0>
    6e24:	bd02      	pop	{r1, pc}
    6e26:	46c0      	nop			; (mov r8, r8)

00006e28 <__aeabi_uidivmod>:
__aeabi_uidivmod():
    6e28:	2900      	cmp	r1, #0
    6e2a:	d0f7      	beq.n	6e1c <__udivsi3+0x100>
    6e2c:	e776      	b.n	6d1c <__udivsi3>
    6e2e:	4770      	bx	lr

00006e30 <__divsi3>:
__divsi3():
    6e30:	4603      	mov	r3, r0
    6e32:	430b      	orrs	r3, r1
    6e34:	d47f      	bmi.n	6f36 <__divsi3+0x106>
    6e36:	2200      	movs	r2, #0
    6e38:	0843      	lsrs	r3, r0, #1
    6e3a:	428b      	cmp	r3, r1
    6e3c:	d374      	bcc.n	6f28 <__divsi3+0xf8>
    6e3e:	0903      	lsrs	r3, r0, #4
    6e40:	428b      	cmp	r3, r1
    6e42:	d35f      	bcc.n	6f04 <__divsi3+0xd4>
    6e44:	0a03      	lsrs	r3, r0, #8
    6e46:	428b      	cmp	r3, r1
    6e48:	d344      	bcc.n	6ed4 <__divsi3+0xa4>
    6e4a:	0b03      	lsrs	r3, r0, #12
    6e4c:	428b      	cmp	r3, r1
    6e4e:	d328      	bcc.n	6ea2 <__divsi3+0x72>
    6e50:	0c03      	lsrs	r3, r0, #16
    6e52:	428b      	cmp	r3, r1
    6e54:	d30d      	bcc.n	6e72 <__divsi3+0x42>
    6e56:	22ff      	movs	r2, #255	; 0xff
    6e58:	0209      	lsls	r1, r1, #8
    6e5a:	ba12      	rev	r2, r2
    6e5c:	0c03      	lsrs	r3, r0, #16
    6e5e:	428b      	cmp	r3, r1
    6e60:	d302      	bcc.n	6e68 <__divsi3+0x38>
    6e62:	1212      	asrs	r2, r2, #8
    6e64:	0209      	lsls	r1, r1, #8
    6e66:	d065      	beq.n	6f34 <__divsi3+0x104>
    6e68:	0b03      	lsrs	r3, r0, #12
    6e6a:	428b      	cmp	r3, r1
    6e6c:	d319      	bcc.n	6ea2 <__divsi3+0x72>
    6e6e:	e000      	b.n	6e72 <__divsi3+0x42>
    6e70:	0a09      	lsrs	r1, r1, #8
    6e72:	0bc3      	lsrs	r3, r0, #15
    6e74:	428b      	cmp	r3, r1
    6e76:	d301      	bcc.n	6e7c <__divsi3+0x4c>
    6e78:	03cb      	lsls	r3, r1, #15
    6e7a:	1ac0      	subs	r0, r0, r3
    6e7c:	4152      	adcs	r2, r2
    6e7e:	0b83      	lsrs	r3, r0, #14
    6e80:	428b      	cmp	r3, r1
    6e82:	d301      	bcc.n	6e88 <__divsi3+0x58>
    6e84:	038b      	lsls	r3, r1, #14
    6e86:	1ac0      	subs	r0, r0, r3
    6e88:	4152      	adcs	r2, r2
    6e8a:	0b43      	lsrs	r3, r0, #13
    6e8c:	428b      	cmp	r3, r1
    6e8e:	d301      	bcc.n	6e94 <__divsi3+0x64>
    6e90:	034b      	lsls	r3, r1, #13
    6e92:	1ac0      	subs	r0, r0, r3
    6e94:	4152      	adcs	r2, r2
    6e96:	0b03      	lsrs	r3, r0, #12
    6e98:	428b      	cmp	r3, r1
    6e9a:	d301      	bcc.n	6ea0 <__divsi3+0x70>
    6e9c:	030b      	lsls	r3, r1, #12
    6e9e:	1ac0      	subs	r0, r0, r3
    6ea0:	4152      	adcs	r2, r2
    6ea2:	0ac3      	lsrs	r3, r0, #11
    6ea4:	428b      	cmp	r3, r1
    6ea6:	d301      	bcc.n	6eac <__divsi3+0x7c>
    6ea8:	02cb      	lsls	r3, r1, #11
    6eaa:	1ac0      	subs	r0, r0, r3
    6eac:	4152      	adcs	r2, r2
    6eae:	0a83      	lsrs	r3, r0, #10
    6eb0:	428b      	cmp	r3, r1
    6eb2:	d301      	bcc.n	6eb8 <__divsi3+0x88>
    6eb4:	028b      	lsls	r3, r1, #10
    6eb6:	1ac0      	subs	r0, r0, r3
    6eb8:	4152      	adcs	r2, r2
    6eba:	0a43      	lsrs	r3, r0, #9
    6ebc:	428b      	cmp	r3, r1
    6ebe:	d301      	bcc.n	6ec4 <__divsi3+0x94>
    6ec0:	024b      	lsls	r3, r1, #9
    6ec2:	1ac0      	subs	r0, r0, r3
    6ec4:	4152      	adcs	r2, r2
    6ec6:	0a03      	lsrs	r3, r0, #8
    6ec8:	428b      	cmp	r3, r1
    6eca:	d301      	bcc.n	6ed0 <__divsi3+0xa0>
    6ecc:	020b      	lsls	r3, r1, #8
    6ece:	1ac0      	subs	r0, r0, r3
    6ed0:	4152      	adcs	r2, r2
    6ed2:	d2cd      	bcs.n	6e70 <__divsi3+0x40>
    6ed4:	09c3      	lsrs	r3, r0, #7
    6ed6:	428b      	cmp	r3, r1
    6ed8:	d301      	bcc.n	6ede <__divsi3+0xae>
    6eda:	01cb      	lsls	r3, r1, #7
    6edc:	1ac0      	subs	r0, r0, r3
    6ede:	4152      	adcs	r2, r2
    6ee0:	0983      	lsrs	r3, r0, #6
    6ee2:	428b      	cmp	r3, r1
    6ee4:	d301      	bcc.n	6eea <__divsi3+0xba>
    6ee6:	018b      	lsls	r3, r1, #6
    6ee8:	1ac0      	subs	r0, r0, r3
    6eea:	4152      	adcs	r2, r2
    6eec:	0943      	lsrs	r3, r0, #5
    6eee:	428b      	cmp	r3, r1
    6ef0:	d301      	bcc.n	6ef6 <__divsi3+0xc6>
    6ef2:	014b      	lsls	r3, r1, #5
    6ef4:	1ac0      	subs	r0, r0, r3
    6ef6:	4152      	adcs	r2, r2
    6ef8:	0903      	lsrs	r3, r0, #4
    6efa:	428b      	cmp	r3, r1
    6efc:	d301      	bcc.n	6f02 <__divsi3+0xd2>
    6efe:	010b      	lsls	r3, r1, #4
    6f00:	1ac0      	subs	r0, r0, r3
    6f02:	4152      	adcs	r2, r2
    6f04:	08c3      	lsrs	r3, r0, #3
    6f06:	428b      	cmp	r3, r1
    6f08:	d301      	bcc.n	6f0e <__divsi3+0xde>
    6f0a:	00cb      	lsls	r3, r1, #3
    6f0c:	1ac0      	subs	r0, r0, r3
    6f0e:	4152      	adcs	r2, r2
    6f10:	0883      	lsrs	r3, r0, #2
    6f12:	428b      	cmp	r3, r1
    6f14:	d301      	bcc.n	6f1a <__divsi3+0xea>
    6f16:	008b      	lsls	r3, r1, #2
    6f18:	1ac0      	subs	r0, r0, r3
    6f1a:	4152      	adcs	r2, r2
    6f1c:	0843      	lsrs	r3, r0, #1
    6f1e:	428b      	cmp	r3, r1
    6f20:	d301      	bcc.n	6f26 <__divsi3+0xf6>
    6f22:	004b      	lsls	r3, r1, #1
    6f24:	1ac0      	subs	r0, r0, r3
    6f26:	4152      	adcs	r2, r2
    6f28:	1a41      	subs	r1, r0, r1
    6f2a:	d200      	bcs.n	6f2e <__divsi3+0xfe>
    6f2c:	4601      	mov	r1, r0
    6f2e:	4152      	adcs	r2, r2
    6f30:	4610      	mov	r0, r2
    6f32:	4770      	bx	lr
    6f34:	e05d      	b.n	6ff2 <__divsi3+0x1c2>
    6f36:	0fca      	lsrs	r2, r1, #31
    6f38:	d000      	beq.n	6f3c <__divsi3+0x10c>
    6f3a:	4249      	negs	r1, r1
    6f3c:	1003      	asrs	r3, r0, #32
    6f3e:	d300      	bcc.n	6f42 <__divsi3+0x112>
    6f40:	4240      	negs	r0, r0
    6f42:	4053      	eors	r3, r2
    6f44:	2200      	movs	r2, #0
    6f46:	469c      	mov	ip, r3
    6f48:	0903      	lsrs	r3, r0, #4
    6f4a:	428b      	cmp	r3, r1
    6f4c:	d32d      	bcc.n	6faa <__divsi3+0x17a>
    6f4e:	0a03      	lsrs	r3, r0, #8
    6f50:	428b      	cmp	r3, r1
    6f52:	d312      	bcc.n	6f7a <__divsi3+0x14a>
    6f54:	22fc      	movs	r2, #252	; 0xfc
    6f56:	0189      	lsls	r1, r1, #6
    6f58:	ba12      	rev	r2, r2
    6f5a:	0a03      	lsrs	r3, r0, #8
    6f5c:	428b      	cmp	r3, r1
    6f5e:	d30c      	bcc.n	6f7a <__divsi3+0x14a>
    6f60:	0189      	lsls	r1, r1, #6
    6f62:	1192      	asrs	r2, r2, #6
    6f64:	428b      	cmp	r3, r1
    6f66:	d308      	bcc.n	6f7a <__divsi3+0x14a>
    6f68:	0189      	lsls	r1, r1, #6
    6f6a:	1192      	asrs	r2, r2, #6
    6f6c:	428b      	cmp	r3, r1
    6f6e:	d304      	bcc.n	6f7a <__divsi3+0x14a>
    6f70:	0189      	lsls	r1, r1, #6
    6f72:	d03a      	beq.n	6fea <__divsi3+0x1ba>
    6f74:	1192      	asrs	r2, r2, #6
    6f76:	e000      	b.n	6f7a <__divsi3+0x14a>
    6f78:	0989      	lsrs	r1, r1, #6
    6f7a:	09c3      	lsrs	r3, r0, #7
    6f7c:	428b      	cmp	r3, r1
    6f7e:	d301      	bcc.n	6f84 <__divsi3+0x154>
    6f80:	01cb      	lsls	r3, r1, #7
    6f82:	1ac0      	subs	r0, r0, r3
    6f84:	4152      	adcs	r2, r2
    6f86:	0983      	lsrs	r3, r0, #6
    6f88:	428b      	cmp	r3, r1
    6f8a:	d301      	bcc.n	6f90 <__divsi3+0x160>
    6f8c:	018b      	lsls	r3, r1, #6
    6f8e:	1ac0      	subs	r0, r0, r3
    6f90:	4152      	adcs	r2, r2
    6f92:	0943      	lsrs	r3, r0, #5
    6f94:	428b      	cmp	r3, r1
    6f96:	d301      	bcc.n	6f9c <__divsi3+0x16c>
    6f98:	014b      	lsls	r3, r1, #5
    6f9a:	1ac0      	subs	r0, r0, r3
    6f9c:	4152      	adcs	r2, r2
    6f9e:	0903      	lsrs	r3, r0, #4
    6fa0:	428b      	cmp	r3, r1
    6fa2:	d301      	bcc.n	6fa8 <__divsi3+0x178>
    6fa4:	010b      	lsls	r3, r1, #4
    6fa6:	1ac0      	subs	r0, r0, r3
    6fa8:	4152      	adcs	r2, r2
    6faa:	08c3      	lsrs	r3, r0, #3
    6fac:	428b      	cmp	r3, r1
    6fae:	d301      	bcc.n	6fb4 <__divsi3+0x184>
    6fb0:	00cb      	lsls	r3, r1, #3
    6fb2:	1ac0      	subs	r0, r0, r3
    6fb4:	4152      	adcs	r2, r2
    6fb6:	0883      	lsrs	r3, r0, #2
    6fb8:	428b      	cmp	r3, r1
    6fba:	d301      	bcc.n	6fc0 <__divsi3+0x190>
    6fbc:	008b      	lsls	r3, r1, #2
    6fbe:	1ac0      	subs	r0, r0, r3
    6fc0:	4152      	adcs	r2, r2
    6fc2:	d2d9      	bcs.n	6f78 <__divsi3+0x148>
    6fc4:	0843      	lsrs	r3, r0, #1
    6fc6:	428b      	cmp	r3, r1
    6fc8:	d301      	bcc.n	6fce <__divsi3+0x19e>
    6fca:	004b      	lsls	r3, r1, #1
    6fcc:	1ac0      	subs	r0, r0, r3
    6fce:	4152      	adcs	r2, r2
    6fd0:	1a41      	subs	r1, r0, r1
    6fd2:	d200      	bcs.n	6fd6 <__divsi3+0x1a6>
    6fd4:	4601      	mov	r1, r0
    6fd6:	4663      	mov	r3, ip
    6fd8:	4152      	adcs	r2, r2
    6fda:	105b      	asrs	r3, r3, #1
    6fdc:	4610      	mov	r0, r2
    6fde:	d301      	bcc.n	6fe4 <__divsi3+0x1b4>
    6fe0:	4240      	negs	r0, r0
    6fe2:	2b00      	cmp	r3, #0
    6fe4:	d500      	bpl.n	6fe8 <__divsi3+0x1b8>
    6fe6:	4249      	negs	r1, r1
    6fe8:	4770      	bx	lr
    6fea:	4663      	mov	r3, ip
    6fec:	105b      	asrs	r3, r3, #1
    6fee:	d300      	bcc.n	6ff2 <__divsi3+0x1c2>
    6ff0:	4240      	negs	r0, r0
    6ff2:	b501      	push	{r0, lr}
    6ff4:	2000      	movs	r0, #0
    6ff6:	f000 f805 	bl	7004 <__aeabi_idiv0>
    6ffa:	bd02      	pop	{r1, pc}

00006ffc <__aeabi_idivmod>:
__aeabi_idivmod():
    6ffc:	2900      	cmp	r1, #0
    6ffe:	d0f8      	beq.n	6ff2 <__divsi3+0x1c2>
    7000:	e716      	b.n	6e30 <__divsi3>
    7002:	4770      	bx	lr

00007004 <__aeabi_idiv0>:
__aeabi_idiv0():
    7004:	4770      	bx	lr
    7006:	46c0      	nop			; (mov r8, r8)

00007008 <__aeabi_cdrcmple>:
__aeabi_cdrcmple():
    7008:	4684      	mov	ip, r0
    700a:	1c10      	adds	r0, r2, #0
    700c:	4662      	mov	r2, ip
    700e:	468c      	mov	ip, r1
    7010:	1c19      	adds	r1, r3, #0
    7012:	4663      	mov	r3, ip
    7014:	e000      	b.n	7018 <__aeabi_cdcmpeq>
    7016:	46c0      	nop			; (mov r8, r8)

00007018 <__aeabi_cdcmpeq>:
__aeabi_cdcmpeq():
    7018:	b51f      	push	{r0, r1, r2, r3, r4, lr}
    701a:	f001 fe03 	bl	8c24 <__ledf2>
    701e:	2800      	cmp	r0, #0
    7020:	d401      	bmi.n	7026 <__aeabi_cdcmpeq+0xe>
    7022:	2100      	movs	r1, #0
    7024:	42c8      	cmn	r0, r1
    7026:	bd1f      	pop	{r0, r1, r2, r3, r4, pc}

00007028 <__aeabi_dcmpeq>:
__aeabi_dcmpeq():
    7028:	b510      	push	{r4, lr}
    702a:	f001 fd5b 	bl	8ae4 <__eqdf2>
    702e:	4240      	negs	r0, r0
    7030:	3001      	adds	r0, #1
    7032:	bd10      	pop	{r4, pc}

00007034 <__aeabi_dcmplt>:
__aeabi_dcmplt():
    7034:	b510      	push	{r4, lr}
    7036:	f001 fdf5 	bl	8c24 <__ledf2>
    703a:	2800      	cmp	r0, #0
    703c:	db01      	blt.n	7042 <__aeabi_dcmplt+0xe>
    703e:	2000      	movs	r0, #0
    7040:	bd10      	pop	{r4, pc}
    7042:	2001      	movs	r0, #1
    7044:	bd10      	pop	{r4, pc}
    7046:	46c0      	nop			; (mov r8, r8)

00007048 <__aeabi_dcmple>:
__aeabi_dcmple():
    7048:	b510      	push	{r4, lr}
    704a:	f001 fdeb 	bl	8c24 <__ledf2>
    704e:	2800      	cmp	r0, #0
    7050:	dd01      	ble.n	7056 <__aeabi_dcmple+0xe>
    7052:	2000      	movs	r0, #0
    7054:	bd10      	pop	{r4, pc}
    7056:	2001      	movs	r0, #1
    7058:	bd10      	pop	{r4, pc}
    705a:	46c0      	nop			; (mov r8, r8)

0000705c <__aeabi_dcmpgt>:
__aeabi_dcmpgt():
    705c:	b510      	push	{r4, lr}
    705e:	f001 fd7d 	bl	8b5c <__gedf2>
    7062:	2800      	cmp	r0, #0
    7064:	dc01      	bgt.n	706a <__aeabi_dcmpgt+0xe>
    7066:	2000      	movs	r0, #0
    7068:	bd10      	pop	{r4, pc}
    706a:	2001      	movs	r0, #1
    706c:	bd10      	pop	{r4, pc}
    706e:	46c0      	nop			; (mov r8, r8)

00007070 <__aeabi_dcmpge>:
__aeabi_dcmpge():
    7070:	b510      	push	{r4, lr}
    7072:	f001 fd73 	bl	8b5c <__gedf2>
    7076:	2800      	cmp	r0, #0
    7078:	da01      	bge.n	707e <__aeabi_dcmpge+0xe>
    707a:	2000      	movs	r0, #0
    707c:	bd10      	pop	{r4, pc}
    707e:	2001      	movs	r0, #1
    7080:	bd10      	pop	{r4, pc}
    7082:	46c0      	nop			; (mov r8, r8)

00007084 <__aeabi_cfrcmple>:
__aeabi_cfrcmple():
    7084:	4684      	mov	ip, r0
    7086:	1c08      	adds	r0, r1, #0
    7088:	4661      	mov	r1, ip
    708a:	e7ff      	b.n	708c <__aeabi_cfcmpeq>

0000708c <__aeabi_cfcmpeq>:
__aeabi_cfcmpeq():
    708c:	b51f      	push	{r0, r1, r2, r3, r4, lr}
    708e:	f000 fb1b 	bl	76c8 <__lesf2>
    7092:	2800      	cmp	r0, #0
    7094:	d401      	bmi.n	709a <__aeabi_cfcmpeq+0xe>
    7096:	2100      	movs	r1, #0
    7098:	42c8      	cmn	r0, r1
    709a:	bd1f      	pop	{r0, r1, r2, r3, r4, pc}

0000709c <__aeabi_fcmpeq>:
__aeabi_fcmpeq():
    709c:	b510      	push	{r4, lr}
    709e:	f000 fa9d 	bl	75dc <__eqsf2>
    70a2:	4240      	negs	r0, r0
    70a4:	3001      	adds	r0, #1
    70a6:	bd10      	pop	{r4, pc}

000070a8 <__aeabi_fcmplt>:
__aeabi_fcmplt():
    70a8:	b510      	push	{r4, lr}
    70aa:	f000 fb0d 	bl	76c8 <__lesf2>
    70ae:	2800      	cmp	r0, #0
    70b0:	db01      	blt.n	70b6 <__aeabi_fcmplt+0xe>
    70b2:	2000      	movs	r0, #0
    70b4:	bd10      	pop	{r4, pc}
    70b6:	2001      	movs	r0, #1
    70b8:	bd10      	pop	{r4, pc}
    70ba:	46c0      	nop			; (mov r8, r8)

000070bc <__aeabi_fcmple>:
__aeabi_fcmple():
    70bc:	b510      	push	{r4, lr}
    70be:	f000 fb03 	bl	76c8 <__lesf2>
    70c2:	2800      	cmp	r0, #0
    70c4:	dd01      	ble.n	70ca <__aeabi_fcmple+0xe>
    70c6:	2000      	movs	r0, #0
    70c8:	bd10      	pop	{r4, pc}
    70ca:	2001      	movs	r0, #1
    70cc:	bd10      	pop	{r4, pc}
    70ce:	46c0      	nop			; (mov r8, r8)

000070d0 <__aeabi_fcmpgt>:
__aeabi_fcmpgt():
    70d0:	b510      	push	{r4, lr}
    70d2:	f000 faab 	bl	762c <__gesf2>
    70d6:	2800      	cmp	r0, #0
    70d8:	dc01      	bgt.n	70de <__aeabi_fcmpgt+0xe>
    70da:	2000      	movs	r0, #0
    70dc:	bd10      	pop	{r4, pc}
    70de:	2001      	movs	r0, #1
    70e0:	bd10      	pop	{r4, pc}
    70e2:	46c0      	nop			; (mov r8, r8)

000070e4 <__aeabi_fcmpge>:
__aeabi_fcmpge():
    70e4:	b510      	push	{r4, lr}
    70e6:	f000 faa1 	bl	762c <__gesf2>
    70ea:	2800      	cmp	r0, #0
    70ec:	da01      	bge.n	70f2 <__aeabi_fcmpge+0xe>
    70ee:	2000      	movs	r0, #0
    70f0:	bd10      	pop	{r4, pc}
    70f2:	2001      	movs	r0, #1
    70f4:	bd10      	pop	{r4, pc}
    70f6:	46c0      	nop			; (mov r8, r8)

000070f8 <__aeabi_uldivmod>:
__aeabi_uldivmod():
    70f8:	2b00      	cmp	r3, #0
    70fa:	d111      	bne.n	7120 <__aeabi_uldivmod+0x28>
    70fc:	2a00      	cmp	r2, #0
    70fe:	d10f      	bne.n	7120 <__aeabi_uldivmod+0x28>
    7100:	2900      	cmp	r1, #0
    7102:	d100      	bne.n	7106 <__aeabi_uldivmod+0xe>
    7104:	2800      	cmp	r0, #0
    7106:	d002      	beq.n	710e <__aeabi_uldivmod+0x16>
    7108:	2100      	movs	r1, #0
    710a:	43c9      	mvns	r1, r1
    710c:	1c08      	adds	r0, r1, #0
    710e:	b407      	push	{r0, r1, r2}
    7110:	4802      	ldr	r0, [pc, #8]	; (711c <__aeabi_uldivmod+0x24>)
    7112:	a102      	add	r1, pc, #8	; (adr r1, 711c <__aeabi_uldivmod+0x24>)
    7114:	1840      	adds	r0, r0, r1
    7116:	9002      	str	r0, [sp, #8]
    7118:	bd03      	pop	{r0, r1, pc}
    711a:	46c0      	nop			; (mov r8, r8)
    711c:	fffffee9 	.word	0xfffffee9
    7120:	b403      	push	{r0, r1}
    7122:	4668      	mov	r0, sp
    7124:	b501      	push	{r0, lr}
    7126:	9802      	ldr	r0, [sp, #8]
    7128:	f000 f884 	bl	7234 <__udivmoddi4>
    712c:	9b01      	ldr	r3, [sp, #4]
    712e:	469e      	mov	lr, r3
    7130:	b002      	add	sp, #8
    7132:	bc0c      	pop	{r2, r3}
    7134:	4770      	bx	lr
    7136:	46c0      	nop			; (mov r8, r8)

00007138 <__aeabi_lmul>:
__muldi3():
    7138:	b5f0      	push	{r4, r5, r6, r7, lr}
    713a:	46ce      	mov	lr, r9
    713c:	4647      	mov	r7, r8
    713e:	0415      	lsls	r5, r2, #16
    7140:	0c2d      	lsrs	r5, r5, #16
    7142:	002e      	movs	r6, r5
    7144:	b580      	push	{r7, lr}
    7146:	0407      	lsls	r7, r0, #16
    7148:	0c14      	lsrs	r4, r2, #16
    714a:	0c3f      	lsrs	r7, r7, #16
    714c:	4699      	mov	r9, r3
    714e:	0c03      	lsrs	r3, r0, #16
    7150:	437e      	muls	r6, r7
    7152:	435d      	muls	r5, r3
    7154:	4367      	muls	r7, r4
    7156:	4363      	muls	r3, r4
    7158:	197f      	adds	r7, r7, r5
    715a:	0c34      	lsrs	r4, r6, #16
    715c:	19e4      	adds	r4, r4, r7
    715e:	469c      	mov	ip, r3
    7160:	42a5      	cmp	r5, r4
    7162:	d903      	bls.n	716c <__aeabi_lmul+0x34>
    7164:	2380      	movs	r3, #128	; 0x80
    7166:	025b      	lsls	r3, r3, #9
    7168:	4698      	mov	r8, r3
    716a:	44c4      	add	ip, r8
    716c:	464b      	mov	r3, r9
    716e:	4343      	muls	r3, r0
    7170:	4351      	muls	r1, r2
    7172:	0c25      	lsrs	r5, r4, #16
    7174:	0436      	lsls	r6, r6, #16
    7176:	4465      	add	r5, ip
    7178:	0c36      	lsrs	r6, r6, #16
    717a:	0424      	lsls	r4, r4, #16
    717c:	19a4      	adds	r4, r4, r6
    717e:	195b      	adds	r3, r3, r5
    7180:	1859      	adds	r1, r3, r1
    7182:	0020      	movs	r0, r4
    7184:	bc0c      	pop	{r2, r3}
    7186:	4690      	mov	r8, r2
    7188:	4699      	mov	r9, r3
    718a:	bdf0      	pop	{r4, r5, r6, r7, pc}

0000718c <__aeabi_f2uiz>:
__fixunssfsi():
    718c:	219e      	movs	r1, #158	; 0x9e
    718e:	b510      	push	{r4, lr}
    7190:	05c9      	lsls	r1, r1, #23
    7192:	1c04      	adds	r4, r0, #0
    7194:	f7ff ffa6 	bl	70e4 <__aeabi_fcmpge>
    7198:	2800      	cmp	r0, #0
    719a:	d103      	bne.n	71a4 <__aeabi_f2uiz+0x18>
    719c:	1c20      	adds	r0, r4, #0
    719e:	f000 fdd9 	bl	7d54 <__aeabi_f2iz>
    71a2:	bd10      	pop	{r4, pc}
    71a4:	219e      	movs	r1, #158	; 0x9e
    71a6:	1c20      	adds	r0, r4, #0
    71a8:	05c9      	lsls	r1, r1, #23
    71aa:	f000 fc0f 	bl	79cc <__aeabi_fsub>
    71ae:	f000 fdd1 	bl	7d54 <__aeabi_f2iz>
    71b2:	2380      	movs	r3, #128	; 0x80
    71b4:	061b      	lsls	r3, r3, #24
    71b6:	469c      	mov	ip, r3
    71b8:	4460      	add	r0, ip
    71ba:	e7f2      	b.n	71a2 <__aeabi_f2uiz+0x16>

000071bc <__aeabi_d2uiz>:
__aeabi_d2uiz():
    71bc:	b570      	push	{r4, r5, r6, lr}
    71be:	2200      	movs	r2, #0
    71c0:	4b0c      	ldr	r3, [pc, #48]	; (71f4 <__aeabi_d2uiz+0x38>)
    71c2:	0004      	movs	r4, r0
    71c4:	000d      	movs	r5, r1
    71c6:	f7ff ff53 	bl	7070 <__aeabi_dcmpge>
    71ca:	2800      	cmp	r0, #0
    71cc:	d104      	bne.n	71d8 <__aeabi_d2uiz+0x1c>
    71ce:	0020      	movs	r0, r4
    71d0:	0029      	movs	r1, r5
    71d2:	f002 fb65 	bl	98a0 <__aeabi_d2iz>
    71d6:	bd70      	pop	{r4, r5, r6, pc}
    71d8:	4b06      	ldr	r3, [pc, #24]	; (71f4 <__aeabi_d2uiz+0x38>)
    71da:	2200      	movs	r2, #0
    71dc:	0020      	movs	r0, r4
    71de:	0029      	movs	r1, r5
    71e0:	f001 fffa 	bl	91d8 <__aeabi_dsub>
    71e4:	f002 fb5c 	bl	98a0 <__aeabi_d2iz>
    71e8:	2380      	movs	r3, #128	; 0x80
    71ea:	061b      	lsls	r3, r3, #24
    71ec:	469c      	mov	ip, r3
    71ee:	4460      	add	r0, ip
    71f0:	e7f1      	b.n	71d6 <__aeabi_d2uiz+0x1a>
    71f2:	46c0      	nop			; (mov r8, r8)
    71f4:	41e00000 	.word	0x41e00000

000071f8 <__aeabi_d2ulz>:
__fixunsdfdi():
    71f8:	b570      	push	{r4, r5, r6, lr}
    71fa:	2200      	movs	r2, #0
    71fc:	4b0b      	ldr	r3, [pc, #44]	; (722c <__aeabi_d2ulz+0x34>)
    71fe:	000d      	movs	r5, r1
    7200:	0004      	movs	r4, r0
    7202:	f001 fd77 	bl	8cf4 <__aeabi_dmul>
    7206:	f7ff ffd9 	bl	71bc <__aeabi_d2uiz>
    720a:	0006      	movs	r6, r0
    720c:	f002 fbb8 	bl	9980 <__aeabi_ui2d>
    7210:	2200      	movs	r2, #0
    7212:	4b07      	ldr	r3, [pc, #28]	; (7230 <__aeabi_d2ulz+0x38>)
    7214:	f001 fd6e 	bl	8cf4 <__aeabi_dmul>
    7218:	0002      	movs	r2, r0
    721a:	000b      	movs	r3, r1
    721c:	0020      	movs	r0, r4
    721e:	0029      	movs	r1, r5
    7220:	f001 ffda 	bl	91d8 <__aeabi_dsub>
    7224:	f7ff ffca 	bl	71bc <__aeabi_d2uiz>
    7228:	0031      	movs	r1, r6
    722a:	bd70      	pop	{r4, r5, r6, pc}
    722c:	3df00000 	.word	0x3df00000
    7230:	41f00000 	.word	0x41f00000

00007234 <__udivmoddi4>:
__udivmoddi4():
    7234:	b5f0      	push	{r4, r5, r6, r7, lr}
    7236:	464f      	mov	r7, r9
    7238:	4646      	mov	r6, r8
    723a:	46d6      	mov	lr, sl
    723c:	b5c0      	push	{r6, r7, lr}
    723e:	0004      	movs	r4, r0
    7240:	b082      	sub	sp, #8
    7242:	000d      	movs	r5, r1
    7244:	4691      	mov	r9, r2
    7246:	4698      	mov	r8, r3
    7248:	428b      	cmp	r3, r1
    724a:	d82f      	bhi.n	72ac <__udivmoddi4+0x78>
    724c:	d02c      	beq.n	72a8 <__udivmoddi4+0x74>
    724e:	4641      	mov	r1, r8
    7250:	4648      	mov	r0, r9
    7252:	f002 fcbb 	bl	9bcc <__clzdi2>
    7256:	0029      	movs	r1, r5
    7258:	0006      	movs	r6, r0
    725a:	0020      	movs	r0, r4
    725c:	f002 fcb6 	bl	9bcc <__clzdi2>
    7260:	1a33      	subs	r3, r6, r0
    7262:	469c      	mov	ip, r3
    7264:	3b20      	subs	r3, #32
    7266:	469a      	mov	sl, r3
    7268:	d500      	bpl.n	726c <__udivmoddi4+0x38>
    726a:	e076      	b.n	735a <__udivmoddi4+0x126>
    726c:	464b      	mov	r3, r9
    726e:	4652      	mov	r2, sl
    7270:	4093      	lsls	r3, r2
    7272:	001f      	movs	r7, r3
    7274:	464b      	mov	r3, r9
    7276:	4662      	mov	r2, ip
    7278:	4093      	lsls	r3, r2
    727a:	001e      	movs	r6, r3
    727c:	42af      	cmp	r7, r5
    727e:	d828      	bhi.n	72d2 <__udivmoddi4+0x9e>
    7280:	d025      	beq.n	72ce <__udivmoddi4+0x9a>
    7282:	4653      	mov	r3, sl
    7284:	1ba4      	subs	r4, r4, r6
    7286:	41bd      	sbcs	r5, r7
    7288:	2b00      	cmp	r3, #0
    728a:	da00      	bge.n	728e <__udivmoddi4+0x5a>
    728c:	e07b      	b.n	7386 <__udivmoddi4+0x152>
    728e:	2200      	movs	r2, #0
    7290:	2300      	movs	r3, #0
    7292:	9200      	str	r2, [sp, #0]
    7294:	9301      	str	r3, [sp, #4]
    7296:	2301      	movs	r3, #1
    7298:	4652      	mov	r2, sl
    729a:	4093      	lsls	r3, r2
    729c:	9301      	str	r3, [sp, #4]
    729e:	2301      	movs	r3, #1
    72a0:	4662      	mov	r2, ip
    72a2:	4093      	lsls	r3, r2
    72a4:	9300      	str	r3, [sp, #0]
    72a6:	e018      	b.n	72da <__udivmoddi4+0xa6>
    72a8:	4282      	cmp	r2, r0
    72aa:	d9d0      	bls.n	724e <__udivmoddi4+0x1a>
    72ac:	2200      	movs	r2, #0
    72ae:	2300      	movs	r3, #0
    72b0:	9200      	str	r2, [sp, #0]
    72b2:	9301      	str	r3, [sp, #4]
    72b4:	9b0a      	ldr	r3, [sp, #40]	; 0x28
    72b6:	2b00      	cmp	r3, #0
    72b8:	d001      	beq.n	72be <__udivmoddi4+0x8a>
    72ba:	601c      	str	r4, [r3, #0]
    72bc:	605d      	str	r5, [r3, #4]
    72be:	9800      	ldr	r0, [sp, #0]
    72c0:	9901      	ldr	r1, [sp, #4]
    72c2:	b002      	add	sp, #8
    72c4:	bc1c      	pop	{r2, r3, r4}
    72c6:	4690      	mov	r8, r2
    72c8:	4699      	mov	r9, r3
    72ca:	46a2      	mov	sl, r4
    72cc:	bdf0      	pop	{r4, r5, r6, r7, pc}
    72ce:	42a3      	cmp	r3, r4
    72d0:	d9d7      	bls.n	7282 <__udivmoddi4+0x4e>
    72d2:	2200      	movs	r2, #0
    72d4:	2300      	movs	r3, #0
    72d6:	9200      	str	r2, [sp, #0]
    72d8:	9301      	str	r3, [sp, #4]
    72da:	4663      	mov	r3, ip
    72dc:	2b00      	cmp	r3, #0
    72de:	d0e9      	beq.n	72b4 <__udivmoddi4+0x80>
    72e0:	07fb      	lsls	r3, r7, #31
    72e2:	4698      	mov	r8, r3
    72e4:	4641      	mov	r1, r8
    72e6:	0872      	lsrs	r2, r6, #1
    72e8:	430a      	orrs	r2, r1
    72ea:	087b      	lsrs	r3, r7, #1
    72ec:	4666      	mov	r6, ip
    72ee:	e00e      	b.n	730e <__udivmoddi4+0xda>
    72f0:	42ab      	cmp	r3, r5
    72f2:	d101      	bne.n	72f8 <__udivmoddi4+0xc4>
    72f4:	42a2      	cmp	r2, r4
    72f6:	d80c      	bhi.n	7312 <__udivmoddi4+0xde>
    72f8:	1aa4      	subs	r4, r4, r2
    72fa:	419d      	sbcs	r5, r3
    72fc:	2001      	movs	r0, #1
    72fe:	1924      	adds	r4, r4, r4
    7300:	416d      	adcs	r5, r5
    7302:	2100      	movs	r1, #0
    7304:	3e01      	subs	r6, #1
    7306:	1824      	adds	r4, r4, r0
    7308:	414d      	adcs	r5, r1
    730a:	2e00      	cmp	r6, #0
    730c:	d006      	beq.n	731c <__udivmoddi4+0xe8>
    730e:	42ab      	cmp	r3, r5
    7310:	d9ee      	bls.n	72f0 <__udivmoddi4+0xbc>
    7312:	3e01      	subs	r6, #1
    7314:	1924      	adds	r4, r4, r4
    7316:	416d      	adcs	r5, r5
    7318:	2e00      	cmp	r6, #0
    731a:	d1f8      	bne.n	730e <__udivmoddi4+0xda>
    731c:	9800      	ldr	r0, [sp, #0]
    731e:	9901      	ldr	r1, [sp, #4]
    7320:	4653      	mov	r3, sl
    7322:	1900      	adds	r0, r0, r4
    7324:	4169      	adcs	r1, r5
    7326:	2b00      	cmp	r3, #0
    7328:	db23      	blt.n	7372 <__udivmoddi4+0x13e>
    732a:	002b      	movs	r3, r5
    732c:	4652      	mov	r2, sl
    732e:	40d3      	lsrs	r3, r2
    7330:	002a      	movs	r2, r5
    7332:	4664      	mov	r4, ip
    7334:	40e2      	lsrs	r2, r4
    7336:	001c      	movs	r4, r3
    7338:	4653      	mov	r3, sl
    733a:	0015      	movs	r5, r2
    733c:	2b00      	cmp	r3, #0
    733e:	db2d      	blt.n	739c <__udivmoddi4+0x168>
    7340:	0026      	movs	r6, r4
    7342:	4657      	mov	r7, sl
    7344:	40be      	lsls	r6, r7
    7346:	0033      	movs	r3, r6
    7348:	0026      	movs	r6, r4
    734a:	4667      	mov	r7, ip
    734c:	40be      	lsls	r6, r7
    734e:	0032      	movs	r2, r6
    7350:	1a80      	subs	r0, r0, r2
    7352:	4199      	sbcs	r1, r3
    7354:	9000      	str	r0, [sp, #0]
    7356:	9101      	str	r1, [sp, #4]
    7358:	e7ac      	b.n	72b4 <__udivmoddi4+0x80>
    735a:	4662      	mov	r2, ip
    735c:	2320      	movs	r3, #32
    735e:	1a9b      	subs	r3, r3, r2
    7360:	464a      	mov	r2, r9
    7362:	40da      	lsrs	r2, r3
    7364:	4661      	mov	r1, ip
    7366:	0013      	movs	r3, r2
    7368:	4642      	mov	r2, r8
    736a:	408a      	lsls	r2, r1
    736c:	0017      	movs	r7, r2
    736e:	431f      	orrs	r7, r3
    7370:	e780      	b.n	7274 <__udivmoddi4+0x40>
    7372:	4662      	mov	r2, ip
    7374:	2320      	movs	r3, #32
    7376:	1a9b      	subs	r3, r3, r2
    7378:	002a      	movs	r2, r5
    737a:	4666      	mov	r6, ip
    737c:	409a      	lsls	r2, r3
    737e:	0023      	movs	r3, r4
    7380:	40f3      	lsrs	r3, r6
    7382:	4313      	orrs	r3, r2
    7384:	e7d4      	b.n	7330 <__udivmoddi4+0xfc>
    7386:	4662      	mov	r2, ip
    7388:	2320      	movs	r3, #32
    738a:	2100      	movs	r1, #0
    738c:	1a9b      	subs	r3, r3, r2
    738e:	2200      	movs	r2, #0
    7390:	9100      	str	r1, [sp, #0]
    7392:	9201      	str	r2, [sp, #4]
    7394:	2201      	movs	r2, #1
    7396:	40da      	lsrs	r2, r3
    7398:	9201      	str	r2, [sp, #4]
    739a:	e780      	b.n	729e <__udivmoddi4+0x6a>
    739c:	2320      	movs	r3, #32
    739e:	4662      	mov	r2, ip
    73a0:	0026      	movs	r6, r4
    73a2:	1a9b      	subs	r3, r3, r2
    73a4:	40de      	lsrs	r6, r3
    73a6:	002f      	movs	r7, r5
    73a8:	46b0      	mov	r8, r6
    73aa:	4666      	mov	r6, ip
    73ac:	40b7      	lsls	r7, r6
    73ae:	4646      	mov	r6, r8
    73b0:	003b      	movs	r3, r7
    73b2:	4333      	orrs	r3, r6
    73b4:	e7c8      	b.n	7348 <__udivmoddi4+0x114>
    73b6:	46c0      	nop			; (mov r8, r8)

000073b8 <__aeabi_fdiv>:
__aeabi_fdiv():
    73b8:	b5f8      	push	{r3, r4, r5, r6, r7, lr}
    73ba:	4657      	mov	r7, sl
    73bc:	464e      	mov	r6, r9
    73be:	4645      	mov	r5, r8
    73c0:	46de      	mov	lr, fp
    73c2:	0244      	lsls	r4, r0, #9
    73c4:	b5e0      	push	{r5, r6, r7, lr}
    73c6:	0046      	lsls	r6, r0, #1
    73c8:	4688      	mov	r8, r1
    73ca:	0a64      	lsrs	r4, r4, #9
    73cc:	0e36      	lsrs	r6, r6, #24
    73ce:	0fc7      	lsrs	r7, r0, #31
    73d0:	2e00      	cmp	r6, #0
    73d2:	d063      	beq.n	749c <__aeabi_fdiv+0xe4>
    73d4:	2eff      	cmp	r6, #255	; 0xff
    73d6:	d024      	beq.n	7422 <__aeabi_fdiv+0x6a>
    73d8:	2380      	movs	r3, #128	; 0x80
    73da:	00e4      	lsls	r4, r4, #3
    73dc:	04db      	lsls	r3, r3, #19
    73de:	431c      	orrs	r4, r3
    73e0:	2300      	movs	r3, #0
    73e2:	4699      	mov	r9, r3
    73e4:	469b      	mov	fp, r3
    73e6:	3e7f      	subs	r6, #127	; 0x7f
    73e8:	4643      	mov	r3, r8
    73ea:	4642      	mov	r2, r8
    73ec:	025d      	lsls	r5, r3, #9
    73ee:	0fd2      	lsrs	r2, r2, #31
    73f0:	005b      	lsls	r3, r3, #1
    73f2:	0a6d      	lsrs	r5, r5, #9
    73f4:	0e1b      	lsrs	r3, r3, #24
    73f6:	4690      	mov	r8, r2
    73f8:	4692      	mov	sl, r2
    73fa:	d065      	beq.n	74c8 <__aeabi_fdiv+0x110>
    73fc:	2bff      	cmp	r3, #255	; 0xff
    73fe:	d055      	beq.n	74ac <__aeabi_fdiv+0xf4>
    7400:	2280      	movs	r2, #128	; 0x80
    7402:	2100      	movs	r1, #0
    7404:	00ed      	lsls	r5, r5, #3
    7406:	04d2      	lsls	r2, r2, #19
    7408:	3b7f      	subs	r3, #127	; 0x7f
    740a:	4315      	orrs	r5, r2
    740c:	1af6      	subs	r6, r6, r3
    740e:	4643      	mov	r3, r8
    7410:	464a      	mov	r2, r9
    7412:	407b      	eors	r3, r7
    7414:	2a0f      	cmp	r2, #15
    7416:	d900      	bls.n	741a <__aeabi_fdiv+0x62>
    7418:	e08d      	b.n	7536 <__aeabi_fdiv+0x17e>
    741a:	486d      	ldr	r0, [pc, #436]	; (75d0 <__aeabi_fdiv+0x218>)
    741c:	0092      	lsls	r2, r2, #2
    741e:	5882      	ldr	r2, [r0, r2]
    7420:	4697      	mov	pc, r2
    7422:	2c00      	cmp	r4, #0
    7424:	d154      	bne.n	74d0 <__aeabi_fdiv+0x118>
    7426:	2308      	movs	r3, #8
    7428:	4699      	mov	r9, r3
    742a:	3b06      	subs	r3, #6
    742c:	26ff      	movs	r6, #255	; 0xff
    742e:	469b      	mov	fp, r3
    7430:	e7da      	b.n	73e8 <__aeabi_fdiv+0x30>
    7432:	2500      	movs	r5, #0
    7434:	4653      	mov	r3, sl
    7436:	2902      	cmp	r1, #2
    7438:	d01b      	beq.n	7472 <__aeabi_fdiv+0xba>
    743a:	2903      	cmp	r1, #3
    743c:	d100      	bne.n	7440 <__aeabi_fdiv+0x88>
    743e:	e0bf      	b.n	75c0 <__aeabi_fdiv+0x208>
    7440:	2901      	cmp	r1, #1
    7442:	d028      	beq.n	7496 <__aeabi_fdiv+0xde>
    7444:	0030      	movs	r0, r6
    7446:	307f      	adds	r0, #127	; 0x7f
    7448:	2800      	cmp	r0, #0
    744a:	dd20      	ble.n	748e <__aeabi_fdiv+0xd6>
    744c:	076a      	lsls	r2, r5, #29
    744e:	d004      	beq.n	745a <__aeabi_fdiv+0xa2>
    7450:	220f      	movs	r2, #15
    7452:	402a      	ands	r2, r5
    7454:	2a04      	cmp	r2, #4
    7456:	d000      	beq.n	745a <__aeabi_fdiv+0xa2>
    7458:	3504      	adds	r5, #4
    745a:	012a      	lsls	r2, r5, #4
    745c:	d503      	bpl.n	7466 <__aeabi_fdiv+0xae>
    745e:	0030      	movs	r0, r6
    7460:	4a5c      	ldr	r2, [pc, #368]	; (75d4 <__aeabi_fdiv+0x21c>)
    7462:	3080      	adds	r0, #128	; 0x80
    7464:	4015      	ands	r5, r2
    7466:	28fe      	cmp	r0, #254	; 0xfe
    7468:	dc03      	bgt.n	7472 <__aeabi_fdiv+0xba>
    746a:	01ac      	lsls	r4, r5, #6
    746c:	0a64      	lsrs	r4, r4, #9
    746e:	b2c2      	uxtb	r2, r0
    7470:	e001      	b.n	7476 <__aeabi_fdiv+0xbe>
    7472:	22ff      	movs	r2, #255	; 0xff
    7474:	2400      	movs	r4, #0
    7476:	0264      	lsls	r4, r4, #9
    7478:	05d2      	lsls	r2, r2, #23
    747a:	0a60      	lsrs	r0, r4, #9
    747c:	07db      	lsls	r3, r3, #31
    747e:	4310      	orrs	r0, r2
    7480:	4318      	orrs	r0, r3
    7482:	bc3c      	pop	{r2, r3, r4, r5}
    7484:	4690      	mov	r8, r2
    7486:	4699      	mov	r9, r3
    7488:	46a2      	mov	sl, r4
    748a:	46ab      	mov	fp, r5
    748c:	bdf8      	pop	{r3, r4, r5, r6, r7, pc}
    748e:	2201      	movs	r2, #1
    7490:	1a10      	subs	r0, r2, r0
    7492:	281b      	cmp	r0, #27
    7494:	dd7c      	ble.n	7590 <__aeabi_fdiv+0x1d8>
    7496:	2200      	movs	r2, #0
    7498:	2400      	movs	r4, #0
    749a:	e7ec      	b.n	7476 <__aeabi_fdiv+0xbe>
    749c:	2c00      	cmp	r4, #0
    749e:	d11d      	bne.n	74dc <__aeabi_fdiv+0x124>
    74a0:	2304      	movs	r3, #4
    74a2:	4699      	mov	r9, r3
    74a4:	3b03      	subs	r3, #3
    74a6:	2600      	movs	r6, #0
    74a8:	469b      	mov	fp, r3
    74aa:	e79d      	b.n	73e8 <__aeabi_fdiv+0x30>
    74ac:	3eff      	subs	r6, #255	; 0xff
    74ae:	2d00      	cmp	r5, #0
    74b0:	d120      	bne.n	74f4 <__aeabi_fdiv+0x13c>
    74b2:	2102      	movs	r1, #2
    74b4:	4643      	mov	r3, r8
    74b6:	464a      	mov	r2, r9
    74b8:	407b      	eors	r3, r7
    74ba:	430a      	orrs	r2, r1
    74bc:	2a0f      	cmp	r2, #15
    74be:	d8d8      	bhi.n	7472 <__aeabi_fdiv+0xba>
    74c0:	4845      	ldr	r0, [pc, #276]	; (75d8 <__aeabi_fdiv+0x220>)
    74c2:	0092      	lsls	r2, r2, #2
    74c4:	5882      	ldr	r2, [r0, r2]
    74c6:	4697      	mov	pc, r2
    74c8:	2d00      	cmp	r5, #0
    74ca:	d119      	bne.n	7500 <__aeabi_fdiv+0x148>
    74cc:	2101      	movs	r1, #1
    74ce:	e7f1      	b.n	74b4 <__aeabi_fdiv+0xfc>
    74d0:	230c      	movs	r3, #12
    74d2:	4699      	mov	r9, r3
    74d4:	3b09      	subs	r3, #9
    74d6:	26ff      	movs	r6, #255	; 0xff
    74d8:	469b      	mov	fp, r3
    74da:	e785      	b.n	73e8 <__aeabi_fdiv+0x30>
    74dc:	0020      	movs	r0, r4
    74de:	f002 fb57 	bl	9b90 <__clzsi2>
    74e2:	2676      	movs	r6, #118	; 0x76
    74e4:	1f43      	subs	r3, r0, #5
    74e6:	409c      	lsls	r4, r3
    74e8:	2300      	movs	r3, #0
    74ea:	4276      	negs	r6, r6
    74ec:	1a36      	subs	r6, r6, r0
    74ee:	4699      	mov	r9, r3
    74f0:	469b      	mov	fp, r3
    74f2:	e779      	b.n	73e8 <__aeabi_fdiv+0x30>
    74f4:	464a      	mov	r2, r9
    74f6:	2303      	movs	r3, #3
    74f8:	431a      	orrs	r2, r3
    74fa:	4691      	mov	r9, r2
    74fc:	2103      	movs	r1, #3
    74fe:	e786      	b.n	740e <__aeabi_fdiv+0x56>
    7500:	0028      	movs	r0, r5
    7502:	f002 fb45 	bl	9b90 <__clzsi2>
    7506:	1f43      	subs	r3, r0, #5
    7508:	1836      	adds	r6, r6, r0
    750a:	409d      	lsls	r5, r3
    750c:	3676      	adds	r6, #118	; 0x76
    750e:	2100      	movs	r1, #0
    7510:	e77d      	b.n	740e <__aeabi_fdiv+0x56>
    7512:	2480      	movs	r4, #128	; 0x80
    7514:	2300      	movs	r3, #0
    7516:	03e4      	lsls	r4, r4, #15
    7518:	22ff      	movs	r2, #255	; 0xff
    751a:	e7ac      	b.n	7476 <__aeabi_fdiv+0xbe>
    751c:	2500      	movs	r5, #0
    751e:	2380      	movs	r3, #128	; 0x80
    7520:	03db      	lsls	r3, r3, #15
    7522:	421c      	tst	r4, r3
    7524:	d028      	beq.n	7578 <__aeabi_fdiv+0x1c0>
    7526:	421d      	tst	r5, r3
    7528:	d126      	bne.n	7578 <__aeabi_fdiv+0x1c0>
    752a:	432b      	orrs	r3, r5
    752c:	025c      	lsls	r4, r3, #9
    752e:	0a64      	lsrs	r4, r4, #9
    7530:	4643      	mov	r3, r8
    7532:	22ff      	movs	r2, #255	; 0xff
    7534:	e79f      	b.n	7476 <__aeabi_fdiv+0xbe>
    7536:	0162      	lsls	r2, r4, #5
    7538:	016c      	lsls	r4, r5, #5
    753a:	42a2      	cmp	r2, r4
    753c:	d224      	bcs.n	7588 <__aeabi_fdiv+0x1d0>
    753e:	211b      	movs	r1, #27
    7540:	2500      	movs	r5, #0
    7542:	3e01      	subs	r6, #1
    7544:	2701      	movs	r7, #1
    7546:	0010      	movs	r0, r2
    7548:	006d      	lsls	r5, r5, #1
    754a:	0052      	lsls	r2, r2, #1
    754c:	2800      	cmp	r0, #0
    754e:	db01      	blt.n	7554 <__aeabi_fdiv+0x19c>
    7550:	4294      	cmp	r4, r2
    7552:	d801      	bhi.n	7558 <__aeabi_fdiv+0x1a0>
    7554:	1b12      	subs	r2, r2, r4
    7556:	433d      	orrs	r5, r7
    7558:	3901      	subs	r1, #1
    755a:	2900      	cmp	r1, #0
    755c:	d1f3      	bne.n	7546 <__aeabi_fdiv+0x18e>
    755e:	0014      	movs	r4, r2
    7560:	1e62      	subs	r2, r4, #1
    7562:	4194      	sbcs	r4, r2
    7564:	4325      	orrs	r5, r4
    7566:	e76d      	b.n	7444 <__aeabi_fdiv+0x8c>
    7568:	46ba      	mov	sl, r7
    756a:	4659      	mov	r1, fp
    756c:	0025      	movs	r5, r4
    756e:	4653      	mov	r3, sl
    7570:	2902      	cmp	r1, #2
    7572:	d000      	beq.n	7576 <__aeabi_fdiv+0x1be>
    7574:	e761      	b.n	743a <__aeabi_fdiv+0x82>
    7576:	e77c      	b.n	7472 <__aeabi_fdiv+0xba>
    7578:	2380      	movs	r3, #128	; 0x80
    757a:	03db      	lsls	r3, r3, #15
    757c:	431c      	orrs	r4, r3
    757e:	0264      	lsls	r4, r4, #9
    7580:	0a64      	lsrs	r4, r4, #9
    7582:	003b      	movs	r3, r7
    7584:	22ff      	movs	r2, #255	; 0xff
    7586:	e776      	b.n	7476 <__aeabi_fdiv+0xbe>
    7588:	1b12      	subs	r2, r2, r4
    758a:	211a      	movs	r1, #26
    758c:	2501      	movs	r5, #1
    758e:	e7d9      	b.n	7544 <__aeabi_fdiv+0x18c>
    7590:	369e      	adds	r6, #158	; 0x9e
    7592:	002a      	movs	r2, r5
    7594:	40b5      	lsls	r5, r6
    7596:	002c      	movs	r4, r5
    7598:	40c2      	lsrs	r2, r0
    759a:	1e65      	subs	r5, r4, #1
    759c:	41ac      	sbcs	r4, r5
    759e:	4314      	orrs	r4, r2
    75a0:	0762      	lsls	r2, r4, #29
    75a2:	d004      	beq.n	75ae <__aeabi_fdiv+0x1f6>
    75a4:	220f      	movs	r2, #15
    75a6:	4022      	ands	r2, r4
    75a8:	2a04      	cmp	r2, #4
    75aa:	d000      	beq.n	75ae <__aeabi_fdiv+0x1f6>
    75ac:	3404      	adds	r4, #4
    75ae:	0162      	lsls	r2, r4, #5
    75b0:	d403      	bmi.n	75ba <__aeabi_fdiv+0x202>
    75b2:	01a4      	lsls	r4, r4, #6
    75b4:	0a64      	lsrs	r4, r4, #9
    75b6:	2200      	movs	r2, #0
    75b8:	e75d      	b.n	7476 <__aeabi_fdiv+0xbe>
    75ba:	2201      	movs	r2, #1
    75bc:	2400      	movs	r4, #0
    75be:	e75a      	b.n	7476 <__aeabi_fdiv+0xbe>
    75c0:	2480      	movs	r4, #128	; 0x80
    75c2:	03e4      	lsls	r4, r4, #15
    75c4:	432c      	orrs	r4, r5
    75c6:	0264      	lsls	r4, r4, #9
    75c8:	0a64      	lsrs	r4, r4, #9
    75ca:	22ff      	movs	r2, #255	; 0xff
    75cc:	e753      	b.n	7476 <__aeabi_fdiv+0xbe>
    75ce:	46c0      	nop			; (mov r8, r8)
    75d0:	0000d768 	.word	0x0000d768
    75d4:	f7ffffff 	.word	0xf7ffffff
    75d8:	0000d7a8 	.word	0x0000d7a8

000075dc <__eqsf2>:
__eqsf2():
    75dc:	b570      	push	{r4, r5, r6, lr}
    75de:	0042      	lsls	r2, r0, #1
    75e0:	024e      	lsls	r6, r1, #9
    75e2:	004c      	lsls	r4, r1, #1
    75e4:	0245      	lsls	r5, r0, #9
    75e6:	0a6d      	lsrs	r5, r5, #9
    75e8:	0e12      	lsrs	r2, r2, #24
    75ea:	0fc3      	lsrs	r3, r0, #31
    75ec:	0a76      	lsrs	r6, r6, #9
    75ee:	0e24      	lsrs	r4, r4, #24
    75f0:	0fc9      	lsrs	r1, r1, #31
    75f2:	2aff      	cmp	r2, #255	; 0xff
    75f4:	d00f      	beq.n	7616 <__eqsf2+0x3a>
    75f6:	2cff      	cmp	r4, #255	; 0xff
    75f8:	d011      	beq.n	761e <__eqsf2+0x42>
    75fa:	2001      	movs	r0, #1
    75fc:	42a2      	cmp	r2, r4
    75fe:	d000      	beq.n	7602 <__eqsf2+0x26>
    7600:	bd70      	pop	{r4, r5, r6, pc}
    7602:	42b5      	cmp	r5, r6
    7604:	d1fc      	bne.n	7600 <__eqsf2+0x24>
    7606:	428b      	cmp	r3, r1
    7608:	d00d      	beq.n	7626 <__eqsf2+0x4a>
    760a:	2a00      	cmp	r2, #0
    760c:	d1f8      	bne.n	7600 <__eqsf2+0x24>
    760e:	0028      	movs	r0, r5
    7610:	1e45      	subs	r5, r0, #1
    7612:	41a8      	sbcs	r0, r5
    7614:	e7f4      	b.n	7600 <__eqsf2+0x24>
    7616:	2001      	movs	r0, #1
    7618:	2d00      	cmp	r5, #0
    761a:	d1f1      	bne.n	7600 <__eqsf2+0x24>
    761c:	e7eb      	b.n	75f6 <__eqsf2+0x1a>
    761e:	2001      	movs	r0, #1
    7620:	2e00      	cmp	r6, #0
    7622:	d1ed      	bne.n	7600 <__eqsf2+0x24>
    7624:	e7e9      	b.n	75fa <__eqsf2+0x1e>
    7626:	2000      	movs	r0, #0
    7628:	e7ea      	b.n	7600 <__eqsf2+0x24>
    762a:	46c0      	nop			; (mov r8, r8)

0000762c <__gesf2>:
__gesf2():
    762c:	b570      	push	{r4, r5, r6, lr}
    762e:	004a      	lsls	r2, r1, #1
    7630:	024e      	lsls	r6, r1, #9
    7632:	0245      	lsls	r5, r0, #9
    7634:	0044      	lsls	r4, r0, #1
    7636:	0a6d      	lsrs	r5, r5, #9
    7638:	0e24      	lsrs	r4, r4, #24
    763a:	0fc3      	lsrs	r3, r0, #31
    763c:	0a76      	lsrs	r6, r6, #9
    763e:	0e12      	lsrs	r2, r2, #24
    7640:	0fc9      	lsrs	r1, r1, #31
    7642:	2cff      	cmp	r4, #255	; 0xff
    7644:	d015      	beq.n	7672 <__gesf2+0x46>
    7646:	2aff      	cmp	r2, #255	; 0xff
    7648:	d00e      	beq.n	7668 <__gesf2+0x3c>
    764a:	2c00      	cmp	r4, #0
    764c:	d115      	bne.n	767a <__gesf2+0x4e>
    764e:	2a00      	cmp	r2, #0
    7650:	d101      	bne.n	7656 <__gesf2+0x2a>
    7652:	2e00      	cmp	r6, #0
    7654:	d01c      	beq.n	7690 <__gesf2+0x64>
    7656:	2d00      	cmp	r5, #0
    7658:	d014      	beq.n	7684 <__gesf2+0x58>
    765a:	428b      	cmp	r3, r1
    765c:	d027      	beq.n	76ae <__gesf2+0x82>
    765e:	2002      	movs	r0, #2
    7660:	3b01      	subs	r3, #1
    7662:	4018      	ands	r0, r3
    7664:	3801      	subs	r0, #1
    7666:	bd70      	pop	{r4, r5, r6, pc}
    7668:	2e00      	cmp	r6, #0
    766a:	d0ee      	beq.n	764a <__gesf2+0x1e>
    766c:	2002      	movs	r0, #2
    766e:	4240      	negs	r0, r0
    7670:	e7f9      	b.n	7666 <__gesf2+0x3a>
    7672:	2d00      	cmp	r5, #0
    7674:	d1fa      	bne.n	766c <__gesf2+0x40>
    7676:	2aff      	cmp	r2, #255	; 0xff
    7678:	d00e      	beq.n	7698 <__gesf2+0x6c>
    767a:	2a00      	cmp	r2, #0
    767c:	d10e      	bne.n	769c <__gesf2+0x70>
    767e:	2e00      	cmp	r6, #0
    7680:	d0ed      	beq.n	765e <__gesf2+0x32>
    7682:	e00b      	b.n	769c <__gesf2+0x70>
    7684:	2301      	movs	r3, #1
    7686:	3901      	subs	r1, #1
    7688:	4399      	bics	r1, r3
    768a:	0008      	movs	r0, r1
    768c:	3001      	adds	r0, #1
    768e:	e7ea      	b.n	7666 <__gesf2+0x3a>
    7690:	2000      	movs	r0, #0
    7692:	2d00      	cmp	r5, #0
    7694:	d0e7      	beq.n	7666 <__gesf2+0x3a>
    7696:	e7e2      	b.n	765e <__gesf2+0x32>
    7698:	2e00      	cmp	r6, #0
    769a:	d1e7      	bne.n	766c <__gesf2+0x40>
    769c:	428b      	cmp	r3, r1
    769e:	d1de      	bne.n	765e <__gesf2+0x32>
    76a0:	4294      	cmp	r4, r2
    76a2:	dd05      	ble.n	76b0 <__gesf2+0x84>
    76a4:	2102      	movs	r1, #2
    76a6:	1e58      	subs	r0, r3, #1
    76a8:	4008      	ands	r0, r1
    76aa:	3801      	subs	r0, #1
    76ac:	e7db      	b.n	7666 <__gesf2+0x3a>
    76ae:	2400      	movs	r4, #0
    76b0:	42a2      	cmp	r2, r4
    76b2:	dc04      	bgt.n	76be <__gesf2+0x92>
    76b4:	42b5      	cmp	r5, r6
    76b6:	d8d2      	bhi.n	765e <__gesf2+0x32>
    76b8:	2000      	movs	r0, #0
    76ba:	42b5      	cmp	r5, r6
    76bc:	d2d3      	bcs.n	7666 <__gesf2+0x3a>
    76be:	1e58      	subs	r0, r3, #1
    76c0:	2301      	movs	r3, #1
    76c2:	4398      	bics	r0, r3
    76c4:	3001      	adds	r0, #1
    76c6:	e7ce      	b.n	7666 <__gesf2+0x3a>

000076c8 <__lesf2>:
__ltsf2():
    76c8:	b530      	push	{r4, r5, lr}
    76ca:	0042      	lsls	r2, r0, #1
    76cc:	0244      	lsls	r4, r0, #9
    76ce:	024d      	lsls	r5, r1, #9
    76d0:	0fc3      	lsrs	r3, r0, #31
    76d2:	0048      	lsls	r0, r1, #1
    76d4:	0a64      	lsrs	r4, r4, #9
    76d6:	0e12      	lsrs	r2, r2, #24
    76d8:	0a6d      	lsrs	r5, r5, #9
    76da:	0e00      	lsrs	r0, r0, #24
    76dc:	0fc9      	lsrs	r1, r1, #31
    76de:	2aff      	cmp	r2, #255	; 0xff
    76e0:	d012      	beq.n	7708 <__lesf2+0x40>
    76e2:	28ff      	cmp	r0, #255	; 0xff
    76e4:	d00c      	beq.n	7700 <__lesf2+0x38>
    76e6:	2a00      	cmp	r2, #0
    76e8:	d112      	bne.n	7710 <__lesf2+0x48>
    76ea:	2800      	cmp	r0, #0
    76ec:	d119      	bne.n	7722 <__lesf2+0x5a>
    76ee:	2d00      	cmp	r5, #0
    76f0:	d117      	bne.n	7722 <__lesf2+0x5a>
    76f2:	2c00      	cmp	r4, #0
    76f4:	d02b      	beq.n	774e <__lesf2+0x86>
    76f6:	2002      	movs	r0, #2
    76f8:	3b01      	subs	r3, #1
    76fa:	4018      	ands	r0, r3
    76fc:	3801      	subs	r0, #1
    76fe:	e026      	b.n	774e <__lesf2+0x86>
    7700:	2d00      	cmp	r5, #0
    7702:	d0f0      	beq.n	76e6 <__lesf2+0x1e>
    7704:	2002      	movs	r0, #2
    7706:	e022      	b.n	774e <__lesf2+0x86>
    7708:	2c00      	cmp	r4, #0
    770a:	d1fb      	bne.n	7704 <__lesf2+0x3c>
    770c:	28ff      	cmp	r0, #255	; 0xff
    770e:	d01f      	beq.n	7750 <__lesf2+0x88>
    7710:	2800      	cmp	r0, #0
    7712:	d11f      	bne.n	7754 <__lesf2+0x8c>
    7714:	2d00      	cmp	r5, #0
    7716:	d11d      	bne.n	7754 <__lesf2+0x8c>
    7718:	2002      	movs	r0, #2
    771a:	3b01      	subs	r3, #1
    771c:	4018      	ands	r0, r3
    771e:	3801      	subs	r0, #1
    7720:	e015      	b.n	774e <__lesf2+0x86>
    7722:	2c00      	cmp	r4, #0
    7724:	d00e      	beq.n	7744 <__lesf2+0x7c>
    7726:	428b      	cmp	r3, r1
    7728:	d1e5      	bne.n	76f6 <__lesf2+0x2e>
    772a:	2200      	movs	r2, #0
    772c:	4290      	cmp	r0, r2
    772e:	dc04      	bgt.n	773a <__lesf2+0x72>
    7730:	42ac      	cmp	r4, r5
    7732:	d8e0      	bhi.n	76f6 <__lesf2+0x2e>
    7734:	2000      	movs	r0, #0
    7736:	42ac      	cmp	r4, r5
    7738:	d209      	bcs.n	774e <__lesf2+0x86>
    773a:	1e58      	subs	r0, r3, #1
    773c:	2301      	movs	r3, #1
    773e:	4398      	bics	r0, r3
    7740:	3001      	adds	r0, #1
    7742:	e004      	b.n	774e <__lesf2+0x86>
    7744:	2301      	movs	r3, #1
    7746:	3901      	subs	r1, #1
    7748:	4399      	bics	r1, r3
    774a:	0008      	movs	r0, r1
    774c:	3001      	adds	r0, #1
    774e:	bd30      	pop	{r4, r5, pc}
    7750:	2d00      	cmp	r5, #0
    7752:	d1d7      	bne.n	7704 <__lesf2+0x3c>
    7754:	428b      	cmp	r3, r1
    7756:	d1ce      	bne.n	76f6 <__lesf2+0x2e>
    7758:	4282      	cmp	r2, r0
    775a:	dde7      	ble.n	772c <__lesf2+0x64>
    775c:	2102      	movs	r1, #2
    775e:	1e58      	subs	r0, r3, #1
    7760:	4008      	ands	r0, r1
    7762:	3801      	subs	r0, #1
    7764:	e7f3      	b.n	774e <__lesf2+0x86>
    7766:	46c0      	nop			; (mov r8, r8)

00007768 <__aeabi_fmul>:
__aeabi_fmul():
    7768:	b5f0      	push	{r4, r5, r6, r7, lr}
    776a:	464e      	mov	r6, r9
    776c:	4657      	mov	r7, sl
    776e:	4645      	mov	r5, r8
    7770:	46de      	mov	lr, fp
    7772:	b5e0      	push	{r5, r6, r7, lr}
    7774:	0243      	lsls	r3, r0, #9
    7776:	0a5b      	lsrs	r3, r3, #9
    7778:	0045      	lsls	r5, r0, #1
    777a:	b083      	sub	sp, #12
    777c:	1c0f      	adds	r7, r1, #0
    777e:	4699      	mov	r9, r3
    7780:	0e2d      	lsrs	r5, r5, #24
    7782:	0fc6      	lsrs	r6, r0, #31
    7784:	2d00      	cmp	r5, #0
    7786:	d057      	beq.n	7838 <__aeabi_fmul+0xd0>
    7788:	2dff      	cmp	r5, #255	; 0xff
    778a:	d024      	beq.n	77d6 <__aeabi_fmul+0x6e>
    778c:	2080      	movs	r0, #128	; 0x80
    778e:	00db      	lsls	r3, r3, #3
    7790:	04c0      	lsls	r0, r0, #19
    7792:	4318      	orrs	r0, r3
    7794:	2300      	movs	r3, #0
    7796:	4681      	mov	r9, r0
    7798:	469a      	mov	sl, r3
    779a:	469b      	mov	fp, r3
    779c:	3d7f      	subs	r5, #127	; 0x7f
    779e:	027c      	lsls	r4, r7, #9
    77a0:	007a      	lsls	r2, r7, #1
    77a2:	0ffb      	lsrs	r3, r7, #31
    77a4:	0a64      	lsrs	r4, r4, #9
    77a6:	0e12      	lsrs	r2, r2, #24
    77a8:	4698      	mov	r8, r3
    77aa:	d023      	beq.n	77f4 <__aeabi_fmul+0x8c>
    77ac:	2aff      	cmp	r2, #255	; 0xff
    77ae:	d04b      	beq.n	7848 <__aeabi_fmul+0xe0>
    77b0:	00e3      	lsls	r3, r4, #3
    77b2:	2480      	movs	r4, #128	; 0x80
    77b4:	2000      	movs	r0, #0
    77b6:	04e4      	lsls	r4, r4, #19
    77b8:	3a7f      	subs	r2, #127	; 0x7f
    77ba:	431c      	orrs	r4, r3
    77bc:	18ad      	adds	r5, r5, r2
    77be:	1c6b      	adds	r3, r5, #1
    77c0:	4647      	mov	r7, r8
    77c2:	9301      	str	r3, [sp, #4]
    77c4:	4653      	mov	r3, sl
    77c6:	4077      	eors	r7, r6
    77c8:	003a      	movs	r2, r7
    77ca:	2b0f      	cmp	r3, #15
    77cc:	d848      	bhi.n	7860 <__aeabi_fmul+0xf8>
    77ce:	497d      	ldr	r1, [pc, #500]	; (79c4 <__aeabi_fmul+0x25c>)
    77d0:	009b      	lsls	r3, r3, #2
    77d2:	58cb      	ldr	r3, [r1, r3]
    77d4:	469f      	mov	pc, r3
    77d6:	2b00      	cmp	r3, #0
    77d8:	d000      	beq.n	77dc <__aeabi_fmul+0x74>
    77da:	e085      	b.n	78e8 <__aeabi_fmul+0x180>
    77dc:	3308      	adds	r3, #8
    77de:	469a      	mov	sl, r3
    77e0:	3b06      	subs	r3, #6
    77e2:	469b      	mov	fp, r3
    77e4:	027c      	lsls	r4, r7, #9
    77e6:	007a      	lsls	r2, r7, #1
    77e8:	0ffb      	lsrs	r3, r7, #31
    77ea:	25ff      	movs	r5, #255	; 0xff
    77ec:	0a64      	lsrs	r4, r4, #9
    77ee:	0e12      	lsrs	r2, r2, #24
    77f0:	4698      	mov	r8, r3
    77f2:	d1db      	bne.n	77ac <__aeabi_fmul+0x44>
    77f4:	2c00      	cmp	r4, #0
    77f6:	d000      	beq.n	77fa <__aeabi_fmul+0x92>
    77f8:	e090      	b.n	791c <__aeabi_fmul+0x1b4>
    77fa:	4652      	mov	r2, sl
    77fc:	2301      	movs	r3, #1
    77fe:	431a      	orrs	r2, r3
    7800:	4692      	mov	sl, r2
    7802:	2001      	movs	r0, #1
    7804:	e7db      	b.n	77be <__aeabi_fmul+0x56>
    7806:	464c      	mov	r4, r9
    7808:	4658      	mov	r0, fp
    780a:	0017      	movs	r7, r2
    780c:	2802      	cmp	r0, #2
    780e:	d024      	beq.n	785a <__aeabi_fmul+0xf2>
    7810:	2803      	cmp	r0, #3
    7812:	d100      	bne.n	7816 <__aeabi_fmul+0xae>
    7814:	e0cf      	b.n	79b6 <__aeabi_fmul+0x24e>
    7816:	2200      	movs	r2, #0
    7818:	2300      	movs	r3, #0
    781a:	2801      	cmp	r0, #1
    781c:	d14d      	bne.n	78ba <__aeabi_fmul+0x152>
    781e:	0258      	lsls	r0, r3, #9
    7820:	05d2      	lsls	r2, r2, #23
    7822:	0a40      	lsrs	r0, r0, #9
    7824:	07ff      	lsls	r7, r7, #31
    7826:	4310      	orrs	r0, r2
    7828:	4338      	orrs	r0, r7
    782a:	b003      	add	sp, #12
    782c:	bc3c      	pop	{r2, r3, r4, r5}
    782e:	4690      	mov	r8, r2
    7830:	4699      	mov	r9, r3
    7832:	46a2      	mov	sl, r4
    7834:	46ab      	mov	fp, r5
    7836:	bdf0      	pop	{r4, r5, r6, r7, pc}
    7838:	2b00      	cmp	r3, #0
    783a:	d15b      	bne.n	78f4 <__aeabi_fmul+0x18c>
    783c:	2304      	movs	r3, #4
    783e:	469a      	mov	sl, r3
    7840:	3b03      	subs	r3, #3
    7842:	2500      	movs	r5, #0
    7844:	469b      	mov	fp, r3
    7846:	e7aa      	b.n	779e <__aeabi_fmul+0x36>
    7848:	35ff      	adds	r5, #255	; 0xff
    784a:	2c00      	cmp	r4, #0
    784c:	d160      	bne.n	7910 <__aeabi_fmul+0x1a8>
    784e:	4652      	mov	r2, sl
    7850:	2302      	movs	r3, #2
    7852:	431a      	orrs	r2, r3
    7854:	4692      	mov	sl, r2
    7856:	2002      	movs	r0, #2
    7858:	e7b1      	b.n	77be <__aeabi_fmul+0x56>
    785a:	22ff      	movs	r2, #255	; 0xff
    785c:	2300      	movs	r3, #0
    785e:	e7de      	b.n	781e <__aeabi_fmul+0xb6>
    7860:	464b      	mov	r3, r9
    7862:	0c1b      	lsrs	r3, r3, #16
    7864:	469c      	mov	ip, r3
    7866:	464b      	mov	r3, r9
    7868:	0426      	lsls	r6, r4, #16
    786a:	0c36      	lsrs	r6, r6, #16
    786c:	0418      	lsls	r0, r3, #16
    786e:	4661      	mov	r1, ip
    7870:	0033      	movs	r3, r6
    7872:	0c22      	lsrs	r2, r4, #16
    7874:	4664      	mov	r4, ip
    7876:	0c00      	lsrs	r0, r0, #16
    7878:	4343      	muls	r3, r0
    787a:	434e      	muls	r6, r1
    787c:	4350      	muls	r0, r2
    787e:	4354      	muls	r4, r2
    7880:	1980      	adds	r0, r0, r6
    7882:	0c1a      	lsrs	r2, r3, #16
    7884:	1812      	adds	r2, r2, r0
    7886:	4296      	cmp	r6, r2
    7888:	d903      	bls.n	7892 <__aeabi_fmul+0x12a>
    788a:	2180      	movs	r1, #128	; 0x80
    788c:	0249      	lsls	r1, r1, #9
    788e:	468c      	mov	ip, r1
    7890:	4464      	add	r4, ip
    7892:	041b      	lsls	r3, r3, #16
    7894:	0c1b      	lsrs	r3, r3, #16
    7896:	0410      	lsls	r0, r2, #16
    7898:	18c0      	adds	r0, r0, r3
    789a:	0183      	lsls	r3, r0, #6
    789c:	1e5e      	subs	r6, r3, #1
    789e:	41b3      	sbcs	r3, r6
    78a0:	0e80      	lsrs	r0, r0, #26
    78a2:	4318      	orrs	r0, r3
    78a4:	0c13      	lsrs	r3, r2, #16
    78a6:	191b      	adds	r3, r3, r4
    78a8:	019b      	lsls	r3, r3, #6
    78aa:	4303      	orrs	r3, r0
    78ac:	001c      	movs	r4, r3
    78ae:	0123      	lsls	r3, r4, #4
    78b0:	d579      	bpl.n	79a6 <__aeabi_fmul+0x23e>
    78b2:	2301      	movs	r3, #1
    78b4:	0862      	lsrs	r2, r4, #1
    78b6:	401c      	ands	r4, r3
    78b8:	4314      	orrs	r4, r2
    78ba:	9a01      	ldr	r2, [sp, #4]
    78bc:	327f      	adds	r2, #127	; 0x7f
    78be:	2a00      	cmp	r2, #0
    78c0:	dd4d      	ble.n	795e <__aeabi_fmul+0x1f6>
    78c2:	0763      	lsls	r3, r4, #29
    78c4:	d004      	beq.n	78d0 <__aeabi_fmul+0x168>
    78c6:	230f      	movs	r3, #15
    78c8:	4023      	ands	r3, r4
    78ca:	2b04      	cmp	r3, #4
    78cc:	d000      	beq.n	78d0 <__aeabi_fmul+0x168>
    78ce:	3404      	adds	r4, #4
    78d0:	0123      	lsls	r3, r4, #4
    78d2:	d503      	bpl.n	78dc <__aeabi_fmul+0x174>
    78d4:	4b3c      	ldr	r3, [pc, #240]	; (79c8 <__aeabi_fmul+0x260>)
    78d6:	9a01      	ldr	r2, [sp, #4]
    78d8:	401c      	ands	r4, r3
    78da:	3280      	adds	r2, #128	; 0x80
    78dc:	2afe      	cmp	r2, #254	; 0xfe
    78de:	dcbc      	bgt.n	785a <__aeabi_fmul+0xf2>
    78e0:	01a3      	lsls	r3, r4, #6
    78e2:	0a5b      	lsrs	r3, r3, #9
    78e4:	b2d2      	uxtb	r2, r2
    78e6:	e79a      	b.n	781e <__aeabi_fmul+0xb6>
    78e8:	230c      	movs	r3, #12
    78ea:	469a      	mov	sl, r3
    78ec:	3b09      	subs	r3, #9
    78ee:	25ff      	movs	r5, #255	; 0xff
    78f0:	469b      	mov	fp, r3
    78f2:	e754      	b.n	779e <__aeabi_fmul+0x36>
    78f4:	0018      	movs	r0, r3
    78f6:	f002 f94b 	bl	9b90 <__clzsi2>
    78fa:	464a      	mov	r2, r9
    78fc:	1f43      	subs	r3, r0, #5
    78fe:	2576      	movs	r5, #118	; 0x76
    7900:	409a      	lsls	r2, r3
    7902:	2300      	movs	r3, #0
    7904:	426d      	negs	r5, r5
    7906:	4691      	mov	r9, r2
    7908:	1a2d      	subs	r5, r5, r0
    790a:	469a      	mov	sl, r3
    790c:	469b      	mov	fp, r3
    790e:	e746      	b.n	779e <__aeabi_fmul+0x36>
    7910:	4652      	mov	r2, sl
    7912:	2303      	movs	r3, #3
    7914:	431a      	orrs	r2, r3
    7916:	4692      	mov	sl, r2
    7918:	2003      	movs	r0, #3
    791a:	e750      	b.n	77be <__aeabi_fmul+0x56>
    791c:	0020      	movs	r0, r4
    791e:	f002 f937 	bl	9b90 <__clzsi2>
    7922:	1f43      	subs	r3, r0, #5
    7924:	1a2d      	subs	r5, r5, r0
    7926:	409c      	lsls	r4, r3
    7928:	3d76      	subs	r5, #118	; 0x76
    792a:	2000      	movs	r0, #0
    792c:	e747      	b.n	77be <__aeabi_fmul+0x56>
    792e:	2380      	movs	r3, #128	; 0x80
    7930:	2700      	movs	r7, #0
    7932:	03db      	lsls	r3, r3, #15
    7934:	22ff      	movs	r2, #255	; 0xff
    7936:	e772      	b.n	781e <__aeabi_fmul+0xb6>
    7938:	4642      	mov	r2, r8
    793a:	e766      	b.n	780a <__aeabi_fmul+0xa2>
    793c:	464c      	mov	r4, r9
    793e:	0032      	movs	r2, r6
    7940:	4658      	mov	r0, fp
    7942:	e762      	b.n	780a <__aeabi_fmul+0xa2>
    7944:	2380      	movs	r3, #128	; 0x80
    7946:	464a      	mov	r2, r9
    7948:	03db      	lsls	r3, r3, #15
    794a:	421a      	tst	r2, r3
    794c:	d022      	beq.n	7994 <__aeabi_fmul+0x22c>
    794e:	421c      	tst	r4, r3
    7950:	d120      	bne.n	7994 <__aeabi_fmul+0x22c>
    7952:	4323      	orrs	r3, r4
    7954:	025b      	lsls	r3, r3, #9
    7956:	0a5b      	lsrs	r3, r3, #9
    7958:	4647      	mov	r7, r8
    795a:	22ff      	movs	r2, #255	; 0xff
    795c:	e75f      	b.n	781e <__aeabi_fmul+0xb6>
    795e:	2301      	movs	r3, #1
    7960:	1a9a      	subs	r2, r3, r2
    7962:	2a1b      	cmp	r2, #27
    7964:	dc21      	bgt.n	79aa <__aeabi_fmul+0x242>
    7966:	0023      	movs	r3, r4
    7968:	9901      	ldr	r1, [sp, #4]
    796a:	40d3      	lsrs	r3, r2
    796c:	319e      	adds	r1, #158	; 0x9e
    796e:	408c      	lsls	r4, r1
    7970:	001a      	movs	r2, r3
    7972:	0023      	movs	r3, r4
    7974:	1e5c      	subs	r4, r3, #1
    7976:	41a3      	sbcs	r3, r4
    7978:	4313      	orrs	r3, r2
    797a:	075a      	lsls	r2, r3, #29
    797c:	d004      	beq.n	7988 <__aeabi_fmul+0x220>
    797e:	220f      	movs	r2, #15
    7980:	401a      	ands	r2, r3
    7982:	2a04      	cmp	r2, #4
    7984:	d000      	beq.n	7988 <__aeabi_fmul+0x220>
    7986:	3304      	adds	r3, #4
    7988:	015a      	lsls	r2, r3, #5
    798a:	d411      	bmi.n	79b0 <__aeabi_fmul+0x248>
    798c:	019b      	lsls	r3, r3, #6
    798e:	0a5b      	lsrs	r3, r3, #9
    7990:	2200      	movs	r2, #0
    7992:	e744      	b.n	781e <__aeabi_fmul+0xb6>
    7994:	2380      	movs	r3, #128	; 0x80
    7996:	464a      	mov	r2, r9
    7998:	03db      	lsls	r3, r3, #15
    799a:	4313      	orrs	r3, r2
    799c:	025b      	lsls	r3, r3, #9
    799e:	0a5b      	lsrs	r3, r3, #9
    79a0:	0037      	movs	r7, r6
    79a2:	22ff      	movs	r2, #255	; 0xff
    79a4:	e73b      	b.n	781e <__aeabi_fmul+0xb6>
    79a6:	9501      	str	r5, [sp, #4]
    79a8:	e787      	b.n	78ba <__aeabi_fmul+0x152>
    79aa:	2200      	movs	r2, #0
    79ac:	2300      	movs	r3, #0
    79ae:	e736      	b.n	781e <__aeabi_fmul+0xb6>
    79b0:	2201      	movs	r2, #1
    79b2:	2300      	movs	r3, #0
    79b4:	e733      	b.n	781e <__aeabi_fmul+0xb6>
    79b6:	2380      	movs	r3, #128	; 0x80
    79b8:	03db      	lsls	r3, r3, #15
    79ba:	4323      	orrs	r3, r4
    79bc:	025b      	lsls	r3, r3, #9
    79be:	0a5b      	lsrs	r3, r3, #9
    79c0:	22ff      	movs	r2, #255	; 0xff
    79c2:	e72c      	b.n	781e <__aeabi_fmul+0xb6>
    79c4:	0000d7e8 	.word	0x0000d7e8
    79c8:	f7ffffff 	.word	0xf7ffffff

000079cc <__aeabi_fsub>:
__aeabi_fsub():
    79cc:	b5f8      	push	{r3, r4, r5, r6, r7, lr}
    79ce:	4647      	mov	r7, r8
    79d0:	46ce      	mov	lr, r9
    79d2:	0044      	lsls	r4, r0, #1
    79d4:	0fc2      	lsrs	r2, r0, #31
    79d6:	b580      	push	{r7, lr}
    79d8:	0247      	lsls	r7, r0, #9
    79da:	0248      	lsls	r0, r1, #9
    79dc:	0a40      	lsrs	r0, r0, #9
    79de:	4684      	mov	ip, r0
    79e0:	4666      	mov	r6, ip
    79e2:	0048      	lsls	r0, r1, #1
    79e4:	0a7f      	lsrs	r7, r7, #9
    79e6:	0e24      	lsrs	r4, r4, #24
    79e8:	00f6      	lsls	r6, r6, #3
    79ea:	0025      	movs	r5, r4
    79ec:	4690      	mov	r8, r2
    79ee:	00fb      	lsls	r3, r7, #3
    79f0:	0e00      	lsrs	r0, r0, #24
    79f2:	0fc9      	lsrs	r1, r1, #31
    79f4:	46b1      	mov	r9, r6
    79f6:	28ff      	cmp	r0, #255	; 0xff
    79f8:	d100      	bne.n	79fc <__aeabi_fsub+0x30>
    79fa:	e085      	b.n	7b08 <__aeabi_fsub+0x13c>
    79fc:	2601      	movs	r6, #1
    79fe:	4071      	eors	r1, r6
    7a00:	1a26      	subs	r6, r4, r0
    7a02:	4291      	cmp	r1, r2
    7a04:	d057      	beq.n	7ab6 <__aeabi_fsub+0xea>
    7a06:	2e00      	cmp	r6, #0
    7a08:	dd43      	ble.n	7a92 <__aeabi_fsub+0xc6>
    7a0a:	2800      	cmp	r0, #0
    7a0c:	d000      	beq.n	7a10 <__aeabi_fsub+0x44>
    7a0e:	e07f      	b.n	7b10 <__aeabi_fsub+0x144>
    7a10:	4649      	mov	r1, r9
    7a12:	2900      	cmp	r1, #0
    7a14:	d100      	bne.n	7a18 <__aeabi_fsub+0x4c>
    7a16:	e0aa      	b.n	7b6e <__aeabi_fsub+0x1a2>
    7a18:	3e01      	subs	r6, #1
    7a1a:	2e00      	cmp	r6, #0
    7a1c:	d000      	beq.n	7a20 <__aeabi_fsub+0x54>
    7a1e:	e0f7      	b.n	7c10 <__aeabi_fsub+0x244>
    7a20:	1a5b      	subs	r3, r3, r1
    7a22:	015a      	lsls	r2, r3, #5
    7a24:	d400      	bmi.n	7a28 <__aeabi_fsub+0x5c>
    7a26:	e08b      	b.n	7b40 <__aeabi_fsub+0x174>
    7a28:	019b      	lsls	r3, r3, #6
    7a2a:	099c      	lsrs	r4, r3, #6
    7a2c:	0020      	movs	r0, r4
    7a2e:	f002 f8af 	bl	9b90 <__clzsi2>
    7a32:	3805      	subs	r0, #5
    7a34:	4084      	lsls	r4, r0
    7a36:	4285      	cmp	r5, r0
    7a38:	dd00      	ble.n	7a3c <__aeabi_fsub+0x70>
    7a3a:	e0d3      	b.n	7be4 <__aeabi_fsub+0x218>
    7a3c:	1b45      	subs	r5, r0, r5
    7a3e:	0023      	movs	r3, r4
    7a40:	2020      	movs	r0, #32
    7a42:	3501      	adds	r5, #1
    7a44:	40eb      	lsrs	r3, r5
    7a46:	1b45      	subs	r5, r0, r5
    7a48:	40ac      	lsls	r4, r5
    7a4a:	1e62      	subs	r2, r4, #1
    7a4c:	4194      	sbcs	r4, r2
    7a4e:	4323      	orrs	r3, r4
    7a50:	2407      	movs	r4, #7
    7a52:	2500      	movs	r5, #0
    7a54:	401c      	ands	r4, r3
    7a56:	2201      	movs	r2, #1
    7a58:	4641      	mov	r1, r8
    7a5a:	400a      	ands	r2, r1
    7a5c:	2c00      	cmp	r4, #0
    7a5e:	d004      	beq.n	7a6a <__aeabi_fsub+0x9e>
    7a60:	210f      	movs	r1, #15
    7a62:	4019      	ands	r1, r3
    7a64:	2904      	cmp	r1, #4
    7a66:	d000      	beq.n	7a6a <__aeabi_fsub+0x9e>
    7a68:	3304      	adds	r3, #4
    7a6a:	0159      	lsls	r1, r3, #5
    7a6c:	d400      	bmi.n	7a70 <__aeabi_fsub+0xa4>
    7a6e:	e080      	b.n	7b72 <__aeabi_fsub+0x1a6>
    7a70:	3501      	adds	r5, #1
    7a72:	b2ec      	uxtb	r4, r5
    7a74:	2dff      	cmp	r5, #255	; 0xff
    7a76:	d000      	beq.n	7a7a <__aeabi_fsub+0xae>
    7a78:	e0a3      	b.n	7bc2 <__aeabi_fsub+0x1f6>
    7a7a:	24ff      	movs	r4, #255	; 0xff
    7a7c:	2300      	movs	r3, #0
    7a7e:	025b      	lsls	r3, r3, #9
    7a80:	05e4      	lsls	r4, r4, #23
    7a82:	0a58      	lsrs	r0, r3, #9
    7a84:	07d2      	lsls	r2, r2, #31
    7a86:	4320      	orrs	r0, r4
    7a88:	4310      	orrs	r0, r2
    7a8a:	bc0c      	pop	{r2, r3}
    7a8c:	4690      	mov	r8, r2
    7a8e:	4699      	mov	r9, r3
    7a90:	bdf8      	pop	{r3, r4, r5, r6, r7, pc}
    7a92:	2e00      	cmp	r6, #0
    7a94:	d174      	bne.n	7b80 <__aeabi_fsub+0x1b4>
    7a96:	1c60      	adds	r0, r4, #1
    7a98:	b2c0      	uxtb	r0, r0
    7a9a:	2801      	cmp	r0, #1
    7a9c:	dc00      	bgt.n	7aa0 <__aeabi_fsub+0xd4>
    7a9e:	e0a7      	b.n	7bf0 <__aeabi_fsub+0x224>
    7aa0:	464a      	mov	r2, r9
    7aa2:	1a9c      	subs	r4, r3, r2
    7aa4:	0162      	lsls	r2, r4, #5
    7aa6:	d500      	bpl.n	7aaa <__aeabi_fsub+0xde>
    7aa8:	e0b6      	b.n	7c18 <__aeabi_fsub+0x24c>
    7aaa:	2c00      	cmp	r4, #0
    7aac:	d1be      	bne.n	7a2c <__aeabi_fsub+0x60>
    7aae:	2200      	movs	r2, #0
    7ab0:	2400      	movs	r4, #0
    7ab2:	2300      	movs	r3, #0
    7ab4:	e7e3      	b.n	7a7e <__aeabi_fsub+0xb2>
    7ab6:	2e00      	cmp	r6, #0
    7ab8:	dc00      	bgt.n	7abc <__aeabi_fsub+0xf0>
    7aba:	e085      	b.n	7bc8 <__aeabi_fsub+0x1fc>
    7abc:	2800      	cmp	r0, #0
    7abe:	d046      	beq.n	7b4e <__aeabi_fsub+0x182>
    7ac0:	2cff      	cmp	r4, #255	; 0xff
    7ac2:	d049      	beq.n	7b58 <__aeabi_fsub+0x18c>
    7ac4:	2280      	movs	r2, #128	; 0x80
    7ac6:	4648      	mov	r0, r9
    7ac8:	04d2      	lsls	r2, r2, #19
    7aca:	4310      	orrs	r0, r2
    7acc:	4681      	mov	r9, r0
    7ace:	2201      	movs	r2, #1
    7ad0:	2e1b      	cmp	r6, #27
    7ad2:	dc09      	bgt.n	7ae8 <__aeabi_fsub+0x11c>
    7ad4:	2020      	movs	r0, #32
    7ad6:	464c      	mov	r4, r9
    7ad8:	1b80      	subs	r0, r0, r6
    7ada:	4084      	lsls	r4, r0
    7adc:	464a      	mov	r2, r9
    7ade:	0020      	movs	r0, r4
    7ae0:	40f2      	lsrs	r2, r6
    7ae2:	1e44      	subs	r4, r0, #1
    7ae4:	41a0      	sbcs	r0, r4
    7ae6:	4302      	orrs	r2, r0
    7ae8:	189b      	adds	r3, r3, r2
    7aea:	015a      	lsls	r2, r3, #5
    7aec:	d528      	bpl.n	7b40 <__aeabi_fsub+0x174>
    7aee:	3501      	adds	r5, #1
    7af0:	2dff      	cmp	r5, #255	; 0xff
    7af2:	d100      	bne.n	7af6 <__aeabi_fsub+0x12a>
    7af4:	e0a8      	b.n	7c48 <__aeabi_fsub+0x27c>
    7af6:	2201      	movs	r2, #1
    7af8:	2407      	movs	r4, #7
    7afa:	4994      	ldr	r1, [pc, #592]	; (7d4c <__aeabi_fsub+0x380>)
    7afc:	401a      	ands	r2, r3
    7afe:	085b      	lsrs	r3, r3, #1
    7b00:	400b      	ands	r3, r1
    7b02:	4313      	orrs	r3, r2
    7b04:	401c      	ands	r4, r3
    7b06:	e7a6      	b.n	7a56 <__aeabi_fsub+0x8a>
    7b08:	2e00      	cmp	r6, #0
    7b0a:	d000      	beq.n	7b0e <__aeabi_fsub+0x142>
    7b0c:	e778      	b.n	7a00 <__aeabi_fsub+0x34>
    7b0e:	e775      	b.n	79fc <__aeabi_fsub+0x30>
    7b10:	2cff      	cmp	r4, #255	; 0xff
    7b12:	d054      	beq.n	7bbe <__aeabi_fsub+0x1f2>
    7b14:	2280      	movs	r2, #128	; 0x80
    7b16:	4649      	mov	r1, r9
    7b18:	04d2      	lsls	r2, r2, #19
    7b1a:	4311      	orrs	r1, r2
    7b1c:	4689      	mov	r9, r1
    7b1e:	2201      	movs	r2, #1
    7b20:	2e1b      	cmp	r6, #27
    7b22:	dc09      	bgt.n	7b38 <__aeabi_fsub+0x16c>
    7b24:	2120      	movs	r1, #32
    7b26:	4648      	mov	r0, r9
    7b28:	1b89      	subs	r1, r1, r6
    7b2a:	4088      	lsls	r0, r1
    7b2c:	464a      	mov	r2, r9
    7b2e:	0001      	movs	r1, r0
    7b30:	40f2      	lsrs	r2, r6
    7b32:	1e48      	subs	r0, r1, #1
    7b34:	4181      	sbcs	r1, r0
    7b36:	430a      	orrs	r2, r1
    7b38:	1a9b      	subs	r3, r3, r2
    7b3a:	015a      	lsls	r2, r3, #5
    7b3c:	d500      	bpl.n	7b40 <__aeabi_fsub+0x174>
    7b3e:	e773      	b.n	7a28 <__aeabi_fsub+0x5c>
    7b40:	2201      	movs	r2, #1
    7b42:	4641      	mov	r1, r8
    7b44:	400a      	ands	r2, r1
    7b46:	0759      	lsls	r1, r3, #29
    7b48:	d000      	beq.n	7b4c <__aeabi_fsub+0x180>
    7b4a:	e789      	b.n	7a60 <__aeabi_fsub+0x94>
    7b4c:	e011      	b.n	7b72 <__aeabi_fsub+0x1a6>
    7b4e:	4648      	mov	r0, r9
    7b50:	2800      	cmp	r0, #0
    7b52:	d158      	bne.n	7c06 <__aeabi_fsub+0x23a>
    7b54:	2cff      	cmp	r4, #255	; 0xff
    7b56:	d10c      	bne.n	7b72 <__aeabi_fsub+0x1a6>
    7b58:	08db      	lsrs	r3, r3, #3
    7b5a:	2b00      	cmp	r3, #0
    7b5c:	d100      	bne.n	7b60 <__aeabi_fsub+0x194>
    7b5e:	e78c      	b.n	7a7a <__aeabi_fsub+0xae>
    7b60:	2080      	movs	r0, #128	; 0x80
    7b62:	03c0      	lsls	r0, r0, #15
    7b64:	4303      	orrs	r3, r0
    7b66:	025b      	lsls	r3, r3, #9
    7b68:	0a5b      	lsrs	r3, r3, #9
    7b6a:	24ff      	movs	r4, #255	; 0xff
    7b6c:	e787      	b.n	7a7e <__aeabi_fsub+0xb2>
    7b6e:	2cff      	cmp	r4, #255	; 0xff
    7b70:	d025      	beq.n	7bbe <__aeabi_fsub+0x1f2>
    7b72:	08db      	lsrs	r3, r3, #3
    7b74:	2dff      	cmp	r5, #255	; 0xff
    7b76:	d0f0      	beq.n	7b5a <__aeabi_fsub+0x18e>
    7b78:	025b      	lsls	r3, r3, #9
    7b7a:	0a5b      	lsrs	r3, r3, #9
    7b7c:	b2ec      	uxtb	r4, r5
    7b7e:	e77e      	b.n	7a7e <__aeabi_fsub+0xb2>
    7b80:	2c00      	cmp	r4, #0
    7b82:	d04d      	beq.n	7c20 <__aeabi_fsub+0x254>
    7b84:	28ff      	cmp	r0, #255	; 0xff
    7b86:	d018      	beq.n	7bba <__aeabi_fsub+0x1ee>
    7b88:	2480      	movs	r4, #128	; 0x80
    7b8a:	04e4      	lsls	r4, r4, #19
    7b8c:	4272      	negs	r2, r6
    7b8e:	4323      	orrs	r3, r4
    7b90:	2a1b      	cmp	r2, #27
    7b92:	dd00      	ble.n	7b96 <__aeabi_fsub+0x1ca>
    7b94:	e0c4      	b.n	7d20 <__aeabi_fsub+0x354>
    7b96:	001c      	movs	r4, r3
    7b98:	2520      	movs	r5, #32
    7b9a:	40d4      	lsrs	r4, r2
    7b9c:	1aaa      	subs	r2, r5, r2
    7b9e:	4093      	lsls	r3, r2
    7ba0:	1e5a      	subs	r2, r3, #1
    7ba2:	4193      	sbcs	r3, r2
    7ba4:	4323      	orrs	r3, r4
    7ba6:	464a      	mov	r2, r9
    7ba8:	0005      	movs	r5, r0
    7baa:	1ad3      	subs	r3, r2, r3
    7bac:	4688      	mov	r8, r1
    7bae:	e738      	b.n	7a22 <__aeabi_fsub+0x56>
    7bb0:	1c72      	adds	r2, r6, #1
    7bb2:	d0f8      	beq.n	7ba6 <__aeabi_fsub+0x1da>
    7bb4:	43f2      	mvns	r2, r6
    7bb6:	28ff      	cmp	r0, #255	; 0xff
    7bb8:	d1ea      	bne.n	7b90 <__aeabi_fsub+0x1c4>
    7bba:	000a      	movs	r2, r1
    7bbc:	464b      	mov	r3, r9
    7bbe:	25ff      	movs	r5, #255	; 0xff
    7bc0:	e7d7      	b.n	7b72 <__aeabi_fsub+0x1a6>
    7bc2:	019b      	lsls	r3, r3, #6
    7bc4:	0a5b      	lsrs	r3, r3, #9
    7bc6:	e75a      	b.n	7a7e <__aeabi_fsub+0xb2>
    7bc8:	2e00      	cmp	r6, #0
    7bca:	d141      	bne.n	7c50 <__aeabi_fsub+0x284>
    7bcc:	1c65      	adds	r5, r4, #1
    7bce:	b2e9      	uxtb	r1, r5
    7bd0:	2901      	cmp	r1, #1
    7bd2:	dd45      	ble.n	7c60 <__aeabi_fsub+0x294>
    7bd4:	2dff      	cmp	r5, #255	; 0xff
    7bd6:	d100      	bne.n	7bda <__aeabi_fsub+0x20e>
    7bd8:	e74f      	b.n	7a7a <__aeabi_fsub+0xae>
    7bda:	2407      	movs	r4, #7
    7bdc:	444b      	add	r3, r9
    7bde:	085b      	lsrs	r3, r3, #1
    7be0:	401c      	ands	r4, r3
    7be2:	e738      	b.n	7a56 <__aeabi_fsub+0x8a>
    7be4:	2207      	movs	r2, #7
    7be6:	4b5a      	ldr	r3, [pc, #360]	; (7d50 <__aeabi_fsub+0x384>)
    7be8:	1a2d      	subs	r5, r5, r0
    7bea:	4023      	ands	r3, r4
    7bec:	4014      	ands	r4, r2
    7bee:	e732      	b.n	7a56 <__aeabi_fsub+0x8a>
    7bf0:	2c00      	cmp	r4, #0
    7bf2:	d11d      	bne.n	7c30 <__aeabi_fsub+0x264>
    7bf4:	2b00      	cmp	r3, #0
    7bf6:	d17a      	bne.n	7cee <__aeabi_fsub+0x322>
    7bf8:	464b      	mov	r3, r9
    7bfa:	2b00      	cmp	r3, #0
    7bfc:	d100      	bne.n	7c00 <__aeabi_fsub+0x234>
    7bfe:	e091      	b.n	7d24 <__aeabi_fsub+0x358>
    7c00:	000a      	movs	r2, r1
    7c02:	2500      	movs	r5, #0
    7c04:	e7b5      	b.n	7b72 <__aeabi_fsub+0x1a6>
    7c06:	3e01      	subs	r6, #1
    7c08:	2e00      	cmp	r6, #0
    7c0a:	d119      	bne.n	7c40 <__aeabi_fsub+0x274>
    7c0c:	444b      	add	r3, r9
    7c0e:	e76c      	b.n	7aea <__aeabi_fsub+0x11e>
    7c10:	2cff      	cmp	r4, #255	; 0xff
    7c12:	d184      	bne.n	7b1e <__aeabi_fsub+0x152>
    7c14:	25ff      	movs	r5, #255	; 0xff
    7c16:	e7ac      	b.n	7b72 <__aeabi_fsub+0x1a6>
    7c18:	464a      	mov	r2, r9
    7c1a:	4688      	mov	r8, r1
    7c1c:	1ad4      	subs	r4, r2, r3
    7c1e:	e705      	b.n	7a2c <__aeabi_fsub+0x60>
    7c20:	2b00      	cmp	r3, #0
    7c22:	d1c5      	bne.n	7bb0 <__aeabi_fsub+0x1e4>
    7c24:	000a      	movs	r2, r1
    7c26:	28ff      	cmp	r0, #255	; 0xff
    7c28:	d0c8      	beq.n	7bbc <__aeabi_fsub+0x1f0>
    7c2a:	0005      	movs	r5, r0
    7c2c:	464b      	mov	r3, r9
    7c2e:	e7a0      	b.n	7b72 <__aeabi_fsub+0x1a6>
    7c30:	2b00      	cmp	r3, #0
    7c32:	d149      	bne.n	7cc8 <__aeabi_fsub+0x2fc>
    7c34:	464b      	mov	r3, r9
    7c36:	2b00      	cmp	r3, #0
    7c38:	d077      	beq.n	7d2a <__aeabi_fsub+0x35e>
    7c3a:	000a      	movs	r2, r1
    7c3c:	25ff      	movs	r5, #255	; 0xff
    7c3e:	e798      	b.n	7b72 <__aeabi_fsub+0x1a6>
    7c40:	2cff      	cmp	r4, #255	; 0xff
    7c42:	d000      	beq.n	7c46 <__aeabi_fsub+0x27a>
    7c44:	e743      	b.n	7ace <__aeabi_fsub+0x102>
    7c46:	e787      	b.n	7b58 <__aeabi_fsub+0x18c>
    7c48:	000a      	movs	r2, r1
    7c4a:	24ff      	movs	r4, #255	; 0xff
    7c4c:	2300      	movs	r3, #0
    7c4e:	e716      	b.n	7a7e <__aeabi_fsub+0xb2>
    7c50:	2c00      	cmp	r4, #0
    7c52:	d115      	bne.n	7c80 <__aeabi_fsub+0x2b4>
    7c54:	2b00      	cmp	r3, #0
    7c56:	d157      	bne.n	7d08 <__aeabi_fsub+0x33c>
    7c58:	28ff      	cmp	r0, #255	; 0xff
    7c5a:	d1e6      	bne.n	7c2a <__aeabi_fsub+0x25e>
    7c5c:	464b      	mov	r3, r9
    7c5e:	e77b      	b.n	7b58 <__aeabi_fsub+0x18c>
    7c60:	2c00      	cmp	r4, #0
    7c62:	d120      	bne.n	7ca6 <__aeabi_fsub+0x2da>
    7c64:	2b00      	cmp	r3, #0
    7c66:	d057      	beq.n	7d18 <__aeabi_fsub+0x34c>
    7c68:	4649      	mov	r1, r9
    7c6a:	2900      	cmp	r1, #0
    7c6c:	d053      	beq.n	7d16 <__aeabi_fsub+0x34a>
    7c6e:	444b      	add	r3, r9
    7c70:	015a      	lsls	r2, r3, #5
    7c72:	d568      	bpl.n	7d46 <__aeabi_fsub+0x37a>
    7c74:	2407      	movs	r4, #7
    7c76:	4a36      	ldr	r2, [pc, #216]	; (7d50 <__aeabi_fsub+0x384>)
    7c78:	401c      	ands	r4, r3
    7c7a:	2501      	movs	r5, #1
    7c7c:	4013      	ands	r3, r2
    7c7e:	e6ea      	b.n	7a56 <__aeabi_fsub+0x8a>
    7c80:	28ff      	cmp	r0, #255	; 0xff
    7c82:	d0eb      	beq.n	7c5c <__aeabi_fsub+0x290>
    7c84:	2280      	movs	r2, #128	; 0x80
    7c86:	04d2      	lsls	r2, r2, #19
    7c88:	4276      	negs	r6, r6
    7c8a:	4313      	orrs	r3, r2
    7c8c:	2e1b      	cmp	r6, #27
    7c8e:	dc53      	bgt.n	7d38 <__aeabi_fsub+0x36c>
    7c90:	2520      	movs	r5, #32
    7c92:	1bad      	subs	r5, r5, r6
    7c94:	001a      	movs	r2, r3
    7c96:	40ab      	lsls	r3, r5
    7c98:	40f2      	lsrs	r2, r6
    7c9a:	1e5c      	subs	r4, r3, #1
    7c9c:	41a3      	sbcs	r3, r4
    7c9e:	4313      	orrs	r3, r2
    7ca0:	444b      	add	r3, r9
    7ca2:	0005      	movs	r5, r0
    7ca4:	e721      	b.n	7aea <__aeabi_fsub+0x11e>
    7ca6:	2b00      	cmp	r3, #0
    7ca8:	d0d8      	beq.n	7c5c <__aeabi_fsub+0x290>
    7caa:	4649      	mov	r1, r9
    7cac:	2900      	cmp	r1, #0
    7cae:	d100      	bne.n	7cb2 <__aeabi_fsub+0x2e6>
    7cb0:	e752      	b.n	7b58 <__aeabi_fsub+0x18c>
    7cb2:	2180      	movs	r1, #128	; 0x80
    7cb4:	03c9      	lsls	r1, r1, #15
    7cb6:	420f      	tst	r7, r1
    7cb8:	d100      	bne.n	7cbc <__aeabi_fsub+0x2f0>
    7cba:	e74d      	b.n	7b58 <__aeabi_fsub+0x18c>
    7cbc:	4660      	mov	r0, ip
    7cbe:	4208      	tst	r0, r1
    7cc0:	d000      	beq.n	7cc4 <__aeabi_fsub+0x2f8>
    7cc2:	e749      	b.n	7b58 <__aeabi_fsub+0x18c>
    7cc4:	464b      	mov	r3, r9
    7cc6:	e747      	b.n	7b58 <__aeabi_fsub+0x18c>
    7cc8:	4648      	mov	r0, r9
    7cca:	25ff      	movs	r5, #255	; 0xff
    7ccc:	2800      	cmp	r0, #0
    7cce:	d100      	bne.n	7cd2 <__aeabi_fsub+0x306>
    7cd0:	e74f      	b.n	7b72 <__aeabi_fsub+0x1a6>
    7cd2:	2280      	movs	r2, #128	; 0x80
    7cd4:	03d2      	lsls	r2, r2, #15
    7cd6:	4217      	tst	r7, r2
    7cd8:	d004      	beq.n	7ce4 <__aeabi_fsub+0x318>
    7cda:	4660      	mov	r0, ip
    7cdc:	4210      	tst	r0, r2
    7cde:	d101      	bne.n	7ce4 <__aeabi_fsub+0x318>
    7ce0:	464b      	mov	r3, r9
    7ce2:	4688      	mov	r8, r1
    7ce4:	2201      	movs	r2, #1
    7ce6:	4641      	mov	r1, r8
    7ce8:	25ff      	movs	r5, #255	; 0xff
    7cea:	400a      	ands	r2, r1
    7cec:	e741      	b.n	7b72 <__aeabi_fsub+0x1a6>
    7cee:	4648      	mov	r0, r9
    7cf0:	2800      	cmp	r0, #0
    7cf2:	d01f      	beq.n	7d34 <__aeabi_fsub+0x368>
    7cf4:	1a1a      	subs	r2, r3, r0
    7cf6:	0150      	lsls	r0, r2, #5
    7cf8:	d520      	bpl.n	7d3c <__aeabi_fsub+0x370>
    7cfa:	464a      	mov	r2, r9
    7cfc:	2407      	movs	r4, #7
    7cfe:	1ad3      	subs	r3, r2, r3
    7d00:	401c      	ands	r4, r3
    7d02:	4688      	mov	r8, r1
    7d04:	2500      	movs	r5, #0
    7d06:	e6a6      	b.n	7a56 <__aeabi_fsub+0x8a>
    7d08:	1c74      	adds	r4, r6, #1
    7d0a:	d0c9      	beq.n	7ca0 <__aeabi_fsub+0x2d4>
    7d0c:	43f6      	mvns	r6, r6
    7d0e:	28ff      	cmp	r0, #255	; 0xff
    7d10:	d1bc      	bne.n	7c8c <__aeabi_fsub+0x2c0>
    7d12:	464b      	mov	r3, r9
    7d14:	e720      	b.n	7b58 <__aeabi_fsub+0x18c>
    7d16:	4699      	mov	r9, r3
    7d18:	464b      	mov	r3, r9
    7d1a:	2500      	movs	r5, #0
    7d1c:	08db      	lsrs	r3, r3, #3
    7d1e:	e72b      	b.n	7b78 <__aeabi_fsub+0x1ac>
    7d20:	2301      	movs	r3, #1
    7d22:	e740      	b.n	7ba6 <__aeabi_fsub+0x1da>
    7d24:	2200      	movs	r2, #0
    7d26:	2300      	movs	r3, #0
    7d28:	e6a9      	b.n	7a7e <__aeabi_fsub+0xb2>
    7d2a:	2380      	movs	r3, #128	; 0x80
    7d2c:	2200      	movs	r2, #0
    7d2e:	03db      	lsls	r3, r3, #15
    7d30:	24ff      	movs	r4, #255	; 0xff
    7d32:	e6a4      	b.n	7a7e <__aeabi_fsub+0xb2>
    7d34:	2500      	movs	r5, #0
    7d36:	e71c      	b.n	7b72 <__aeabi_fsub+0x1a6>
    7d38:	2301      	movs	r3, #1
    7d3a:	e7b1      	b.n	7ca0 <__aeabi_fsub+0x2d4>
    7d3c:	2a00      	cmp	r2, #0
    7d3e:	d0f1      	beq.n	7d24 <__aeabi_fsub+0x358>
    7d40:	0013      	movs	r3, r2
    7d42:	2500      	movs	r5, #0
    7d44:	e6fc      	b.n	7b40 <__aeabi_fsub+0x174>
    7d46:	2500      	movs	r5, #0
    7d48:	e6fa      	b.n	7b40 <__aeabi_fsub+0x174>
    7d4a:	46c0      	nop			; (mov r8, r8)
    7d4c:	7dffffff 	.word	0x7dffffff
    7d50:	fbffffff 	.word	0xfbffffff

00007d54 <__aeabi_f2iz>:
__aeabi_f2iz():
    7d54:	0241      	lsls	r1, r0, #9
    7d56:	0042      	lsls	r2, r0, #1
    7d58:	0fc3      	lsrs	r3, r0, #31
    7d5a:	0a49      	lsrs	r1, r1, #9
    7d5c:	0e12      	lsrs	r2, r2, #24
    7d5e:	2000      	movs	r0, #0
    7d60:	2a7e      	cmp	r2, #126	; 0x7e
    7d62:	d90d      	bls.n	7d80 <__aeabi_f2iz+0x2c>
    7d64:	2a9d      	cmp	r2, #157	; 0x9d
    7d66:	d80c      	bhi.n	7d82 <__aeabi_f2iz+0x2e>
    7d68:	2080      	movs	r0, #128	; 0x80
    7d6a:	0400      	lsls	r0, r0, #16
    7d6c:	4301      	orrs	r1, r0
    7d6e:	2a95      	cmp	r2, #149	; 0x95
    7d70:	dc0a      	bgt.n	7d88 <__aeabi_f2iz+0x34>
    7d72:	2096      	movs	r0, #150	; 0x96
    7d74:	1a82      	subs	r2, r0, r2
    7d76:	40d1      	lsrs	r1, r2
    7d78:	4248      	negs	r0, r1
    7d7a:	2b00      	cmp	r3, #0
    7d7c:	d100      	bne.n	7d80 <__aeabi_f2iz+0x2c>
    7d7e:	0008      	movs	r0, r1
    7d80:	4770      	bx	lr
    7d82:	4a03      	ldr	r2, [pc, #12]	; (7d90 <__aeabi_f2iz+0x3c>)
    7d84:	1898      	adds	r0, r3, r2
    7d86:	e7fb      	b.n	7d80 <__aeabi_f2iz+0x2c>
    7d88:	3a96      	subs	r2, #150	; 0x96
    7d8a:	4091      	lsls	r1, r2
    7d8c:	e7f4      	b.n	7d78 <__aeabi_f2iz+0x24>
    7d8e:	46c0      	nop			; (mov r8, r8)
    7d90:	7fffffff 	.word	0x7fffffff

00007d94 <__aeabi_i2f>:
__aeabi_i2f():
    7d94:	b570      	push	{r4, r5, r6, lr}
    7d96:	2800      	cmp	r0, #0
    7d98:	d03d      	beq.n	7e16 <__aeabi_i2f+0x82>
    7d9a:	17c3      	asrs	r3, r0, #31
    7d9c:	18c5      	adds	r5, r0, r3
    7d9e:	405d      	eors	r5, r3
    7da0:	0fc4      	lsrs	r4, r0, #31
    7da2:	0028      	movs	r0, r5
    7da4:	f001 fef4 	bl	9b90 <__clzsi2>
    7da8:	229e      	movs	r2, #158	; 0x9e
    7daa:	1a12      	subs	r2, r2, r0
    7dac:	2a96      	cmp	r2, #150	; 0x96
    7dae:	dc07      	bgt.n	7dc0 <__aeabi_i2f+0x2c>
    7db0:	b2d2      	uxtb	r2, r2
    7db2:	2808      	cmp	r0, #8
    7db4:	dd33      	ble.n	7e1e <__aeabi_i2f+0x8a>
    7db6:	3808      	subs	r0, #8
    7db8:	4085      	lsls	r5, r0
    7dba:	0268      	lsls	r0, r5, #9
    7dbc:	0a40      	lsrs	r0, r0, #9
    7dbe:	e023      	b.n	7e08 <__aeabi_i2f+0x74>
    7dc0:	2a99      	cmp	r2, #153	; 0x99
    7dc2:	dd0b      	ble.n	7ddc <__aeabi_i2f+0x48>
    7dc4:	2305      	movs	r3, #5
    7dc6:	0029      	movs	r1, r5
    7dc8:	1a1b      	subs	r3, r3, r0
    7dca:	40d9      	lsrs	r1, r3
    7dcc:	0003      	movs	r3, r0
    7dce:	331b      	adds	r3, #27
    7dd0:	409d      	lsls	r5, r3
    7dd2:	002b      	movs	r3, r5
    7dd4:	1e5d      	subs	r5, r3, #1
    7dd6:	41ab      	sbcs	r3, r5
    7dd8:	4319      	orrs	r1, r3
    7dda:	000d      	movs	r5, r1
    7ddc:	2805      	cmp	r0, #5
    7dde:	dd01      	ble.n	7de4 <__aeabi_i2f+0x50>
    7de0:	1f43      	subs	r3, r0, #5
    7de2:	409d      	lsls	r5, r3
    7de4:	002b      	movs	r3, r5
    7de6:	490f      	ldr	r1, [pc, #60]	; (7e24 <__aeabi_i2f+0x90>)
    7de8:	400b      	ands	r3, r1
    7dea:	076e      	lsls	r6, r5, #29
    7dec:	d009      	beq.n	7e02 <__aeabi_i2f+0x6e>
    7dee:	260f      	movs	r6, #15
    7df0:	4035      	ands	r5, r6
    7df2:	2d04      	cmp	r5, #4
    7df4:	d005      	beq.n	7e02 <__aeabi_i2f+0x6e>
    7df6:	3304      	adds	r3, #4
    7df8:	015d      	lsls	r5, r3, #5
    7dfa:	d502      	bpl.n	7e02 <__aeabi_i2f+0x6e>
    7dfc:	229f      	movs	r2, #159	; 0x9f
    7dfe:	400b      	ands	r3, r1
    7e00:	1a12      	subs	r2, r2, r0
    7e02:	019b      	lsls	r3, r3, #6
    7e04:	0a58      	lsrs	r0, r3, #9
    7e06:	b2d2      	uxtb	r2, r2
    7e08:	0240      	lsls	r0, r0, #9
    7e0a:	05d2      	lsls	r2, r2, #23
    7e0c:	0a40      	lsrs	r0, r0, #9
    7e0e:	07e4      	lsls	r4, r4, #31
    7e10:	4310      	orrs	r0, r2
    7e12:	4320      	orrs	r0, r4
    7e14:	bd70      	pop	{r4, r5, r6, pc}
    7e16:	2400      	movs	r4, #0
    7e18:	2200      	movs	r2, #0
    7e1a:	2000      	movs	r0, #0
    7e1c:	e7f4      	b.n	7e08 <__aeabi_i2f+0x74>
    7e1e:	0268      	lsls	r0, r5, #9
    7e20:	0a40      	lsrs	r0, r0, #9
    7e22:	e7f1      	b.n	7e08 <__aeabi_i2f+0x74>
    7e24:	fbffffff 	.word	0xfbffffff

00007e28 <__aeabi_ui2f>:
__aeabi_ui2f():
    7e28:	b570      	push	{r4, r5, r6, lr}
    7e2a:	1e04      	subs	r4, r0, #0
    7e2c:	d034      	beq.n	7e98 <__aeabi_ui2f+0x70>
    7e2e:	f001 feaf 	bl	9b90 <__clzsi2>
    7e32:	229e      	movs	r2, #158	; 0x9e
    7e34:	1a12      	subs	r2, r2, r0
    7e36:	2a96      	cmp	r2, #150	; 0x96
    7e38:	dc07      	bgt.n	7e4a <__aeabi_ui2f+0x22>
    7e3a:	b2d2      	uxtb	r2, r2
    7e3c:	2808      	cmp	r0, #8
    7e3e:	dd2e      	ble.n	7e9e <__aeabi_ui2f+0x76>
    7e40:	3808      	subs	r0, #8
    7e42:	4084      	lsls	r4, r0
    7e44:	0260      	lsls	r0, r4, #9
    7e46:	0a40      	lsrs	r0, r0, #9
    7e48:	e021      	b.n	7e8e <__aeabi_ui2f+0x66>
    7e4a:	2a99      	cmp	r2, #153	; 0x99
    7e4c:	dd09      	ble.n	7e62 <__aeabi_ui2f+0x3a>
    7e4e:	0003      	movs	r3, r0
    7e50:	0021      	movs	r1, r4
    7e52:	331b      	adds	r3, #27
    7e54:	4099      	lsls	r1, r3
    7e56:	1e4b      	subs	r3, r1, #1
    7e58:	4199      	sbcs	r1, r3
    7e5a:	2305      	movs	r3, #5
    7e5c:	1a1b      	subs	r3, r3, r0
    7e5e:	40dc      	lsrs	r4, r3
    7e60:	430c      	orrs	r4, r1
    7e62:	2805      	cmp	r0, #5
    7e64:	dd01      	ble.n	7e6a <__aeabi_ui2f+0x42>
    7e66:	1f43      	subs	r3, r0, #5
    7e68:	409c      	lsls	r4, r3
    7e6a:	0023      	movs	r3, r4
    7e6c:	490d      	ldr	r1, [pc, #52]	; (7ea4 <__aeabi_ui2f+0x7c>)
    7e6e:	400b      	ands	r3, r1
    7e70:	0765      	lsls	r5, r4, #29
    7e72:	d009      	beq.n	7e88 <__aeabi_ui2f+0x60>
    7e74:	250f      	movs	r5, #15
    7e76:	402c      	ands	r4, r5
    7e78:	2c04      	cmp	r4, #4
    7e7a:	d005      	beq.n	7e88 <__aeabi_ui2f+0x60>
    7e7c:	3304      	adds	r3, #4
    7e7e:	015c      	lsls	r4, r3, #5
    7e80:	d502      	bpl.n	7e88 <__aeabi_ui2f+0x60>
    7e82:	229f      	movs	r2, #159	; 0x9f
    7e84:	400b      	ands	r3, r1
    7e86:	1a12      	subs	r2, r2, r0
    7e88:	019b      	lsls	r3, r3, #6
    7e8a:	0a58      	lsrs	r0, r3, #9
    7e8c:	b2d2      	uxtb	r2, r2
    7e8e:	0240      	lsls	r0, r0, #9
    7e90:	05d2      	lsls	r2, r2, #23
    7e92:	0a40      	lsrs	r0, r0, #9
    7e94:	4310      	orrs	r0, r2
    7e96:	bd70      	pop	{r4, r5, r6, pc}
    7e98:	2200      	movs	r2, #0
    7e9a:	2000      	movs	r0, #0
    7e9c:	e7f7      	b.n	7e8e <__aeabi_ui2f+0x66>
    7e9e:	0260      	lsls	r0, r4, #9
    7ea0:	0a40      	lsrs	r0, r0, #9
    7ea2:	e7f4      	b.n	7e8e <__aeabi_ui2f+0x66>
    7ea4:	fbffffff 	.word	0xfbffffff

00007ea8 <__aeabi_dadd>:
__aeabi_dadd():
    7ea8:	b5f0      	push	{r4, r5, r6, r7, lr}
    7eaa:	464f      	mov	r7, r9
    7eac:	4646      	mov	r6, r8
    7eae:	46d6      	mov	lr, sl
    7eb0:	000c      	movs	r4, r1
    7eb2:	0309      	lsls	r1, r1, #12
    7eb4:	b5c0      	push	{r6, r7, lr}
    7eb6:	0a49      	lsrs	r1, r1, #9
    7eb8:	0f47      	lsrs	r7, r0, #29
    7eba:	005e      	lsls	r6, r3, #1
    7ebc:	4339      	orrs	r1, r7
    7ebe:	031f      	lsls	r7, r3, #12
    7ec0:	0fdb      	lsrs	r3, r3, #31
    7ec2:	469c      	mov	ip, r3
    7ec4:	0065      	lsls	r5, r4, #1
    7ec6:	0a7b      	lsrs	r3, r7, #9
    7ec8:	0f57      	lsrs	r7, r2, #29
    7eca:	431f      	orrs	r7, r3
    7ecc:	0d6d      	lsrs	r5, r5, #21
    7ece:	0fe4      	lsrs	r4, r4, #31
    7ed0:	0d76      	lsrs	r6, r6, #21
    7ed2:	46a1      	mov	r9, r4
    7ed4:	00c0      	lsls	r0, r0, #3
    7ed6:	46b8      	mov	r8, r7
    7ed8:	00d2      	lsls	r2, r2, #3
    7eda:	1bab      	subs	r3, r5, r6
    7edc:	4564      	cmp	r4, ip
    7ede:	d07b      	beq.n	7fd8 <__aeabi_dadd+0x130>
    7ee0:	2b00      	cmp	r3, #0
    7ee2:	dd5f      	ble.n	7fa4 <__aeabi_dadd+0xfc>
    7ee4:	2e00      	cmp	r6, #0
    7ee6:	d000      	beq.n	7eea <__aeabi_dadd+0x42>
    7ee8:	e0a4      	b.n	8034 <__aeabi_dadd+0x18c>
    7eea:	003e      	movs	r6, r7
    7eec:	4316      	orrs	r6, r2
    7eee:	d100      	bne.n	7ef2 <__aeabi_dadd+0x4a>
    7ef0:	e112      	b.n	8118 <__aeabi_dadd+0x270>
    7ef2:	1e5e      	subs	r6, r3, #1
    7ef4:	2e00      	cmp	r6, #0
    7ef6:	d000      	beq.n	7efa <__aeabi_dadd+0x52>
    7ef8:	e19e      	b.n	8238 <__aeabi_dadd+0x390>
    7efa:	1a87      	subs	r7, r0, r2
    7efc:	4643      	mov	r3, r8
    7efe:	42b8      	cmp	r0, r7
    7f00:	4180      	sbcs	r0, r0
    7f02:	2501      	movs	r5, #1
    7f04:	1ac9      	subs	r1, r1, r3
    7f06:	4240      	negs	r0, r0
    7f08:	1a09      	subs	r1, r1, r0
    7f0a:	020b      	lsls	r3, r1, #8
    7f0c:	d400      	bmi.n	7f10 <__aeabi_dadd+0x68>
    7f0e:	e131      	b.n	8174 <__aeabi_dadd+0x2cc>
    7f10:	0249      	lsls	r1, r1, #9
    7f12:	0a4e      	lsrs	r6, r1, #9
    7f14:	2e00      	cmp	r6, #0
    7f16:	d100      	bne.n	7f1a <__aeabi_dadd+0x72>
    7f18:	e16e      	b.n	81f8 <__aeabi_dadd+0x350>
    7f1a:	0030      	movs	r0, r6
    7f1c:	f001 fe38 	bl	9b90 <__clzsi2>
    7f20:	0003      	movs	r3, r0
    7f22:	3b08      	subs	r3, #8
    7f24:	2b1f      	cmp	r3, #31
    7f26:	dd00      	ble.n	7f2a <__aeabi_dadd+0x82>
    7f28:	e161      	b.n	81ee <__aeabi_dadd+0x346>
    7f2a:	2220      	movs	r2, #32
    7f2c:	0039      	movs	r1, r7
    7f2e:	1ad2      	subs	r2, r2, r3
    7f30:	409e      	lsls	r6, r3
    7f32:	40d1      	lsrs	r1, r2
    7f34:	409f      	lsls	r7, r3
    7f36:	430e      	orrs	r6, r1
    7f38:	429d      	cmp	r5, r3
    7f3a:	dd00      	ble.n	7f3e <__aeabi_dadd+0x96>
    7f3c:	e151      	b.n	81e2 <__aeabi_dadd+0x33a>
    7f3e:	1b5d      	subs	r5, r3, r5
    7f40:	1c6b      	adds	r3, r5, #1
    7f42:	2b1f      	cmp	r3, #31
    7f44:	dd00      	ble.n	7f48 <__aeabi_dadd+0xa0>
    7f46:	e17c      	b.n	8242 <__aeabi_dadd+0x39a>
    7f48:	2120      	movs	r1, #32
    7f4a:	1ac9      	subs	r1, r1, r3
    7f4c:	003d      	movs	r5, r7
    7f4e:	0030      	movs	r0, r6
    7f50:	408f      	lsls	r7, r1
    7f52:	4088      	lsls	r0, r1
    7f54:	40dd      	lsrs	r5, r3
    7f56:	1e79      	subs	r1, r7, #1
    7f58:	418f      	sbcs	r7, r1
    7f5a:	0031      	movs	r1, r6
    7f5c:	2207      	movs	r2, #7
    7f5e:	4328      	orrs	r0, r5
    7f60:	40d9      	lsrs	r1, r3
    7f62:	2500      	movs	r5, #0
    7f64:	4307      	orrs	r7, r0
    7f66:	403a      	ands	r2, r7
    7f68:	2a00      	cmp	r2, #0
    7f6a:	d009      	beq.n	7f80 <__aeabi_dadd+0xd8>
    7f6c:	230f      	movs	r3, #15
    7f6e:	403b      	ands	r3, r7
    7f70:	2b04      	cmp	r3, #4
    7f72:	d005      	beq.n	7f80 <__aeabi_dadd+0xd8>
    7f74:	1d3b      	adds	r3, r7, #4
    7f76:	42bb      	cmp	r3, r7
    7f78:	41bf      	sbcs	r7, r7
    7f7a:	427f      	negs	r7, r7
    7f7c:	19c9      	adds	r1, r1, r7
    7f7e:	001f      	movs	r7, r3
    7f80:	020b      	lsls	r3, r1, #8
    7f82:	d400      	bmi.n	7f86 <__aeabi_dadd+0xde>
    7f84:	e226      	b.n	83d4 <__aeabi_dadd+0x52c>
    7f86:	1c6a      	adds	r2, r5, #1
    7f88:	4bc6      	ldr	r3, [pc, #792]	; (82a4 <__aeabi_dadd+0x3fc>)
    7f8a:	0555      	lsls	r5, r2, #21
    7f8c:	0d6d      	lsrs	r5, r5, #21
    7f8e:	429a      	cmp	r2, r3
    7f90:	d100      	bne.n	7f94 <__aeabi_dadd+0xec>
    7f92:	e106      	b.n	81a2 <__aeabi_dadd+0x2fa>
    7f94:	4ac4      	ldr	r2, [pc, #784]	; (82a8 <__aeabi_dadd+0x400>)
    7f96:	08ff      	lsrs	r7, r7, #3
    7f98:	400a      	ands	r2, r1
    7f9a:	0753      	lsls	r3, r2, #29
    7f9c:	0252      	lsls	r2, r2, #9
    7f9e:	433b      	orrs	r3, r7
    7fa0:	0b12      	lsrs	r2, r2, #12
    7fa2:	e08e      	b.n	80c2 <__aeabi_dadd+0x21a>
    7fa4:	2b00      	cmp	r3, #0
    7fa6:	d000      	beq.n	7faa <__aeabi_dadd+0x102>
    7fa8:	e0b8      	b.n	811c <__aeabi_dadd+0x274>
    7faa:	1c6b      	adds	r3, r5, #1
    7fac:	055b      	lsls	r3, r3, #21
    7fae:	0d5b      	lsrs	r3, r3, #21
    7fb0:	2b01      	cmp	r3, #1
    7fb2:	dc00      	bgt.n	7fb6 <__aeabi_dadd+0x10e>
    7fb4:	e130      	b.n	8218 <__aeabi_dadd+0x370>
    7fb6:	1a87      	subs	r7, r0, r2
    7fb8:	4643      	mov	r3, r8
    7fba:	42b8      	cmp	r0, r7
    7fbc:	41b6      	sbcs	r6, r6
    7fbe:	1acb      	subs	r3, r1, r3
    7fc0:	4276      	negs	r6, r6
    7fc2:	1b9e      	subs	r6, r3, r6
    7fc4:	0233      	lsls	r3, r6, #8
    7fc6:	d500      	bpl.n	7fca <__aeabi_dadd+0x122>
    7fc8:	e14c      	b.n	8264 <__aeabi_dadd+0x3bc>
    7fca:	003b      	movs	r3, r7
    7fcc:	4333      	orrs	r3, r6
    7fce:	d1a1      	bne.n	7f14 <__aeabi_dadd+0x6c>
    7fd0:	2200      	movs	r2, #0
    7fd2:	2400      	movs	r4, #0
    7fd4:	2500      	movs	r5, #0
    7fd6:	e070      	b.n	80ba <__aeabi_dadd+0x212>
    7fd8:	2b00      	cmp	r3, #0
    7fda:	dc00      	bgt.n	7fde <__aeabi_dadd+0x136>
    7fdc:	e0e5      	b.n	81aa <__aeabi_dadd+0x302>
    7fde:	2e00      	cmp	r6, #0
    7fe0:	d100      	bne.n	7fe4 <__aeabi_dadd+0x13c>
    7fe2:	e083      	b.n	80ec <__aeabi_dadd+0x244>
    7fe4:	4eaf      	ldr	r6, [pc, #700]	; (82a4 <__aeabi_dadd+0x3fc>)
    7fe6:	42b5      	cmp	r5, r6
    7fe8:	d060      	beq.n	80ac <__aeabi_dadd+0x204>
    7fea:	2680      	movs	r6, #128	; 0x80
    7fec:	0436      	lsls	r6, r6, #16
    7fee:	4337      	orrs	r7, r6
    7ff0:	46b8      	mov	r8, r7
    7ff2:	2b38      	cmp	r3, #56	; 0x38
    7ff4:	dc00      	bgt.n	7ff8 <__aeabi_dadd+0x150>
    7ff6:	e13e      	b.n	8276 <__aeabi_dadd+0x3ce>
    7ff8:	4643      	mov	r3, r8
    7ffa:	4313      	orrs	r3, r2
    7ffc:	001f      	movs	r7, r3
    7ffe:	1e7a      	subs	r2, r7, #1
    8000:	4197      	sbcs	r7, r2
    8002:	183f      	adds	r7, r7, r0
    8004:	4287      	cmp	r7, r0
    8006:	4180      	sbcs	r0, r0
    8008:	4240      	negs	r0, r0
    800a:	1809      	adds	r1, r1, r0
    800c:	020b      	lsls	r3, r1, #8
    800e:	d400      	bmi.n	8012 <__aeabi_dadd+0x16a>
    8010:	e0b0      	b.n	8174 <__aeabi_dadd+0x2cc>
    8012:	4ba4      	ldr	r3, [pc, #656]	; (82a4 <__aeabi_dadd+0x3fc>)
    8014:	3501      	adds	r5, #1
    8016:	429d      	cmp	r5, r3
    8018:	d100      	bne.n	801c <__aeabi_dadd+0x174>
    801a:	e0c3      	b.n	81a4 <__aeabi_dadd+0x2fc>
    801c:	4aa2      	ldr	r2, [pc, #648]	; (82a8 <__aeabi_dadd+0x400>)
    801e:	087b      	lsrs	r3, r7, #1
    8020:	400a      	ands	r2, r1
    8022:	2101      	movs	r1, #1
    8024:	400f      	ands	r7, r1
    8026:	431f      	orrs	r7, r3
    8028:	0851      	lsrs	r1, r2, #1
    802a:	07d3      	lsls	r3, r2, #31
    802c:	2207      	movs	r2, #7
    802e:	431f      	orrs	r7, r3
    8030:	403a      	ands	r2, r7
    8032:	e799      	b.n	7f68 <__aeabi_dadd+0xc0>
    8034:	4e9b      	ldr	r6, [pc, #620]	; (82a4 <__aeabi_dadd+0x3fc>)
    8036:	42b5      	cmp	r5, r6
    8038:	d038      	beq.n	80ac <__aeabi_dadd+0x204>
    803a:	2680      	movs	r6, #128	; 0x80
    803c:	0436      	lsls	r6, r6, #16
    803e:	4337      	orrs	r7, r6
    8040:	46b8      	mov	r8, r7
    8042:	2b38      	cmp	r3, #56	; 0x38
    8044:	dd00      	ble.n	8048 <__aeabi_dadd+0x1a0>
    8046:	e0dc      	b.n	8202 <__aeabi_dadd+0x35a>
    8048:	2b1f      	cmp	r3, #31
    804a:	dc00      	bgt.n	804e <__aeabi_dadd+0x1a6>
    804c:	e130      	b.n	82b0 <__aeabi_dadd+0x408>
    804e:	001e      	movs	r6, r3
    8050:	4647      	mov	r7, r8
    8052:	3e20      	subs	r6, #32
    8054:	40f7      	lsrs	r7, r6
    8056:	46bc      	mov	ip, r7
    8058:	2b20      	cmp	r3, #32
    805a:	d004      	beq.n	8066 <__aeabi_dadd+0x1be>
    805c:	2640      	movs	r6, #64	; 0x40
    805e:	1af3      	subs	r3, r6, r3
    8060:	4646      	mov	r6, r8
    8062:	409e      	lsls	r6, r3
    8064:	4332      	orrs	r2, r6
    8066:	0017      	movs	r7, r2
    8068:	4663      	mov	r3, ip
    806a:	1e7a      	subs	r2, r7, #1
    806c:	4197      	sbcs	r7, r2
    806e:	431f      	orrs	r7, r3
    8070:	e0cc      	b.n	820c <__aeabi_dadd+0x364>
    8072:	2b00      	cmp	r3, #0
    8074:	d100      	bne.n	8078 <__aeabi_dadd+0x1d0>
    8076:	e204      	b.n	8482 <__aeabi_dadd+0x5da>
    8078:	4643      	mov	r3, r8
    807a:	4313      	orrs	r3, r2
    807c:	d100      	bne.n	8080 <__aeabi_dadd+0x1d8>
    807e:	e159      	b.n	8334 <__aeabi_dadd+0x48c>
    8080:	074b      	lsls	r3, r1, #29
    8082:	08c0      	lsrs	r0, r0, #3
    8084:	4318      	orrs	r0, r3
    8086:	2380      	movs	r3, #128	; 0x80
    8088:	08c9      	lsrs	r1, r1, #3
    808a:	031b      	lsls	r3, r3, #12
    808c:	4219      	tst	r1, r3
    808e:	d008      	beq.n	80a2 <__aeabi_dadd+0x1fa>
    8090:	4645      	mov	r5, r8
    8092:	08ed      	lsrs	r5, r5, #3
    8094:	421d      	tst	r5, r3
    8096:	d104      	bne.n	80a2 <__aeabi_dadd+0x1fa>
    8098:	4643      	mov	r3, r8
    809a:	08d0      	lsrs	r0, r2, #3
    809c:	0759      	lsls	r1, r3, #29
    809e:	4308      	orrs	r0, r1
    80a0:	0029      	movs	r1, r5
    80a2:	0f42      	lsrs	r2, r0, #29
    80a4:	00c9      	lsls	r1, r1, #3
    80a6:	4d7f      	ldr	r5, [pc, #508]	; (82a4 <__aeabi_dadd+0x3fc>)
    80a8:	4311      	orrs	r1, r2
    80aa:	00c0      	lsls	r0, r0, #3
    80ac:	074b      	lsls	r3, r1, #29
    80ae:	08ca      	lsrs	r2, r1, #3
    80b0:	497c      	ldr	r1, [pc, #496]	; (82a4 <__aeabi_dadd+0x3fc>)
    80b2:	08c0      	lsrs	r0, r0, #3
    80b4:	4303      	orrs	r3, r0
    80b6:	428d      	cmp	r5, r1
    80b8:	d068      	beq.n	818c <__aeabi_dadd+0x2e4>
    80ba:	0312      	lsls	r2, r2, #12
    80bc:	056d      	lsls	r5, r5, #21
    80be:	0b12      	lsrs	r2, r2, #12
    80c0:	0d6d      	lsrs	r5, r5, #21
    80c2:	2100      	movs	r1, #0
    80c4:	0312      	lsls	r2, r2, #12
    80c6:	0018      	movs	r0, r3
    80c8:	0b13      	lsrs	r3, r2, #12
    80ca:	0d0a      	lsrs	r2, r1, #20
    80cc:	0512      	lsls	r2, r2, #20
    80ce:	431a      	orrs	r2, r3
    80d0:	4b76      	ldr	r3, [pc, #472]	; (82ac <__aeabi_dadd+0x404>)
    80d2:	052d      	lsls	r5, r5, #20
    80d4:	4013      	ands	r3, r2
    80d6:	432b      	orrs	r3, r5
    80d8:	005b      	lsls	r3, r3, #1
    80da:	07e4      	lsls	r4, r4, #31
    80dc:	085b      	lsrs	r3, r3, #1
    80de:	4323      	orrs	r3, r4
    80e0:	0019      	movs	r1, r3
    80e2:	bc1c      	pop	{r2, r3, r4}
    80e4:	4690      	mov	r8, r2
    80e6:	4699      	mov	r9, r3
    80e8:	46a2      	mov	sl, r4
    80ea:	bdf0      	pop	{r4, r5, r6, r7, pc}
    80ec:	003e      	movs	r6, r7
    80ee:	4316      	orrs	r6, r2
    80f0:	d012      	beq.n	8118 <__aeabi_dadd+0x270>
    80f2:	1e5e      	subs	r6, r3, #1
    80f4:	2e00      	cmp	r6, #0
    80f6:	d000      	beq.n	80fa <__aeabi_dadd+0x252>
    80f8:	e100      	b.n	82fc <__aeabi_dadd+0x454>
    80fa:	1887      	adds	r7, r0, r2
    80fc:	4287      	cmp	r7, r0
    80fe:	4180      	sbcs	r0, r0
    8100:	4441      	add	r1, r8
    8102:	4240      	negs	r0, r0
    8104:	1809      	adds	r1, r1, r0
    8106:	2501      	movs	r5, #1
    8108:	020b      	lsls	r3, r1, #8
    810a:	d533      	bpl.n	8174 <__aeabi_dadd+0x2cc>
    810c:	2502      	movs	r5, #2
    810e:	e785      	b.n	801c <__aeabi_dadd+0x174>
    8110:	4664      	mov	r4, ip
    8112:	0033      	movs	r3, r6
    8114:	4641      	mov	r1, r8
    8116:	0010      	movs	r0, r2
    8118:	001d      	movs	r5, r3
    811a:	e7c7      	b.n	80ac <__aeabi_dadd+0x204>
    811c:	2d00      	cmp	r5, #0
    811e:	d000      	beq.n	8122 <__aeabi_dadd+0x27a>
    8120:	e0da      	b.n	82d8 <__aeabi_dadd+0x430>
    8122:	000c      	movs	r4, r1
    8124:	4304      	orrs	r4, r0
    8126:	d0f3      	beq.n	8110 <__aeabi_dadd+0x268>
    8128:	1c5c      	adds	r4, r3, #1
    812a:	d100      	bne.n	812e <__aeabi_dadd+0x286>
    812c:	e19f      	b.n	846e <__aeabi_dadd+0x5c6>
    812e:	4c5d      	ldr	r4, [pc, #372]	; (82a4 <__aeabi_dadd+0x3fc>)
    8130:	42a6      	cmp	r6, r4
    8132:	d100      	bne.n	8136 <__aeabi_dadd+0x28e>
    8134:	e12f      	b.n	8396 <__aeabi_dadd+0x4ee>
    8136:	43db      	mvns	r3, r3
    8138:	2b38      	cmp	r3, #56	; 0x38
    813a:	dd00      	ble.n	813e <__aeabi_dadd+0x296>
    813c:	e166      	b.n	840c <__aeabi_dadd+0x564>
    813e:	2b1f      	cmp	r3, #31
    8140:	dd00      	ble.n	8144 <__aeabi_dadd+0x29c>
    8142:	e183      	b.n	844c <__aeabi_dadd+0x5a4>
    8144:	2420      	movs	r4, #32
    8146:	0005      	movs	r5, r0
    8148:	1ae4      	subs	r4, r4, r3
    814a:	000f      	movs	r7, r1
    814c:	40dd      	lsrs	r5, r3
    814e:	40d9      	lsrs	r1, r3
    8150:	40a0      	lsls	r0, r4
    8152:	4643      	mov	r3, r8
    8154:	40a7      	lsls	r7, r4
    8156:	1a5b      	subs	r3, r3, r1
    8158:	1e44      	subs	r4, r0, #1
    815a:	41a0      	sbcs	r0, r4
    815c:	4698      	mov	r8, r3
    815e:	432f      	orrs	r7, r5
    8160:	4338      	orrs	r0, r7
    8162:	1a17      	subs	r7, r2, r0
    8164:	42ba      	cmp	r2, r7
    8166:	4192      	sbcs	r2, r2
    8168:	4643      	mov	r3, r8
    816a:	4252      	negs	r2, r2
    816c:	1a99      	subs	r1, r3, r2
    816e:	4664      	mov	r4, ip
    8170:	0035      	movs	r5, r6
    8172:	e6ca      	b.n	7f0a <__aeabi_dadd+0x62>
    8174:	2207      	movs	r2, #7
    8176:	403a      	ands	r2, r7
    8178:	2a00      	cmp	r2, #0
    817a:	d000      	beq.n	817e <__aeabi_dadd+0x2d6>
    817c:	e6f6      	b.n	7f6c <__aeabi_dadd+0xc4>
    817e:	074b      	lsls	r3, r1, #29
    8180:	08ca      	lsrs	r2, r1, #3
    8182:	4948      	ldr	r1, [pc, #288]	; (82a4 <__aeabi_dadd+0x3fc>)
    8184:	08ff      	lsrs	r7, r7, #3
    8186:	433b      	orrs	r3, r7
    8188:	428d      	cmp	r5, r1
    818a:	d196      	bne.n	80ba <__aeabi_dadd+0x212>
    818c:	0019      	movs	r1, r3
    818e:	4311      	orrs	r1, r2
    8190:	d100      	bne.n	8194 <__aeabi_dadd+0x2ec>
    8192:	e19e      	b.n	84d2 <__aeabi_dadd+0x62a>
    8194:	2180      	movs	r1, #128	; 0x80
    8196:	0309      	lsls	r1, r1, #12
    8198:	430a      	orrs	r2, r1
    819a:	0312      	lsls	r2, r2, #12
    819c:	0b12      	lsrs	r2, r2, #12
    819e:	4d41      	ldr	r5, [pc, #260]	; (82a4 <__aeabi_dadd+0x3fc>)
    81a0:	e78f      	b.n	80c2 <__aeabi_dadd+0x21a>
    81a2:	0015      	movs	r5, r2
    81a4:	2200      	movs	r2, #0
    81a6:	2300      	movs	r3, #0
    81a8:	e78b      	b.n	80c2 <__aeabi_dadd+0x21a>
    81aa:	2b00      	cmp	r3, #0
    81ac:	d000      	beq.n	81b0 <__aeabi_dadd+0x308>
    81ae:	e0c7      	b.n	8340 <__aeabi_dadd+0x498>
    81b0:	1c6b      	adds	r3, r5, #1
    81b2:	055f      	lsls	r7, r3, #21
    81b4:	0d7f      	lsrs	r7, r7, #21
    81b6:	2f01      	cmp	r7, #1
    81b8:	dc00      	bgt.n	81bc <__aeabi_dadd+0x314>
    81ba:	e0f1      	b.n	83a0 <__aeabi_dadd+0x4f8>
    81bc:	4d39      	ldr	r5, [pc, #228]	; (82a4 <__aeabi_dadd+0x3fc>)
    81be:	42ab      	cmp	r3, r5
    81c0:	d100      	bne.n	81c4 <__aeabi_dadd+0x31c>
    81c2:	e0b9      	b.n	8338 <__aeabi_dadd+0x490>
    81c4:	1885      	adds	r5, r0, r2
    81c6:	000a      	movs	r2, r1
    81c8:	4285      	cmp	r5, r0
    81ca:	4189      	sbcs	r1, r1
    81cc:	4442      	add	r2, r8
    81ce:	4249      	negs	r1, r1
    81d0:	1851      	adds	r1, r2, r1
    81d2:	2207      	movs	r2, #7
    81d4:	07cf      	lsls	r7, r1, #31
    81d6:	086d      	lsrs	r5, r5, #1
    81d8:	432f      	orrs	r7, r5
    81da:	0849      	lsrs	r1, r1, #1
    81dc:	403a      	ands	r2, r7
    81de:	001d      	movs	r5, r3
    81e0:	e6c2      	b.n	7f68 <__aeabi_dadd+0xc0>
    81e2:	2207      	movs	r2, #7
    81e4:	4930      	ldr	r1, [pc, #192]	; (82a8 <__aeabi_dadd+0x400>)
    81e6:	1aed      	subs	r5, r5, r3
    81e8:	4031      	ands	r1, r6
    81ea:	403a      	ands	r2, r7
    81ec:	e6bc      	b.n	7f68 <__aeabi_dadd+0xc0>
    81ee:	003e      	movs	r6, r7
    81f0:	3828      	subs	r0, #40	; 0x28
    81f2:	4086      	lsls	r6, r0
    81f4:	2700      	movs	r7, #0
    81f6:	e69f      	b.n	7f38 <__aeabi_dadd+0x90>
    81f8:	0038      	movs	r0, r7
    81fa:	f001 fcc9 	bl	9b90 <__clzsi2>
    81fe:	3020      	adds	r0, #32
    8200:	e68e      	b.n	7f20 <__aeabi_dadd+0x78>
    8202:	4643      	mov	r3, r8
    8204:	4313      	orrs	r3, r2
    8206:	001f      	movs	r7, r3
    8208:	1e7a      	subs	r2, r7, #1
    820a:	4197      	sbcs	r7, r2
    820c:	1bc7      	subs	r7, r0, r7
    820e:	42b8      	cmp	r0, r7
    8210:	4180      	sbcs	r0, r0
    8212:	4240      	negs	r0, r0
    8214:	1a09      	subs	r1, r1, r0
    8216:	e678      	b.n	7f0a <__aeabi_dadd+0x62>
    8218:	000e      	movs	r6, r1
    821a:	003b      	movs	r3, r7
    821c:	4306      	orrs	r6, r0
    821e:	4313      	orrs	r3, r2
    8220:	2d00      	cmp	r5, #0
    8222:	d161      	bne.n	82e8 <__aeabi_dadd+0x440>
    8224:	2e00      	cmp	r6, #0
    8226:	d000      	beq.n	822a <__aeabi_dadd+0x382>
    8228:	e0f4      	b.n	8414 <__aeabi_dadd+0x56c>
    822a:	2b00      	cmp	r3, #0
    822c:	d100      	bne.n	8230 <__aeabi_dadd+0x388>
    822e:	e11b      	b.n	8468 <__aeabi_dadd+0x5c0>
    8230:	4664      	mov	r4, ip
    8232:	0039      	movs	r1, r7
    8234:	0010      	movs	r0, r2
    8236:	e739      	b.n	80ac <__aeabi_dadd+0x204>
    8238:	4f1a      	ldr	r7, [pc, #104]	; (82a4 <__aeabi_dadd+0x3fc>)
    823a:	42bb      	cmp	r3, r7
    823c:	d07a      	beq.n	8334 <__aeabi_dadd+0x48c>
    823e:	0033      	movs	r3, r6
    8240:	e6ff      	b.n	8042 <__aeabi_dadd+0x19a>
    8242:	0030      	movs	r0, r6
    8244:	3d1f      	subs	r5, #31
    8246:	40e8      	lsrs	r0, r5
    8248:	2b20      	cmp	r3, #32
    824a:	d003      	beq.n	8254 <__aeabi_dadd+0x3ac>
    824c:	2140      	movs	r1, #64	; 0x40
    824e:	1acb      	subs	r3, r1, r3
    8250:	409e      	lsls	r6, r3
    8252:	4337      	orrs	r7, r6
    8254:	1e7b      	subs	r3, r7, #1
    8256:	419f      	sbcs	r7, r3
    8258:	2207      	movs	r2, #7
    825a:	4307      	orrs	r7, r0
    825c:	403a      	ands	r2, r7
    825e:	2100      	movs	r1, #0
    8260:	2500      	movs	r5, #0
    8262:	e789      	b.n	8178 <__aeabi_dadd+0x2d0>
    8264:	1a17      	subs	r7, r2, r0
    8266:	4643      	mov	r3, r8
    8268:	42ba      	cmp	r2, r7
    826a:	41b6      	sbcs	r6, r6
    826c:	1a59      	subs	r1, r3, r1
    826e:	4276      	negs	r6, r6
    8270:	1b8e      	subs	r6, r1, r6
    8272:	4664      	mov	r4, ip
    8274:	e64e      	b.n	7f14 <__aeabi_dadd+0x6c>
    8276:	2b1f      	cmp	r3, #31
    8278:	dd00      	ble.n	827c <__aeabi_dadd+0x3d4>
    827a:	e0ad      	b.n	83d8 <__aeabi_dadd+0x530>
    827c:	2620      	movs	r6, #32
    827e:	4647      	mov	r7, r8
    8280:	1af6      	subs	r6, r6, r3
    8282:	40b7      	lsls	r7, r6
    8284:	46b9      	mov	r9, r7
    8286:	0017      	movs	r7, r2
    8288:	46b2      	mov	sl, r6
    828a:	40df      	lsrs	r7, r3
    828c:	464e      	mov	r6, r9
    828e:	433e      	orrs	r6, r7
    8290:	0037      	movs	r7, r6
    8292:	4656      	mov	r6, sl
    8294:	40b2      	lsls	r2, r6
    8296:	1e56      	subs	r6, r2, #1
    8298:	41b2      	sbcs	r2, r6
    829a:	4317      	orrs	r7, r2
    829c:	4642      	mov	r2, r8
    829e:	40da      	lsrs	r2, r3
    82a0:	1889      	adds	r1, r1, r2
    82a2:	e6ae      	b.n	8002 <__aeabi_dadd+0x15a>
    82a4:	000007ff 	.word	0x000007ff
    82a8:	ff7fffff 	.word	0xff7fffff
    82ac:	800fffff 	.word	0x800fffff
    82b0:	2620      	movs	r6, #32
    82b2:	4647      	mov	r7, r8
    82b4:	1af6      	subs	r6, r6, r3
    82b6:	40b7      	lsls	r7, r6
    82b8:	46b9      	mov	r9, r7
    82ba:	0017      	movs	r7, r2
    82bc:	46b2      	mov	sl, r6
    82be:	40df      	lsrs	r7, r3
    82c0:	464e      	mov	r6, r9
    82c2:	433e      	orrs	r6, r7
    82c4:	0037      	movs	r7, r6
    82c6:	4656      	mov	r6, sl
    82c8:	40b2      	lsls	r2, r6
    82ca:	1e56      	subs	r6, r2, #1
    82cc:	41b2      	sbcs	r2, r6
    82ce:	4317      	orrs	r7, r2
    82d0:	4642      	mov	r2, r8
    82d2:	40da      	lsrs	r2, r3
    82d4:	1a89      	subs	r1, r1, r2
    82d6:	e799      	b.n	820c <__aeabi_dadd+0x364>
    82d8:	4c7f      	ldr	r4, [pc, #508]	; (84d8 <__aeabi_dadd+0x630>)
    82da:	42a6      	cmp	r6, r4
    82dc:	d05b      	beq.n	8396 <__aeabi_dadd+0x4ee>
    82de:	2480      	movs	r4, #128	; 0x80
    82e0:	0424      	lsls	r4, r4, #16
    82e2:	425b      	negs	r3, r3
    82e4:	4321      	orrs	r1, r4
    82e6:	e727      	b.n	8138 <__aeabi_dadd+0x290>
    82e8:	2e00      	cmp	r6, #0
    82ea:	d10c      	bne.n	8306 <__aeabi_dadd+0x45e>
    82ec:	2b00      	cmp	r3, #0
    82ee:	d100      	bne.n	82f2 <__aeabi_dadd+0x44a>
    82f0:	e0cb      	b.n	848a <__aeabi_dadd+0x5e2>
    82f2:	4664      	mov	r4, ip
    82f4:	0039      	movs	r1, r7
    82f6:	0010      	movs	r0, r2
    82f8:	4d77      	ldr	r5, [pc, #476]	; (84d8 <__aeabi_dadd+0x630>)
    82fa:	e6d7      	b.n	80ac <__aeabi_dadd+0x204>
    82fc:	4f76      	ldr	r7, [pc, #472]	; (84d8 <__aeabi_dadd+0x630>)
    82fe:	42bb      	cmp	r3, r7
    8300:	d018      	beq.n	8334 <__aeabi_dadd+0x48c>
    8302:	0033      	movs	r3, r6
    8304:	e675      	b.n	7ff2 <__aeabi_dadd+0x14a>
    8306:	2b00      	cmp	r3, #0
    8308:	d014      	beq.n	8334 <__aeabi_dadd+0x48c>
    830a:	074b      	lsls	r3, r1, #29
    830c:	08c0      	lsrs	r0, r0, #3
    830e:	4318      	orrs	r0, r3
    8310:	2380      	movs	r3, #128	; 0x80
    8312:	08c9      	lsrs	r1, r1, #3
    8314:	031b      	lsls	r3, r3, #12
    8316:	4219      	tst	r1, r3
    8318:	d007      	beq.n	832a <__aeabi_dadd+0x482>
    831a:	08fc      	lsrs	r4, r7, #3
    831c:	421c      	tst	r4, r3
    831e:	d104      	bne.n	832a <__aeabi_dadd+0x482>
    8320:	0779      	lsls	r1, r7, #29
    8322:	08d0      	lsrs	r0, r2, #3
    8324:	4308      	orrs	r0, r1
    8326:	46e1      	mov	r9, ip
    8328:	0021      	movs	r1, r4
    832a:	464c      	mov	r4, r9
    832c:	0f42      	lsrs	r2, r0, #29
    832e:	00c9      	lsls	r1, r1, #3
    8330:	4311      	orrs	r1, r2
    8332:	00c0      	lsls	r0, r0, #3
    8334:	4d68      	ldr	r5, [pc, #416]	; (84d8 <__aeabi_dadd+0x630>)
    8336:	e6b9      	b.n	80ac <__aeabi_dadd+0x204>
    8338:	001d      	movs	r5, r3
    833a:	2200      	movs	r2, #0
    833c:	2300      	movs	r3, #0
    833e:	e6c0      	b.n	80c2 <__aeabi_dadd+0x21a>
    8340:	2d00      	cmp	r5, #0
    8342:	d15b      	bne.n	83fc <__aeabi_dadd+0x554>
    8344:	000d      	movs	r5, r1
    8346:	4305      	orrs	r5, r0
    8348:	d100      	bne.n	834c <__aeabi_dadd+0x4a4>
    834a:	e6e2      	b.n	8112 <__aeabi_dadd+0x26a>
    834c:	1c5d      	adds	r5, r3, #1
    834e:	d100      	bne.n	8352 <__aeabi_dadd+0x4aa>
    8350:	e0b0      	b.n	84b4 <__aeabi_dadd+0x60c>
    8352:	4d61      	ldr	r5, [pc, #388]	; (84d8 <__aeabi_dadd+0x630>)
    8354:	42ae      	cmp	r6, r5
    8356:	d01f      	beq.n	8398 <__aeabi_dadd+0x4f0>
    8358:	43db      	mvns	r3, r3
    835a:	2b38      	cmp	r3, #56	; 0x38
    835c:	dc71      	bgt.n	8442 <__aeabi_dadd+0x59a>
    835e:	2b1f      	cmp	r3, #31
    8360:	dd00      	ble.n	8364 <__aeabi_dadd+0x4bc>
    8362:	e096      	b.n	8492 <__aeabi_dadd+0x5ea>
    8364:	2520      	movs	r5, #32
    8366:	000f      	movs	r7, r1
    8368:	1aed      	subs	r5, r5, r3
    836a:	40af      	lsls	r7, r5
    836c:	46b9      	mov	r9, r7
    836e:	0007      	movs	r7, r0
    8370:	46aa      	mov	sl, r5
    8372:	40df      	lsrs	r7, r3
    8374:	464d      	mov	r5, r9
    8376:	433d      	orrs	r5, r7
    8378:	002f      	movs	r7, r5
    837a:	4655      	mov	r5, sl
    837c:	40a8      	lsls	r0, r5
    837e:	40d9      	lsrs	r1, r3
    8380:	1e45      	subs	r5, r0, #1
    8382:	41a8      	sbcs	r0, r5
    8384:	4488      	add	r8, r1
    8386:	4307      	orrs	r7, r0
    8388:	18bf      	adds	r7, r7, r2
    838a:	4297      	cmp	r7, r2
    838c:	4192      	sbcs	r2, r2
    838e:	4251      	negs	r1, r2
    8390:	4441      	add	r1, r8
    8392:	0035      	movs	r5, r6
    8394:	e63a      	b.n	800c <__aeabi_dadd+0x164>
    8396:	4664      	mov	r4, ip
    8398:	0035      	movs	r5, r6
    839a:	4641      	mov	r1, r8
    839c:	0010      	movs	r0, r2
    839e:	e685      	b.n	80ac <__aeabi_dadd+0x204>
    83a0:	000b      	movs	r3, r1
    83a2:	4303      	orrs	r3, r0
    83a4:	2d00      	cmp	r5, #0
    83a6:	d000      	beq.n	83aa <__aeabi_dadd+0x502>
    83a8:	e663      	b.n	8072 <__aeabi_dadd+0x1ca>
    83aa:	2b00      	cmp	r3, #0
    83ac:	d0f5      	beq.n	839a <__aeabi_dadd+0x4f2>
    83ae:	4643      	mov	r3, r8
    83b0:	4313      	orrs	r3, r2
    83b2:	d100      	bne.n	83b6 <__aeabi_dadd+0x50e>
    83b4:	e67a      	b.n	80ac <__aeabi_dadd+0x204>
    83b6:	1887      	adds	r7, r0, r2
    83b8:	4287      	cmp	r7, r0
    83ba:	4180      	sbcs	r0, r0
    83bc:	2207      	movs	r2, #7
    83be:	4441      	add	r1, r8
    83c0:	4240      	negs	r0, r0
    83c2:	1809      	adds	r1, r1, r0
    83c4:	403a      	ands	r2, r7
    83c6:	020b      	lsls	r3, r1, #8
    83c8:	d400      	bmi.n	83cc <__aeabi_dadd+0x524>
    83ca:	e6d5      	b.n	8178 <__aeabi_dadd+0x2d0>
    83cc:	4b43      	ldr	r3, [pc, #268]	; (84dc <__aeabi_dadd+0x634>)
    83ce:	3501      	adds	r5, #1
    83d0:	4019      	ands	r1, r3
    83d2:	e5c9      	b.n	7f68 <__aeabi_dadd+0xc0>
    83d4:	0038      	movs	r0, r7
    83d6:	e669      	b.n	80ac <__aeabi_dadd+0x204>
    83d8:	001e      	movs	r6, r3
    83da:	4647      	mov	r7, r8
    83dc:	3e20      	subs	r6, #32
    83de:	40f7      	lsrs	r7, r6
    83e0:	46bc      	mov	ip, r7
    83e2:	2b20      	cmp	r3, #32
    83e4:	d004      	beq.n	83f0 <__aeabi_dadd+0x548>
    83e6:	2640      	movs	r6, #64	; 0x40
    83e8:	1af3      	subs	r3, r6, r3
    83ea:	4646      	mov	r6, r8
    83ec:	409e      	lsls	r6, r3
    83ee:	4332      	orrs	r2, r6
    83f0:	0017      	movs	r7, r2
    83f2:	4663      	mov	r3, ip
    83f4:	1e7a      	subs	r2, r7, #1
    83f6:	4197      	sbcs	r7, r2
    83f8:	431f      	orrs	r7, r3
    83fa:	e602      	b.n	8002 <__aeabi_dadd+0x15a>
    83fc:	4d36      	ldr	r5, [pc, #216]	; (84d8 <__aeabi_dadd+0x630>)
    83fe:	42ae      	cmp	r6, r5
    8400:	d0ca      	beq.n	8398 <__aeabi_dadd+0x4f0>
    8402:	2580      	movs	r5, #128	; 0x80
    8404:	042d      	lsls	r5, r5, #16
    8406:	425b      	negs	r3, r3
    8408:	4329      	orrs	r1, r5
    840a:	e7a6      	b.n	835a <__aeabi_dadd+0x4b2>
    840c:	4308      	orrs	r0, r1
    840e:	1e41      	subs	r1, r0, #1
    8410:	4188      	sbcs	r0, r1
    8412:	e6a6      	b.n	8162 <__aeabi_dadd+0x2ba>
    8414:	2b00      	cmp	r3, #0
    8416:	d100      	bne.n	841a <__aeabi_dadd+0x572>
    8418:	e648      	b.n	80ac <__aeabi_dadd+0x204>
    841a:	1a87      	subs	r7, r0, r2
    841c:	4643      	mov	r3, r8
    841e:	42b8      	cmp	r0, r7
    8420:	41b6      	sbcs	r6, r6
    8422:	1acb      	subs	r3, r1, r3
    8424:	4276      	negs	r6, r6
    8426:	1b9e      	subs	r6, r3, r6
    8428:	0233      	lsls	r3, r6, #8
    842a:	d54b      	bpl.n	84c4 <__aeabi_dadd+0x61c>
    842c:	1a17      	subs	r7, r2, r0
    842e:	4643      	mov	r3, r8
    8430:	42ba      	cmp	r2, r7
    8432:	4192      	sbcs	r2, r2
    8434:	1a59      	subs	r1, r3, r1
    8436:	4252      	negs	r2, r2
    8438:	1a89      	subs	r1, r1, r2
    843a:	2207      	movs	r2, #7
    843c:	4664      	mov	r4, ip
    843e:	403a      	ands	r2, r7
    8440:	e592      	b.n	7f68 <__aeabi_dadd+0xc0>
    8442:	4301      	orrs	r1, r0
    8444:	000f      	movs	r7, r1
    8446:	1e79      	subs	r1, r7, #1
    8448:	418f      	sbcs	r7, r1
    844a:	e79d      	b.n	8388 <__aeabi_dadd+0x4e0>
    844c:	001c      	movs	r4, r3
    844e:	000f      	movs	r7, r1
    8450:	3c20      	subs	r4, #32
    8452:	40e7      	lsrs	r7, r4
    8454:	2b20      	cmp	r3, #32
    8456:	d003      	beq.n	8460 <__aeabi_dadd+0x5b8>
    8458:	2440      	movs	r4, #64	; 0x40
    845a:	1ae3      	subs	r3, r4, r3
    845c:	4099      	lsls	r1, r3
    845e:	4308      	orrs	r0, r1
    8460:	1e41      	subs	r1, r0, #1
    8462:	4188      	sbcs	r0, r1
    8464:	4338      	orrs	r0, r7
    8466:	e67c      	b.n	8162 <__aeabi_dadd+0x2ba>
    8468:	2200      	movs	r2, #0
    846a:	2400      	movs	r4, #0
    846c:	e625      	b.n	80ba <__aeabi_dadd+0x212>
    846e:	1a17      	subs	r7, r2, r0
    8470:	4643      	mov	r3, r8
    8472:	42ba      	cmp	r2, r7
    8474:	4192      	sbcs	r2, r2
    8476:	1a59      	subs	r1, r3, r1
    8478:	4252      	negs	r2, r2
    847a:	1a89      	subs	r1, r1, r2
    847c:	4664      	mov	r4, ip
    847e:	0035      	movs	r5, r6
    8480:	e543      	b.n	7f0a <__aeabi_dadd+0x62>
    8482:	4641      	mov	r1, r8
    8484:	0010      	movs	r0, r2
    8486:	4d14      	ldr	r5, [pc, #80]	; (84d8 <__aeabi_dadd+0x630>)
    8488:	e610      	b.n	80ac <__aeabi_dadd+0x204>
    848a:	2280      	movs	r2, #128	; 0x80
    848c:	2400      	movs	r4, #0
    848e:	0312      	lsls	r2, r2, #12
    8490:	e680      	b.n	8194 <__aeabi_dadd+0x2ec>
    8492:	001d      	movs	r5, r3
    8494:	000f      	movs	r7, r1
    8496:	3d20      	subs	r5, #32
    8498:	40ef      	lsrs	r7, r5
    849a:	46bc      	mov	ip, r7
    849c:	2b20      	cmp	r3, #32
    849e:	d003      	beq.n	84a8 <__aeabi_dadd+0x600>
    84a0:	2540      	movs	r5, #64	; 0x40
    84a2:	1aeb      	subs	r3, r5, r3
    84a4:	4099      	lsls	r1, r3
    84a6:	4308      	orrs	r0, r1
    84a8:	0007      	movs	r7, r0
    84aa:	4663      	mov	r3, ip
    84ac:	1e78      	subs	r0, r7, #1
    84ae:	4187      	sbcs	r7, r0
    84b0:	431f      	orrs	r7, r3
    84b2:	e769      	b.n	8388 <__aeabi_dadd+0x4e0>
    84b4:	1887      	adds	r7, r0, r2
    84b6:	4297      	cmp	r7, r2
    84b8:	419b      	sbcs	r3, r3
    84ba:	4441      	add	r1, r8
    84bc:	425b      	negs	r3, r3
    84be:	18c9      	adds	r1, r1, r3
    84c0:	0035      	movs	r5, r6
    84c2:	e5a3      	b.n	800c <__aeabi_dadd+0x164>
    84c4:	003b      	movs	r3, r7
    84c6:	4333      	orrs	r3, r6
    84c8:	d0ce      	beq.n	8468 <__aeabi_dadd+0x5c0>
    84ca:	2207      	movs	r2, #7
    84cc:	0031      	movs	r1, r6
    84ce:	403a      	ands	r2, r7
    84d0:	e652      	b.n	8178 <__aeabi_dadd+0x2d0>
    84d2:	2300      	movs	r3, #0
    84d4:	001a      	movs	r2, r3
    84d6:	e5f4      	b.n	80c2 <__aeabi_dadd+0x21a>
    84d8:	000007ff 	.word	0x000007ff
    84dc:	ff7fffff 	.word	0xff7fffff

000084e0 <__aeabi_ddiv>:
__aeabi_ddiv():
    84e0:	b5f0      	push	{r4, r5, r6, r7, lr}
    84e2:	4657      	mov	r7, sl
    84e4:	46de      	mov	lr, fp
    84e6:	464e      	mov	r6, r9
    84e8:	4645      	mov	r5, r8
    84ea:	b5e0      	push	{r5, r6, r7, lr}
    84ec:	4683      	mov	fp, r0
    84ee:	0007      	movs	r7, r0
    84f0:	030e      	lsls	r6, r1, #12
    84f2:	0048      	lsls	r0, r1, #1
    84f4:	b085      	sub	sp, #20
    84f6:	4692      	mov	sl, r2
    84f8:	001c      	movs	r4, r3
    84fa:	0b36      	lsrs	r6, r6, #12
    84fc:	0d40      	lsrs	r0, r0, #21
    84fe:	0fcd      	lsrs	r5, r1, #31
    8500:	2800      	cmp	r0, #0
    8502:	d100      	bne.n	8506 <__aeabi_ddiv+0x26>
    8504:	e09d      	b.n	8642 <__aeabi_ddiv+0x162>
    8506:	4b95      	ldr	r3, [pc, #596]	; (875c <__aeabi_ddiv+0x27c>)
    8508:	4298      	cmp	r0, r3
    850a:	d039      	beq.n	8580 <__aeabi_ddiv+0xa0>
    850c:	2380      	movs	r3, #128	; 0x80
    850e:	00f6      	lsls	r6, r6, #3
    8510:	041b      	lsls	r3, r3, #16
    8512:	431e      	orrs	r6, r3
    8514:	4a92      	ldr	r2, [pc, #584]	; (8760 <__aeabi_ddiv+0x280>)
    8516:	0f7b      	lsrs	r3, r7, #29
    8518:	4333      	orrs	r3, r6
    851a:	4699      	mov	r9, r3
    851c:	4694      	mov	ip, r2
    851e:	0003      	movs	r3, r0
    8520:	4463      	add	r3, ip
    8522:	9300      	str	r3, [sp, #0]
    8524:	2300      	movs	r3, #0
    8526:	2600      	movs	r6, #0
    8528:	00ff      	lsls	r7, r7, #3
    852a:	9302      	str	r3, [sp, #8]
    852c:	0323      	lsls	r3, r4, #12
    852e:	0b1b      	lsrs	r3, r3, #12
    8530:	4698      	mov	r8, r3
    8532:	0063      	lsls	r3, r4, #1
    8534:	0fe4      	lsrs	r4, r4, #31
    8536:	4652      	mov	r2, sl
    8538:	0d5b      	lsrs	r3, r3, #21
    853a:	9401      	str	r4, [sp, #4]
    853c:	d100      	bne.n	8540 <__aeabi_ddiv+0x60>
    853e:	e0b3      	b.n	86a8 <__aeabi_ddiv+0x1c8>
    8540:	4986      	ldr	r1, [pc, #536]	; (875c <__aeabi_ddiv+0x27c>)
    8542:	428b      	cmp	r3, r1
    8544:	d100      	bne.n	8548 <__aeabi_ddiv+0x68>
    8546:	e09e      	b.n	8686 <__aeabi_ddiv+0x1a6>
    8548:	4642      	mov	r2, r8
    854a:	00d1      	lsls	r1, r2, #3
    854c:	2280      	movs	r2, #128	; 0x80
    854e:	0412      	lsls	r2, r2, #16
    8550:	430a      	orrs	r2, r1
    8552:	4651      	mov	r1, sl
    8554:	0f49      	lsrs	r1, r1, #29
    8556:	4311      	orrs	r1, r2
    8558:	468b      	mov	fp, r1
    855a:	4981      	ldr	r1, [pc, #516]	; (8760 <__aeabi_ddiv+0x280>)
    855c:	4652      	mov	r2, sl
    855e:	468c      	mov	ip, r1
    8560:	9900      	ldr	r1, [sp, #0]
    8562:	4463      	add	r3, ip
    8564:	1acb      	subs	r3, r1, r3
    8566:	2100      	movs	r1, #0
    8568:	00d2      	lsls	r2, r2, #3
    856a:	9300      	str	r3, [sp, #0]
    856c:	002b      	movs	r3, r5
    856e:	4063      	eors	r3, r4
    8570:	469a      	mov	sl, r3
    8572:	2e0f      	cmp	r6, #15
    8574:	d900      	bls.n	8578 <__aeabi_ddiv+0x98>
    8576:	e105      	b.n	8784 <__aeabi_ddiv+0x2a4>
    8578:	4b7a      	ldr	r3, [pc, #488]	; (8764 <__aeabi_ddiv+0x284>)
    857a:	00b6      	lsls	r6, r6, #2
    857c:	599b      	ldr	r3, [r3, r6]
    857e:	469f      	mov	pc, r3
    8580:	465b      	mov	r3, fp
    8582:	4333      	orrs	r3, r6
    8584:	4699      	mov	r9, r3
    8586:	d000      	beq.n	858a <__aeabi_ddiv+0xaa>
    8588:	e0b8      	b.n	86fc <__aeabi_ddiv+0x21c>
    858a:	2302      	movs	r3, #2
    858c:	2608      	movs	r6, #8
    858e:	2700      	movs	r7, #0
    8590:	9000      	str	r0, [sp, #0]
    8592:	9302      	str	r3, [sp, #8]
    8594:	e7ca      	b.n	852c <__aeabi_ddiv+0x4c>
    8596:	46cb      	mov	fp, r9
    8598:	003a      	movs	r2, r7
    859a:	9902      	ldr	r1, [sp, #8]
    859c:	9501      	str	r5, [sp, #4]
    859e:	9b01      	ldr	r3, [sp, #4]
    85a0:	469a      	mov	sl, r3
    85a2:	2902      	cmp	r1, #2
    85a4:	d027      	beq.n	85f6 <__aeabi_ddiv+0x116>
    85a6:	2903      	cmp	r1, #3
    85a8:	d100      	bne.n	85ac <__aeabi_ddiv+0xcc>
    85aa:	e280      	b.n	8aae <__aeabi_ddiv+0x5ce>
    85ac:	2901      	cmp	r1, #1
    85ae:	d044      	beq.n	863a <__aeabi_ddiv+0x15a>
    85b0:	496d      	ldr	r1, [pc, #436]	; (8768 <__aeabi_ddiv+0x288>)
    85b2:	9b00      	ldr	r3, [sp, #0]
    85b4:	468c      	mov	ip, r1
    85b6:	4463      	add	r3, ip
    85b8:	001c      	movs	r4, r3
    85ba:	2c00      	cmp	r4, #0
    85bc:	dd38      	ble.n	8630 <__aeabi_ddiv+0x150>
    85be:	0753      	lsls	r3, r2, #29
    85c0:	d000      	beq.n	85c4 <__aeabi_ddiv+0xe4>
    85c2:	e213      	b.n	89ec <__aeabi_ddiv+0x50c>
    85c4:	08d2      	lsrs	r2, r2, #3
    85c6:	465b      	mov	r3, fp
    85c8:	01db      	lsls	r3, r3, #7
    85ca:	d509      	bpl.n	85e0 <__aeabi_ddiv+0x100>
    85cc:	4659      	mov	r1, fp
    85ce:	4b67      	ldr	r3, [pc, #412]	; (876c <__aeabi_ddiv+0x28c>)
    85d0:	4019      	ands	r1, r3
    85d2:	468b      	mov	fp, r1
    85d4:	2180      	movs	r1, #128	; 0x80
    85d6:	00c9      	lsls	r1, r1, #3
    85d8:	468c      	mov	ip, r1
    85da:	9b00      	ldr	r3, [sp, #0]
    85dc:	4463      	add	r3, ip
    85de:	001c      	movs	r4, r3
    85e0:	4b63      	ldr	r3, [pc, #396]	; (8770 <__aeabi_ddiv+0x290>)
    85e2:	429c      	cmp	r4, r3
    85e4:	dc07      	bgt.n	85f6 <__aeabi_ddiv+0x116>
    85e6:	465b      	mov	r3, fp
    85e8:	0564      	lsls	r4, r4, #21
    85ea:	075f      	lsls	r7, r3, #29
    85ec:	025b      	lsls	r3, r3, #9
    85ee:	4317      	orrs	r7, r2
    85f0:	0b1b      	lsrs	r3, r3, #12
    85f2:	0d62      	lsrs	r2, r4, #21
    85f4:	e002      	b.n	85fc <__aeabi_ddiv+0x11c>
    85f6:	2300      	movs	r3, #0
    85f8:	2700      	movs	r7, #0
    85fa:	4a58      	ldr	r2, [pc, #352]	; (875c <__aeabi_ddiv+0x27c>)
    85fc:	2100      	movs	r1, #0
    85fe:	031b      	lsls	r3, r3, #12
    8600:	0b1c      	lsrs	r4, r3, #12
    8602:	0d0b      	lsrs	r3, r1, #20
    8604:	051b      	lsls	r3, r3, #20
    8606:	4323      	orrs	r3, r4
    8608:	0514      	lsls	r4, r2, #20
    860a:	4a5a      	ldr	r2, [pc, #360]	; (8774 <__aeabi_ddiv+0x294>)
    860c:	0038      	movs	r0, r7
    860e:	4013      	ands	r3, r2
    8610:	431c      	orrs	r4, r3
    8612:	4653      	mov	r3, sl
    8614:	0064      	lsls	r4, r4, #1
    8616:	07db      	lsls	r3, r3, #31
    8618:	0864      	lsrs	r4, r4, #1
    861a:	431c      	orrs	r4, r3
    861c:	0021      	movs	r1, r4
    861e:	b005      	add	sp, #20
    8620:	bc3c      	pop	{r2, r3, r4, r5}
    8622:	4690      	mov	r8, r2
    8624:	4699      	mov	r9, r3
    8626:	46a2      	mov	sl, r4
    8628:	46ab      	mov	fp, r5
    862a:	bdf0      	pop	{r4, r5, r6, r7, pc}
    862c:	2201      	movs	r2, #1
    862e:	4252      	negs	r2, r2
    8630:	2301      	movs	r3, #1
    8632:	1b1b      	subs	r3, r3, r4
    8634:	2b38      	cmp	r3, #56	; 0x38
    8636:	dc00      	bgt.n	863a <__aeabi_ddiv+0x15a>
    8638:	e1ad      	b.n	8996 <__aeabi_ddiv+0x4b6>
    863a:	2200      	movs	r2, #0
    863c:	2300      	movs	r3, #0
    863e:	2700      	movs	r7, #0
    8640:	e7dc      	b.n	85fc <__aeabi_ddiv+0x11c>
    8642:	465b      	mov	r3, fp
    8644:	4333      	orrs	r3, r6
    8646:	4699      	mov	r9, r3
    8648:	d05e      	beq.n	8708 <__aeabi_ddiv+0x228>
    864a:	2e00      	cmp	r6, #0
    864c:	d100      	bne.n	8650 <__aeabi_ddiv+0x170>
    864e:	e18a      	b.n	8966 <__aeabi_ddiv+0x486>
    8650:	0030      	movs	r0, r6
    8652:	f001 fa9d 	bl	9b90 <__clzsi2>
    8656:	0003      	movs	r3, r0
    8658:	3b0b      	subs	r3, #11
    865a:	2b1c      	cmp	r3, #28
    865c:	dd00      	ble.n	8660 <__aeabi_ddiv+0x180>
    865e:	e17b      	b.n	8958 <__aeabi_ddiv+0x478>
    8660:	221d      	movs	r2, #29
    8662:	1ad3      	subs	r3, r2, r3
    8664:	465a      	mov	r2, fp
    8666:	0001      	movs	r1, r0
    8668:	40da      	lsrs	r2, r3
    866a:	3908      	subs	r1, #8
    866c:	408e      	lsls	r6, r1
    866e:	0013      	movs	r3, r2
    8670:	465f      	mov	r7, fp
    8672:	4333      	orrs	r3, r6
    8674:	4699      	mov	r9, r3
    8676:	408f      	lsls	r7, r1
    8678:	4b3f      	ldr	r3, [pc, #252]	; (8778 <__aeabi_ddiv+0x298>)
    867a:	2600      	movs	r6, #0
    867c:	1a1b      	subs	r3, r3, r0
    867e:	9300      	str	r3, [sp, #0]
    8680:	2300      	movs	r3, #0
    8682:	9302      	str	r3, [sp, #8]
    8684:	e752      	b.n	852c <__aeabi_ddiv+0x4c>
    8686:	4641      	mov	r1, r8
    8688:	4653      	mov	r3, sl
    868a:	430b      	orrs	r3, r1
    868c:	493b      	ldr	r1, [pc, #236]	; (877c <__aeabi_ddiv+0x29c>)
    868e:	469b      	mov	fp, r3
    8690:	468c      	mov	ip, r1
    8692:	9b00      	ldr	r3, [sp, #0]
    8694:	4463      	add	r3, ip
    8696:	9300      	str	r3, [sp, #0]
    8698:	465b      	mov	r3, fp
    869a:	2b00      	cmp	r3, #0
    869c:	d13b      	bne.n	8716 <__aeabi_ddiv+0x236>
    869e:	2302      	movs	r3, #2
    86a0:	2200      	movs	r2, #0
    86a2:	431e      	orrs	r6, r3
    86a4:	2102      	movs	r1, #2
    86a6:	e761      	b.n	856c <__aeabi_ddiv+0x8c>
    86a8:	4643      	mov	r3, r8
    86aa:	4313      	orrs	r3, r2
    86ac:	469b      	mov	fp, r3
    86ae:	d037      	beq.n	8720 <__aeabi_ddiv+0x240>
    86b0:	4643      	mov	r3, r8
    86b2:	2b00      	cmp	r3, #0
    86b4:	d100      	bne.n	86b8 <__aeabi_ddiv+0x1d8>
    86b6:	e162      	b.n	897e <__aeabi_ddiv+0x49e>
    86b8:	4640      	mov	r0, r8
    86ba:	f001 fa69 	bl	9b90 <__clzsi2>
    86be:	0003      	movs	r3, r0
    86c0:	3b0b      	subs	r3, #11
    86c2:	2b1c      	cmp	r3, #28
    86c4:	dd00      	ble.n	86c8 <__aeabi_ddiv+0x1e8>
    86c6:	e153      	b.n	8970 <__aeabi_ddiv+0x490>
    86c8:	0002      	movs	r2, r0
    86ca:	4641      	mov	r1, r8
    86cc:	3a08      	subs	r2, #8
    86ce:	4091      	lsls	r1, r2
    86d0:	4688      	mov	r8, r1
    86d2:	211d      	movs	r1, #29
    86d4:	1acb      	subs	r3, r1, r3
    86d6:	4651      	mov	r1, sl
    86d8:	40d9      	lsrs	r1, r3
    86da:	000b      	movs	r3, r1
    86dc:	4641      	mov	r1, r8
    86de:	430b      	orrs	r3, r1
    86e0:	469b      	mov	fp, r3
    86e2:	4653      	mov	r3, sl
    86e4:	4093      	lsls	r3, r2
    86e6:	001a      	movs	r2, r3
    86e8:	9b00      	ldr	r3, [sp, #0]
    86ea:	4925      	ldr	r1, [pc, #148]	; (8780 <__aeabi_ddiv+0x2a0>)
    86ec:	469c      	mov	ip, r3
    86ee:	4460      	add	r0, ip
    86f0:	0003      	movs	r3, r0
    86f2:	468c      	mov	ip, r1
    86f4:	4463      	add	r3, ip
    86f6:	9300      	str	r3, [sp, #0]
    86f8:	2100      	movs	r1, #0
    86fa:	e737      	b.n	856c <__aeabi_ddiv+0x8c>
    86fc:	2303      	movs	r3, #3
    86fe:	46b1      	mov	r9, r6
    8700:	9000      	str	r0, [sp, #0]
    8702:	260c      	movs	r6, #12
    8704:	9302      	str	r3, [sp, #8]
    8706:	e711      	b.n	852c <__aeabi_ddiv+0x4c>
    8708:	2300      	movs	r3, #0
    870a:	9300      	str	r3, [sp, #0]
    870c:	3301      	adds	r3, #1
    870e:	2604      	movs	r6, #4
    8710:	2700      	movs	r7, #0
    8712:	9302      	str	r3, [sp, #8]
    8714:	e70a      	b.n	852c <__aeabi_ddiv+0x4c>
    8716:	2303      	movs	r3, #3
    8718:	46c3      	mov	fp, r8
    871a:	431e      	orrs	r6, r3
    871c:	2103      	movs	r1, #3
    871e:	e725      	b.n	856c <__aeabi_ddiv+0x8c>
    8720:	3301      	adds	r3, #1
    8722:	431e      	orrs	r6, r3
    8724:	2200      	movs	r2, #0
    8726:	2101      	movs	r1, #1
    8728:	e720      	b.n	856c <__aeabi_ddiv+0x8c>
    872a:	2300      	movs	r3, #0
    872c:	469a      	mov	sl, r3
    872e:	2380      	movs	r3, #128	; 0x80
    8730:	2700      	movs	r7, #0
    8732:	031b      	lsls	r3, r3, #12
    8734:	4a09      	ldr	r2, [pc, #36]	; (875c <__aeabi_ddiv+0x27c>)
    8736:	e761      	b.n	85fc <__aeabi_ddiv+0x11c>
    8738:	2380      	movs	r3, #128	; 0x80
    873a:	4649      	mov	r1, r9
    873c:	031b      	lsls	r3, r3, #12
    873e:	4219      	tst	r1, r3
    8740:	d100      	bne.n	8744 <__aeabi_ddiv+0x264>
    8742:	e0e2      	b.n	890a <__aeabi_ddiv+0x42a>
    8744:	4659      	mov	r1, fp
    8746:	4219      	tst	r1, r3
    8748:	d000      	beq.n	874c <__aeabi_ddiv+0x26c>
    874a:	e0de      	b.n	890a <__aeabi_ddiv+0x42a>
    874c:	430b      	orrs	r3, r1
    874e:	031b      	lsls	r3, r3, #12
    8750:	0017      	movs	r7, r2
    8752:	0b1b      	lsrs	r3, r3, #12
    8754:	46a2      	mov	sl, r4
    8756:	4a01      	ldr	r2, [pc, #4]	; (875c <__aeabi_ddiv+0x27c>)
    8758:	e750      	b.n	85fc <__aeabi_ddiv+0x11c>
    875a:	46c0      	nop			; (mov r8, r8)
    875c:	000007ff 	.word	0x000007ff
    8760:	fffffc01 	.word	0xfffffc01
    8764:	0000d828 	.word	0x0000d828
    8768:	000003ff 	.word	0x000003ff
    876c:	feffffff 	.word	0xfeffffff
    8770:	000007fe 	.word	0x000007fe
    8774:	800fffff 	.word	0x800fffff
    8778:	fffffc0d 	.word	0xfffffc0d
    877c:	fffff801 	.word	0xfffff801
    8780:	000003f3 	.word	0x000003f3
    8784:	45d9      	cmp	r9, fp
    8786:	d900      	bls.n	878a <__aeabi_ddiv+0x2aa>
    8788:	e0cb      	b.n	8922 <__aeabi_ddiv+0x442>
    878a:	d100      	bne.n	878e <__aeabi_ddiv+0x2ae>
    878c:	e0c6      	b.n	891c <__aeabi_ddiv+0x43c>
    878e:	003c      	movs	r4, r7
    8790:	4648      	mov	r0, r9
    8792:	2700      	movs	r7, #0
    8794:	9b00      	ldr	r3, [sp, #0]
    8796:	3b01      	subs	r3, #1
    8798:	9300      	str	r3, [sp, #0]
    879a:	465b      	mov	r3, fp
    879c:	0e16      	lsrs	r6, r2, #24
    879e:	021b      	lsls	r3, r3, #8
    87a0:	431e      	orrs	r6, r3
    87a2:	0213      	lsls	r3, r2, #8
    87a4:	4698      	mov	r8, r3
    87a6:	0433      	lsls	r3, r6, #16
    87a8:	0c1b      	lsrs	r3, r3, #16
    87aa:	4699      	mov	r9, r3
    87ac:	0c31      	lsrs	r1, r6, #16
    87ae:	9101      	str	r1, [sp, #4]
    87b0:	f7fe fb3a 	bl	6e28 <__aeabi_uidivmod>
    87b4:	464a      	mov	r2, r9
    87b6:	4342      	muls	r2, r0
    87b8:	040b      	lsls	r3, r1, #16
    87ba:	0c21      	lsrs	r1, r4, #16
    87bc:	0005      	movs	r5, r0
    87be:	4319      	orrs	r1, r3
    87c0:	428a      	cmp	r2, r1
    87c2:	d907      	bls.n	87d4 <__aeabi_ddiv+0x2f4>
    87c4:	1989      	adds	r1, r1, r6
    87c6:	3d01      	subs	r5, #1
    87c8:	428e      	cmp	r6, r1
    87ca:	d803      	bhi.n	87d4 <__aeabi_ddiv+0x2f4>
    87cc:	428a      	cmp	r2, r1
    87ce:	d901      	bls.n	87d4 <__aeabi_ddiv+0x2f4>
    87d0:	1e85      	subs	r5, r0, #2
    87d2:	1989      	adds	r1, r1, r6
    87d4:	1a88      	subs	r0, r1, r2
    87d6:	9901      	ldr	r1, [sp, #4]
    87d8:	f7fe fb26 	bl	6e28 <__aeabi_uidivmod>
    87dc:	0409      	lsls	r1, r1, #16
    87de:	468c      	mov	ip, r1
    87e0:	464a      	mov	r2, r9
    87e2:	0421      	lsls	r1, r4, #16
    87e4:	4664      	mov	r4, ip
    87e6:	4342      	muls	r2, r0
    87e8:	0c09      	lsrs	r1, r1, #16
    87ea:	0003      	movs	r3, r0
    87ec:	4321      	orrs	r1, r4
    87ee:	428a      	cmp	r2, r1
    87f0:	d904      	bls.n	87fc <__aeabi_ddiv+0x31c>
    87f2:	1989      	adds	r1, r1, r6
    87f4:	3b01      	subs	r3, #1
    87f6:	428e      	cmp	r6, r1
    87f8:	d800      	bhi.n	87fc <__aeabi_ddiv+0x31c>
    87fa:	e0f1      	b.n	89e0 <__aeabi_ddiv+0x500>
    87fc:	042d      	lsls	r5, r5, #16
    87fe:	431d      	orrs	r5, r3
    8800:	46ab      	mov	fp, r5
    8802:	4643      	mov	r3, r8
    8804:	1a89      	subs	r1, r1, r2
    8806:	4642      	mov	r2, r8
    8808:	0c28      	lsrs	r0, r5, #16
    880a:	0412      	lsls	r2, r2, #16
    880c:	0c1d      	lsrs	r5, r3, #16
    880e:	465b      	mov	r3, fp
    8810:	0c14      	lsrs	r4, r2, #16
    8812:	0022      	movs	r2, r4
    8814:	041b      	lsls	r3, r3, #16
    8816:	0c1b      	lsrs	r3, r3, #16
    8818:	435a      	muls	r2, r3
    881a:	9403      	str	r4, [sp, #12]
    881c:	436b      	muls	r3, r5
    881e:	4344      	muls	r4, r0
    8820:	9502      	str	r5, [sp, #8]
    8822:	4368      	muls	r0, r5
    8824:	191b      	adds	r3, r3, r4
    8826:	0c15      	lsrs	r5, r2, #16
    8828:	18eb      	adds	r3, r5, r3
    882a:	429c      	cmp	r4, r3
    882c:	d903      	bls.n	8836 <__aeabi_ddiv+0x356>
    882e:	2480      	movs	r4, #128	; 0x80
    8830:	0264      	lsls	r4, r4, #9
    8832:	46a4      	mov	ip, r4
    8834:	4460      	add	r0, ip
    8836:	0c1c      	lsrs	r4, r3, #16
    8838:	0415      	lsls	r5, r2, #16
    883a:	041b      	lsls	r3, r3, #16
    883c:	0c2d      	lsrs	r5, r5, #16
    883e:	1820      	adds	r0, r4, r0
    8840:	195d      	adds	r5, r3, r5
    8842:	4281      	cmp	r1, r0
    8844:	d377      	bcc.n	8936 <__aeabi_ddiv+0x456>
    8846:	d073      	beq.n	8930 <__aeabi_ddiv+0x450>
    8848:	1a0c      	subs	r4, r1, r0
    884a:	4aa2      	ldr	r2, [pc, #648]	; (8ad4 <__aeabi_ddiv+0x5f4>)
    884c:	1b7d      	subs	r5, r7, r5
    884e:	42af      	cmp	r7, r5
    8850:	41bf      	sbcs	r7, r7
    8852:	4694      	mov	ip, r2
    8854:	9b00      	ldr	r3, [sp, #0]
    8856:	427f      	negs	r7, r7
    8858:	4463      	add	r3, ip
    885a:	1be0      	subs	r0, r4, r7
    885c:	001c      	movs	r4, r3
    885e:	4286      	cmp	r6, r0
    8860:	d100      	bne.n	8864 <__aeabi_ddiv+0x384>
    8862:	e0db      	b.n	8a1c <__aeabi_ddiv+0x53c>
    8864:	9901      	ldr	r1, [sp, #4]
    8866:	f7fe fadf 	bl	6e28 <__aeabi_uidivmod>
    886a:	464a      	mov	r2, r9
    886c:	4342      	muls	r2, r0
    886e:	040b      	lsls	r3, r1, #16
    8870:	0c29      	lsrs	r1, r5, #16
    8872:	0007      	movs	r7, r0
    8874:	4319      	orrs	r1, r3
    8876:	428a      	cmp	r2, r1
    8878:	d907      	bls.n	888a <__aeabi_ddiv+0x3aa>
    887a:	1989      	adds	r1, r1, r6
    887c:	3f01      	subs	r7, #1
    887e:	428e      	cmp	r6, r1
    8880:	d803      	bhi.n	888a <__aeabi_ddiv+0x3aa>
    8882:	428a      	cmp	r2, r1
    8884:	d901      	bls.n	888a <__aeabi_ddiv+0x3aa>
    8886:	1e87      	subs	r7, r0, #2
    8888:	1989      	adds	r1, r1, r6
    888a:	1a88      	subs	r0, r1, r2
    888c:	9901      	ldr	r1, [sp, #4]
    888e:	f7fe facb 	bl	6e28 <__aeabi_uidivmod>
    8892:	0409      	lsls	r1, r1, #16
    8894:	464a      	mov	r2, r9
    8896:	4689      	mov	r9, r1
    8898:	0429      	lsls	r1, r5, #16
    889a:	464d      	mov	r5, r9
    889c:	4342      	muls	r2, r0
    889e:	0c09      	lsrs	r1, r1, #16
    88a0:	0003      	movs	r3, r0
    88a2:	4329      	orrs	r1, r5
    88a4:	428a      	cmp	r2, r1
    88a6:	d907      	bls.n	88b8 <__aeabi_ddiv+0x3d8>
    88a8:	1989      	adds	r1, r1, r6
    88aa:	3b01      	subs	r3, #1
    88ac:	428e      	cmp	r6, r1
    88ae:	d803      	bhi.n	88b8 <__aeabi_ddiv+0x3d8>
    88b0:	428a      	cmp	r2, r1
    88b2:	d901      	bls.n	88b8 <__aeabi_ddiv+0x3d8>
    88b4:	1e83      	subs	r3, r0, #2
    88b6:	1989      	adds	r1, r1, r6
    88b8:	043f      	lsls	r7, r7, #16
    88ba:	1a89      	subs	r1, r1, r2
    88bc:	003a      	movs	r2, r7
    88be:	9f03      	ldr	r7, [sp, #12]
    88c0:	431a      	orrs	r2, r3
    88c2:	0038      	movs	r0, r7
    88c4:	0413      	lsls	r3, r2, #16
    88c6:	0c1b      	lsrs	r3, r3, #16
    88c8:	4358      	muls	r0, r3
    88ca:	4681      	mov	r9, r0
    88cc:	9802      	ldr	r0, [sp, #8]
    88ce:	0c15      	lsrs	r5, r2, #16
    88d0:	436f      	muls	r7, r5
    88d2:	4343      	muls	r3, r0
    88d4:	4345      	muls	r5, r0
    88d6:	4648      	mov	r0, r9
    88d8:	0c00      	lsrs	r0, r0, #16
    88da:	4684      	mov	ip, r0
    88dc:	19db      	adds	r3, r3, r7
    88de:	4463      	add	r3, ip
    88e0:	429f      	cmp	r7, r3
    88e2:	d903      	bls.n	88ec <__aeabi_ddiv+0x40c>
    88e4:	2080      	movs	r0, #128	; 0x80
    88e6:	0240      	lsls	r0, r0, #9
    88e8:	4684      	mov	ip, r0
    88ea:	4465      	add	r5, ip
    88ec:	4648      	mov	r0, r9
    88ee:	0c1f      	lsrs	r7, r3, #16
    88f0:	0400      	lsls	r0, r0, #16
    88f2:	041b      	lsls	r3, r3, #16
    88f4:	0c00      	lsrs	r0, r0, #16
    88f6:	197d      	adds	r5, r7, r5
    88f8:	1818      	adds	r0, r3, r0
    88fa:	42a9      	cmp	r1, r5
    88fc:	d200      	bcs.n	8900 <__aeabi_ddiv+0x420>
    88fe:	e084      	b.n	8a0a <__aeabi_ddiv+0x52a>
    8900:	d100      	bne.n	8904 <__aeabi_ddiv+0x424>
    8902:	e07f      	b.n	8a04 <__aeabi_ddiv+0x524>
    8904:	2301      	movs	r3, #1
    8906:	431a      	orrs	r2, r3
    8908:	e657      	b.n	85ba <__aeabi_ddiv+0xda>
    890a:	2380      	movs	r3, #128	; 0x80
    890c:	464a      	mov	r2, r9
    890e:	031b      	lsls	r3, r3, #12
    8910:	4313      	orrs	r3, r2
    8912:	031b      	lsls	r3, r3, #12
    8914:	0b1b      	lsrs	r3, r3, #12
    8916:	46aa      	mov	sl, r5
    8918:	4a6f      	ldr	r2, [pc, #444]	; (8ad8 <__aeabi_ddiv+0x5f8>)
    891a:	e66f      	b.n	85fc <__aeabi_ddiv+0x11c>
    891c:	42ba      	cmp	r2, r7
    891e:	d900      	bls.n	8922 <__aeabi_ddiv+0x442>
    8920:	e735      	b.n	878e <__aeabi_ddiv+0x2ae>
    8922:	464b      	mov	r3, r9
    8924:	07dc      	lsls	r4, r3, #31
    8926:	0858      	lsrs	r0, r3, #1
    8928:	087b      	lsrs	r3, r7, #1
    892a:	431c      	orrs	r4, r3
    892c:	07ff      	lsls	r7, r7, #31
    892e:	e734      	b.n	879a <__aeabi_ddiv+0x2ba>
    8930:	2400      	movs	r4, #0
    8932:	42af      	cmp	r7, r5
    8934:	d289      	bcs.n	884a <__aeabi_ddiv+0x36a>
    8936:	4447      	add	r7, r8
    8938:	4547      	cmp	r7, r8
    893a:	41a4      	sbcs	r4, r4
    893c:	465b      	mov	r3, fp
    893e:	4264      	negs	r4, r4
    8940:	19a4      	adds	r4, r4, r6
    8942:	1864      	adds	r4, r4, r1
    8944:	3b01      	subs	r3, #1
    8946:	42a6      	cmp	r6, r4
    8948:	d21e      	bcs.n	8988 <__aeabi_ddiv+0x4a8>
    894a:	42a0      	cmp	r0, r4
    894c:	d86d      	bhi.n	8a2a <__aeabi_ddiv+0x54a>
    894e:	d100      	bne.n	8952 <__aeabi_ddiv+0x472>
    8950:	e0b6      	b.n	8ac0 <__aeabi_ddiv+0x5e0>
    8952:	1a24      	subs	r4, r4, r0
    8954:	469b      	mov	fp, r3
    8956:	e778      	b.n	884a <__aeabi_ddiv+0x36a>
    8958:	0003      	movs	r3, r0
    895a:	465a      	mov	r2, fp
    895c:	3b28      	subs	r3, #40	; 0x28
    895e:	409a      	lsls	r2, r3
    8960:	2700      	movs	r7, #0
    8962:	4691      	mov	r9, r2
    8964:	e688      	b.n	8678 <__aeabi_ddiv+0x198>
    8966:	4658      	mov	r0, fp
    8968:	f001 f912 	bl	9b90 <__clzsi2>
    896c:	3020      	adds	r0, #32
    896e:	e672      	b.n	8656 <__aeabi_ddiv+0x176>
    8970:	0003      	movs	r3, r0
    8972:	4652      	mov	r2, sl
    8974:	3b28      	subs	r3, #40	; 0x28
    8976:	409a      	lsls	r2, r3
    8978:	4693      	mov	fp, r2
    897a:	2200      	movs	r2, #0
    897c:	e6b4      	b.n	86e8 <__aeabi_ddiv+0x208>
    897e:	4650      	mov	r0, sl
    8980:	f001 f906 	bl	9b90 <__clzsi2>
    8984:	3020      	adds	r0, #32
    8986:	e69a      	b.n	86be <__aeabi_ddiv+0x1de>
    8988:	42a6      	cmp	r6, r4
    898a:	d1e2      	bne.n	8952 <__aeabi_ddiv+0x472>
    898c:	45b8      	cmp	r8, r7
    898e:	d9dc      	bls.n	894a <__aeabi_ddiv+0x46a>
    8990:	1a34      	subs	r4, r6, r0
    8992:	469b      	mov	fp, r3
    8994:	e759      	b.n	884a <__aeabi_ddiv+0x36a>
    8996:	2b1f      	cmp	r3, #31
    8998:	dc65      	bgt.n	8a66 <__aeabi_ddiv+0x586>
    899a:	4c50      	ldr	r4, [pc, #320]	; (8adc <__aeabi_ddiv+0x5fc>)
    899c:	9900      	ldr	r1, [sp, #0]
    899e:	46a4      	mov	ip, r4
    89a0:	465c      	mov	r4, fp
    89a2:	4461      	add	r1, ip
    89a4:	0008      	movs	r0, r1
    89a6:	408c      	lsls	r4, r1
    89a8:	0011      	movs	r1, r2
    89aa:	4082      	lsls	r2, r0
    89ac:	40d9      	lsrs	r1, r3
    89ae:	1e50      	subs	r0, r2, #1
    89b0:	4182      	sbcs	r2, r0
    89b2:	430c      	orrs	r4, r1
    89b4:	4314      	orrs	r4, r2
    89b6:	465a      	mov	r2, fp
    89b8:	40da      	lsrs	r2, r3
    89ba:	0013      	movs	r3, r2
    89bc:	0762      	lsls	r2, r4, #29
    89be:	d009      	beq.n	89d4 <__aeabi_ddiv+0x4f4>
    89c0:	220f      	movs	r2, #15
    89c2:	4022      	ands	r2, r4
    89c4:	2a04      	cmp	r2, #4
    89c6:	d005      	beq.n	89d4 <__aeabi_ddiv+0x4f4>
    89c8:	0022      	movs	r2, r4
    89ca:	1d14      	adds	r4, r2, #4
    89cc:	4294      	cmp	r4, r2
    89ce:	4189      	sbcs	r1, r1
    89d0:	4249      	negs	r1, r1
    89d2:	185b      	adds	r3, r3, r1
    89d4:	021a      	lsls	r2, r3, #8
    89d6:	d562      	bpl.n	8a9e <__aeabi_ddiv+0x5be>
    89d8:	2201      	movs	r2, #1
    89da:	2300      	movs	r3, #0
    89dc:	2700      	movs	r7, #0
    89de:	e60d      	b.n	85fc <__aeabi_ddiv+0x11c>
    89e0:	428a      	cmp	r2, r1
    89e2:	d800      	bhi.n	89e6 <__aeabi_ddiv+0x506>
    89e4:	e70a      	b.n	87fc <__aeabi_ddiv+0x31c>
    89e6:	1e83      	subs	r3, r0, #2
    89e8:	1989      	adds	r1, r1, r6
    89ea:	e707      	b.n	87fc <__aeabi_ddiv+0x31c>
    89ec:	230f      	movs	r3, #15
    89ee:	4013      	ands	r3, r2
    89f0:	2b04      	cmp	r3, #4
    89f2:	d100      	bne.n	89f6 <__aeabi_ddiv+0x516>
    89f4:	e5e6      	b.n	85c4 <__aeabi_ddiv+0xe4>
    89f6:	1d17      	adds	r7, r2, #4
    89f8:	4297      	cmp	r7, r2
    89fa:	4192      	sbcs	r2, r2
    89fc:	4253      	negs	r3, r2
    89fe:	449b      	add	fp, r3
    8a00:	08fa      	lsrs	r2, r7, #3
    8a02:	e5e0      	b.n	85c6 <__aeabi_ddiv+0xe6>
    8a04:	2800      	cmp	r0, #0
    8a06:	d100      	bne.n	8a0a <__aeabi_ddiv+0x52a>
    8a08:	e5d7      	b.n	85ba <__aeabi_ddiv+0xda>
    8a0a:	1871      	adds	r1, r6, r1
    8a0c:	1e53      	subs	r3, r2, #1
    8a0e:	42b1      	cmp	r1, r6
    8a10:	d327      	bcc.n	8a62 <__aeabi_ddiv+0x582>
    8a12:	42a9      	cmp	r1, r5
    8a14:	d315      	bcc.n	8a42 <__aeabi_ddiv+0x562>
    8a16:	d058      	beq.n	8aca <__aeabi_ddiv+0x5ea>
    8a18:	001a      	movs	r2, r3
    8a1a:	e773      	b.n	8904 <__aeabi_ddiv+0x424>
    8a1c:	2b00      	cmp	r3, #0
    8a1e:	dc00      	bgt.n	8a22 <__aeabi_ddiv+0x542>
    8a20:	e604      	b.n	862c <__aeabi_ddiv+0x14c>
    8a22:	2301      	movs	r3, #1
    8a24:	2200      	movs	r2, #0
    8a26:	449b      	add	fp, r3
    8a28:	e5cd      	b.n	85c6 <__aeabi_ddiv+0xe6>
    8a2a:	2302      	movs	r3, #2
    8a2c:	4447      	add	r7, r8
    8a2e:	4547      	cmp	r7, r8
    8a30:	4189      	sbcs	r1, r1
    8a32:	425b      	negs	r3, r3
    8a34:	469c      	mov	ip, r3
    8a36:	4249      	negs	r1, r1
    8a38:	1989      	adds	r1, r1, r6
    8a3a:	190c      	adds	r4, r1, r4
    8a3c:	44e3      	add	fp, ip
    8a3e:	1a24      	subs	r4, r4, r0
    8a40:	e703      	b.n	884a <__aeabi_ddiv+0x36a>
    8a42:	4643      	mov	r3, r8
    8a44:	005f      	lsls	r7, r3, #1
    8a46:	4547      	cmp	r7, r8
    8a48:	419b      	sbcs	r3, r3
    8a4a:	46b8      	mov	r8, r7
    8a4c:	425b      	negs	r3, r3
    8a4e:	199e      	adds	r6, r3, r6
    8a50:	3a02      	subs	r2, #2
    8a52:	1989      	adds	r1, r1, r6
    8a54:	42a9      	cmp	r1, r5
    8a56:	d000      	beq.n	8a5a <__aeabi_ddiv+0x57a>
    8a58:	e754      	b.n	8904 <__aeabi_ddiv+0x424>
    8a5a:	4540      	cmp	r0, r8
    8a5c:	d000      	beq.n	8a60 <__aeabi_ddiv+0x580>
    8a5e:	e751      	b.n	8904 <__aeabi_ddiv+0x424>
    8a60:	e5ab      	b.n	85ba <__aeabi_ddiv+0xda>
    8a62:	001a      	movs	r2, r3
    8a64:	e7f6      	b.n	8a54 <__aeabi_ddiv+0x574>
    8a66:	211f      	movs	r1, #31
    8a68:	465f      	mov	r7, fp
    8a6a:	4249      	negs	r1, r1
    8a6c:	1b0c      	subs	r4, r1, r4
    8a6e:	40e7      	lsrs	r7, r4
    8a70:	2b20      	cmp	r3, #32
    8a72:	d007      	beq.n	8a84 <__aeabi_ddiv+0x5a4>
    8a74:	491a      	ldr	r1, [pc, #104]	; (8ae0 <__aeabi_ddiv+0x600>)
    8a76:	9b00      	ldr	r3, [sp, #0]
    8a78:	468c      	mov	ip, r1
    8a7a:	4463      	add	r3, ip
    8a7c:	0018      	movs	r0, r3
    8a7e:	465b      	mov	r3, fp
    8a80:	4083      	lsls	r3, r0
    8a82:	431a      	orrs	r2, r3
    8a84:	1e50      	subs	r0, r2, #1
    8a86:	4182      	sbcs	r2, r0
    8a88:	433a      	orrs	r2, r7
    8a8a:	2707      	movs	r7, #7
    8a8c:	2300      	movs	r3, #0
    8a8e:	4017      	ands	r7, r2
    8a90:	d009      	beq.n	8aa6 <__aeabi_ddiv+0x5c6>
    8a92:	210f      	movs	r1, #15
    8a94:	2300      	movs	r3, #0
    8a96:	4011      	ands	r1, r2
    8a98:	0014      	movs	r4, r2
    8a9a:	2904      	cmp	r1, #4
    8a9c:	d195      	bne.n	89ca <__aeabi_ddiv+0x4ea>
    8a9e:	0022      	movs	r2, r4
    8aa0:	075f      	lsls	r7, r3, #29
    8aa2:	025b      	lsls	r3, r3, #9
    8aa4:	0b1b      	lsrs	r3, r3, #12
    8aa6:	08d2      	lsrs	r2, r2, #3
    8aa8:	4317      	orrs	r7, r2
    8aaa:	2200      	movs	r2, #0
    8aac:	e5a6      	b.n	85fc <__aeabi_ddiv+0x11c>
    8aae:	2380      	movs	r3, #128	; 0x80
    8ab0:	4659      	mov	r1, fp
    8ab2:	031b      	lsls	r3, r3, #12
    8ab4:	430b      	orrs	r3, r1
    8ab6:	031b      	lsls	r3, r3, #12
    8ab8:	0017      	movs	r7, r2
    8aba:	0b1b      	lsrs	r3, r3, #12
    8abc:	4a06      	ldr	r2, [pc, #24]	; (8ad8 <__aeabi_ddiv+0x5f8>)
    8abe:	e59d      	b.n	85fc <__aeabi_ddiv+0x11c>
    8ac0:	42bd      	cmp	r5, r7
    8ac2:	d8b2      	bhi.n	8a2a <__aeabi_ddiv+0x54a>
    8ac4:	469b      	mov	fp, r3
    8ac6:	2400      	movs	r4, #0
    8ac8:	e6bf      	b.n	884a <__aeabi_ddiv+0x36a>
    8aca:	4580      	cmp	r8, r0
    8acc:	d3b9      	bcc.n	8a42 <__aeabi_ddiv+0x562>
    8ace:	001a      	movs	r2, r3
    8ad0:	e7c3      	b.n	8a5a <__aeabi_ddiv+0x57a>
    8ad2:	46c0      	nop			; (mov r8, r8)
    8ad4:	000003ff 	.word	0x000003ff
    8ad8:	000007ff 	.word	0x000007ff
    8adc:	0000041e 	.word	0x0000041e
    8ae0:	0000043e 	.word	0x0000043e

00008ae4 <__eqdf2>:
__nedf2():
    8ae4:	b5f0      	push	{r4, r5, r6, r7, lr}
    8ae6:	464f      	mov	r7, r9
    8ae8:	4646      	mov	r6, r8
    8aea:	46d6      	mov	lr, sl
    8aec:	4684      	mov	ip, r0
    8aee:	b5c0      	push	{r6, r7, lr}
    8af0:	4680      	mov	r8, r0
    8af2:	4e19      	ldr	r6, [pc, #100]	; (8b58 <__eqdf2+0x74>)
    8af4:	0318      	lsls	r0, r3, #12
    8af6:	030f      	lsls	r7, r1, #12
    8af8:	004d      	lsls	r5, r1, #1
    8afa:	0b00      	lsrs	r0, r0, #12
    8afc:	005c      	lsls	r4, r3, #1
    8afe:	4682      	mov	sl, r0
    8b00:	0b3f      	lsrs	r7, r7, #12
    8b02:	0d6d      	lsrs	r5, r5, #21
    8b04:	0fc9      	lsrs	r1, r1, #31
    8b06:	4691      	mov	r9, r2
    8b08:	0d64      	lsrs	r4, r4, #21
    8b0a:	0fdb      	lsrs	r3, r3, #31
    8b0c:	2001      	movs	r0, #1
    8b0e:	42b5      	cmp	r5, r6
    8b10:	d00a      	beq.n	8b28 <__eqdf2+0x44>
    8b12:	42b4      	cmp	r4, r6
    8b14:	d003      	beq.n	8b1e <__eqdf2+0x3a>
    8b16:	42a5      	cmp	r5, r4
    8b18:	d101      	bne.n	8b1e <__eqdf2+0x3a>
    8b1a:	4557      	cmp	r7, sl
    8b1c:	d00c      	beq.n	8b38 <__eqdf2+0x54>
    8b1e:	bc1c      	pop	{r2, r3, r4}
    8b20:	4690      	mov	r8, r2
    8b22:	4699      	mov	r9, r3
    8b24:	46a2      	mov	sl, r4
    8b26:	bdf0      	pop	{r4, r5, r6, r7, pc}
    8b28:	4666      	mov	r6, ip
    8b2a:	433e      	orrs	r6, r7
    8b2c:	d1f7      	bne.n	8b1e <__eqdf2+0x3a>
    8b2e:	42ac      	cmp	r4, r5
    8b30:	d1f5      	bne.n	8b1e <__eqdf2+0x3a>
    8b32:	4654      	mov	r4, sl
    8b34:	4314      	orrs	r4, r2
    8b36:	d1f2      	bne.n	8b1e <__eqdf2+0x3a>
    8b38:	2001      	movs	r0, #1
    8b3a:	45c8      	cmp	r8, r9
    8b3c:	d1ef      	bne.n	8b1e <__eqdf2+0x3a>
    8b3e:	4299      	cmp	r1, r3
    8b40:	d007      	beq.n	8b52 <__eqdf2+0x6e>
    8b42:	2d00      	cmp	r5, #0
    8b44:	d1eb      	bne.n	8b1e <__eqdf2+0x3a>
    8b46:	4663      	mov	r3, ip
    8b48:	431f      	orrs	r7, r3
    8b4a:	0038      	movs	r0, r7
    8b4c:	1e47      	subs	r7, r0, #1
    8b4e:	41b8      	sbcs	r0, r7
    8b50:	e7e5      	b.n	8b1e <__eqdf2+0x3a>
    8b52:	2000      	movs	r0, #0
    8b54:	e7e3      	b.n	8b1e <__eqdf2+0x3a>
    8b56:	46c0      	nop			; (mov r8, r8)
    8b58:	000007ff 	.word	0x000007ff

00008b5c <__gedf2>:
__gedf2():
    8b5c:	b5f0      	push	{r4, r5, r6, r7, lr}
    8b5e:	464f      	mov	r7, r9
    8b60:	4646      	mov	r6, r8
    8b62:	46d6      	mov	lr, sl
    8b64:	004d      	lsls	r5, r1, #1
    8b66:	b5c0      	push	{r6, r7, lr}
    8b68:	030e      	lsls	r6, r1, #12
    8b6a:	0fc9      	lsrs	r1, r1, #31
    8b6c:	468a      	mov	sl, r1
    8b6e:	492c      	ldr	r1, [pc, #176]	; (8c20 <__gedf2+0xc4>)
    8b70:	031f      	lsls	r7, r3, #12
    8b72:	005c      	lsls	r4, r3, #1
    8b74:	4680      	mov	r8, r0
    8b76:	0b36      	lsrs	r6, r6, #12
    8b78:	0d6d      	lsrs	r5, r5, #21
    8b7a:	4691      	mov	r9, r2
    8b7c:	0b3f      	lsrs	r7, r7, #12
    8b7e:	0d64      	lsrs	r4, r4, #21
    8b80:	0fdb      	lsrs	r3, r3, #31
    8b82:	428d      	cmp	r5, r1
    8b84:	d01e      	beq.n	8bc4 <__gedf2+0x68>
    8b86:	428c      	cmp	r4, r1
    8b88:	d016      	beq.n	8bb8 <__gedf2+0x5c>
    8b8a:	2d00      	cmp	r5, #0
    8b8c:	d11e      	bne.n	8bcc <__gedf2+0x70>
    8b8e:	4330      	orrs	r0, r6
    8b90:	4684      	mov	ip, r0
    8b92:	2c00      	cmp	r4, #0
    8b94:	d101      	bne.n	8b9a <__gedf2+0x3e>
    8b96:	433a      	orrs	r2, r7
    8b98:	d023      	beq.n	8be2 <__gedf2+0x86>
    8b9a:	4662      	mov	r2, ip
    8b9c:	2a00      	cmp	r2, #0
    8b9e:	d01a      	beq.n	8bd6 <__gedf2+0x7a>
    8ba0:	459a      	cmp	sl, r3
    8ba2:	d029      	beq.n	8bf8 <__gedf2+0x9c>
    8ba4:	4651      	mov	r1, sl
    8ba6:	2002      	movs	r0, #2
    8ba8:	3901      	subs	r1, #1
    8baa:	4008      	ands	r0, r1
    8bac:	3801      	subs	r0, #1
    8bae:	bc1c      	pop	{r2, r3, r4}
    8bb0:	4690      	mov	r8, r2
    8bb2:	4699      	mov	r9, r3
    8bb4:	46a2      	mov	sl, r4
    8bb6:	bdf0      	pop	{r4, r5, r6, r7, pc}
    8bb8:	0039      	movs	r1, r7
    8bba:	4311      	orrs	r1, r2
    8bbc:	d0e5      	beq.n	8b8a <__gedf2+0x2e>
    8bbe:	2002      	movs	r0, #2
    8bc0:	4240      	negs	r0, r0
    8bc2:	e7f4      	b.n	8bae <__gedf2+0x52>
    8bc4:	4330      	orrs	r0, r6
    8bc6:	d1fa      	bne.n	8bbe <__gedf2+0x62>
    8bc8:	42ac      	cmp	r4, r5
    8bca:	d00f      	beq.n	8bec <__gedf2+0x90>
    8bcc:	2c00      	cmp	r4, #0
    8bce:	d10f      	bne.n	8bf0 <__gedf2+0x94>
    8bd0:	433a      	orrs	r2, r7
    8bd2:	d0e7      	beq.n	8ba4 <__gedf2+0x48>
    8bd4:	e00c      	b.n	8bf0 <__gedf2+0x94>
    8bd6:	2201      	movs	r2, #1
    8bd8:	3b01      	subs	r3, #1
    8bda:	4393      	bics	r3, r2
    8bdc:	0018      	movs	r0, r3
    8bde:	3001      	adds	r0, #1
    8be0:	e7e5      	b.n	8bae <__gedf2+0x52>
    8be2:	4663      	mov	r3, ip
    8be4:	2000      	movs	r0, #0
    8be6:	2b00      	cmp	r3, #0
    8be8:	d0e1      	beq.n	8bae <__gedf2+0x52>
    8bea:	e7db      	b.n	8ba4 <__gedf2+0x48>
    8bec:	433a      	orrs	r2, r7
    8bee:	d1e6      	bne.n	8bbe <__gedf2+0x62>
    8bf0:	459a      	cmp	sl, r3
    8bf2:	d1d7      	bne.n	8ba4 <__gedf2+0x48>
    8bf4:	42a5      	cmp	r5, r4
    8bf6:	dcd5      	bgt.n	8ba4 <__gedf2+0x48>
    8bf8:	42a5      	cmp	r5, r4
    8bfa:	db05      	blt.n	8c08 <__gedf2+0xac>
    8bfc:	42be      	cmp	r6, r7
    8bfe:	d8d1      	bhi.n	8ba4 <__gedf2+0x48>
    8c00:	d008      	beq.n	8c14 <__gedf2+0xb8>
    8c02:	2000      	movs	r0, #0
    8c04:	42be      	cmp	r6, r7
    8c06:	d2d2      	bcs.n	8bae <__gedf2+0x52>
    8c08:	4650      	mov	r0, sl
    8c0a:	2301      	movs	r3, #1
    8c0c:	3801      	subs	r0, #1
    8c0e:	4398      	bics	r0, r3
    8c10:	3001      	adds	r0, #1
    8c12:	e7cc      	b.n	8bae <__gedf2+0x52>
    8c14:	45c8      	cmp	r8, r9
    8c16:	d8c5      	bhi.n	8ba4 <__gedf2+0x48>
    8c18:	2000      	movs	r0, #0
    8c1a:	45c8      	cmp	r8, r9
    8c1c:	d3f4      	bcc.n	8c08 <__gedf2+0xac>
    8c1e:	e7c6      	b.n	8bae <__gedf2+0x52>
    8c20:	000007ff 	.word	0x000007ff

00008c24 <__ledf2>:
__ledf2():
    8c24:	b5f0      	push	{r4, r5, r6, r7, lr}
    8c26:	464f      	mov	r7, r9
    8c28:	4646      	mov	r6, r8
    8c2a:	46d6      	mov	lr, sl
    8c2c:	004d      	lsls	r5, r1, #1
    8c2e:	b5c0      	push	{r6, r7, lr}
    8c30:	030e      	lsls	r6, r1, #12
    8c32:	0fc9      	lsrs	r1, r1, #31
    8c34:	468a      	mov	sl, r1
    8c36:	492e      	ldr	r1, [pc, #184]	; (8cf0 <__ledf2+0xcc>)
    8c38:	031f      	lsls	r7, r3, #12
    8c3a:	005c      	lsls	r4, r3, #1
    8c3c:	4680      	mov	r8, r0
    8c3e:	0b36      	lsrs	r6, r6, #12
    8c40:	0d6d      	lsrs	r5, r5, #21
    8c42:	4691      	mov	r9, r2
    8c44:	0b3f      	lsrs	r7, r7, #12
    8c46:	0d64      	lsrs	r4, r4, #21
    8c48:	0fdb      	lsrs	r3, r3, #31
    8c4a:	428d      	cmp	r5, r1
    8c4c:	d018      	beq.n	8c80 <__ledf2+0x5c>
    8c4e:	428c      	cmp	r4, r1
    8c50:	d011      	beq.n	8c76 <__ledf2+0x52>
    8c52:	2d00      	cmp	r5, #0
    8c54:	d118      	bne.n	8c88 <__ledf2+0x64>
    8c56:	4330      	orrs	r0, r6
    8c58:	4684      	mov	ip, r0
    8c5a:	2c00      	cmp	r4, #0
    8c5c:	d11e      	bne.n	8c9c <__ledf2+0x78>
    8c5e:	433a      	orrs	r2, r7
    8c60:	d11c      	bne.n	8c9c <__ledf2+0x78>
    8c62:	4663      	mov	r3, ip
    8c64:	2000      	movs	r0, #0
    8c66:	2b00      	cmp	r3, #0
    8c68:	d030      	beq.n	8ccc <__ledf2+0xa8>
    8c6a:	4651      	mov	r1, sl
    8c6c:	2002      	movs	r0, #2
    8c6e:	3901      	subs	r1, #1
    8c70:	4008      	ands	r0, r1
    8c72:	3801      	subs	r0, #1
    8c74:	e02a      	b.n	8ccc <__ledf2+0xa8>
    8c76:	0039      	movs	r1, r7
    8c78:	4311      	orrs	r1, r2
    8c7a:	d0ea      	beq.n	8c52 <__ledf2+0x2e>
    8c7c:	2002      	movs	r0, #2
    8c7e:	e025      	b.n	8ccc <__ledf2+0xa8>
    8c80:	4330      	orrs	r0, r6
    8c82:	d1fb      	bne.n	8c7c <__ledf2+0x58>
    8c84:	42ac      	cmp	r4, r5
    8c86:	d026      	beq.n	8cd6 <__ledf2+0xb2>
    8c88:	2c00      	cmp	r4, #0
    8c8a:	d126      	bne.n	8cda <__ledf2+0xb6>
    8c8c:	433a      	orrs	r2, r7
    8c8e:	d124      	bne.n	8cda <__ledf2+0xb6>
    8c90:	4651      	mov	r1, sl
    8c92:	2002      	movs	r0, #2
    8c94:	3901      	subs	r1, #1
    8c96:	4008      	ands	r0, r1
    8c98:	3801      	subs	r0, #1
    8c9a:	e017      	b.n	8ccc <__ledf2+0xa8>
    8c9c:	4662      	mov	r2, ip
    8c9e:	2a00      	cmp	r2, #0
    8ca0:	d00f      	beq.n	8cc2 <__ledf2+0x9e>
    8ca2:	459a      	cmp	sl, r3
    8ca4:	d1e1      	bne.n	8c6a <__ledf2+0x46>
    8ca6:	42a5      	cmp	r5, r4
    8ca8:	db05      	blt.n	8cb6 <__ledf2+0x92>
    8caa:	42be      	cmp	r6, r7
    8cac:	d8dd      	bhi.n	8c6a <__ledf2+0x46>
    8cae:	d019      	beq.n	8ce4 <__ledf2+0xc0>
    8cb0:	2000      	movs	r0, #0
    8cb2:	42be      	cmp	r6, r7
    8cb4:	d20a      	bcs.n	8ccc <__ledf2+0xa8>
    8cb6:	4650      	mov	r0, sl
    8cb8:	2301      	movs	r3, #1
    8cba:	3801      	subs	r0, #1
    8cbc:	4398      	bics	r0, r3
    8cbe:	3001      	adds	r0, #1
    8cc0:	e004      	b.n	8ccc <__ledf2+0xa8>
    8cc2:	2201      	movs	r2, #1
    8cc4:	3b01      	subs	r3, #1
    8cc6:	4393      	bics	r3, r2
    8cc8:	0018      	movs	r0, r3
    8cca:	3001      	adds	r0, #1
    8ccc:	bc1c      	pop	{r2, r3, r4}
    8cce:	4690      	mov	r8, r2
    8cd0:	4699      	mov	r9, r3
    8cd2:	46a2      	mov	sl, r4
    8cd4:	bdf0      	pop	{r4, r5, r6, r7, pc}
    8cd6:	433a      	orrs	r2, r7
    8cd8:	d1d0      	bne.n	8c7c <__ledf2+0x58>
    8cda:	459a      	cmp	sl, r3
    8cdc:	d1c5      	bne.n	8c6a <__ledf2+0x46>
    8cde:	42a5      	cmp	r5, r4
    8ce0:	dcc3      	bgt.n	8c6a <__ledf2+0x46>
    8ce2:	e7e0      	b.n	8ca6 <__ledf2+0x82>
    8ce4:	45c8      	cmp	r8, r9
    8ce6:	d8c0      	bhi.n	8c6a <__ledf2+0x46>
    8ce8:	2000      	movs	r0, #0
    8cea:	45c8      	cmp	r8, r9
    8cec:	d3e3      	bcc.n	8cb6 <__ledf2+0x92>
    8cee:	e7ed      	b.n	8ccc <__ledf2+0xa8>
    8cf0:	000007ff 	.word	0x000007ff

00008cf4 <__aeabi_dmul>:
__aeabi_dmul():
    8cf4:	b5f0      	push	{r4, r5, r6, r7, lr}
    8cf6:	4657      	mov	r7, sl
    8cf8:	46de      	mov	lr, fp
    8cfa:	464e      	mov	r6, r9
    8cfc:	4645      	mov	r5, r8
    8cfe:	b5e0      	push	{r5, r6, r7, lr}
    8d00:	4683      	mov	fp, r0
    8d02:	0006      	movs	r6, r0
    8d04:	030f      	lsls	r7, r1, #12
    8d06:	0048      	lsls	r0, r1, #1
    8d08:	b087      	sub	sp, #28
    8d0a:	4692      	mov	sl, r2
    8d0c:	001d      	movs	r5, r3
    8d0e:	0b3f      	lsrs	r7, r7, #12
    8d10:	0d40      	lsrs	r0, r0, #21
    8d12:	0fcc      	lsrs	r4, r1, #31
    8d14:	2800      	cmp	r0, #0
    8d16:	d100      	bne.n	8d1a <__aeabi_dmul+0x26>
    8d18:	e06f      	b.n	8dfa <__aeabi_dmul+0x106>
    8d1a:	4bde      	ldr	r3, [pc, #888]	; (9094 <__aeabi_dmul+0x3a0>)
    8d1c:	4298      	cmp	r0, r3
    8d1e:	d038      	beq.n	8d92 <__aeabi_dmul+0x9e>
    8d20:	2380      	movs	r3, #128	; 0x80
    8d22:	00ff      	lsls	r7, r7, #3
    8d24:	041b      	lsls	r3, r3, #16
    8d26:	431f      	orrs	r7, r3
    8d28:	0f73      	lsrs	r3, r6, #29
    8d2a:	433b      	orrs	r3, r7
    8d2c:	9301      	str	r3, [sp, #4]
    8d2e:	4bda      	ldr	r3, [pc, #872]	; (9098 <__aeabi_dmul+0x3a4>)
    8d30:	2700      	movs	r7, #0
    8d32:	4699      	mov	r9, r3
    8d34:	2300      	movs	r3, #0
    8d36:	469b      	mov	fp, r3
    8d38:	00f6      	lsls	r6, r6, #3
    8d3a:	4481      	add	r9, r0
    8d3c:	032b      	lsls	r3, r5, #12
    8d3e:	0069      	lsls	r1, r5, #1
    8d40:	0b1b      	lsrs	r3, r3, #12
    8d42:	4652      	mov	r2, sl
    8d44:	4698      	mov	r8, r3
    8d46:	0d49      	lsrs	r1, r1, #21
    8d48:	0fed      	lsrs	r5, r5, #31
    8d4a:	2900      	cmp	r1, #0
    8d4c:	d100      	bne.n	8d50 <__aeabi_dmul+0x5c>
    8d4e:	e085      	b.n	8e5c <__aeabi_dmul+0x168>
    8d50:	4bd0      	ldr	r3, [pc, #832]	; (9094 <__aeabi_dmul+0x3a0>)
    8d52:	4299      	cmp	r1, r3
    8d54:	d100      	bne.n	8d58 <__aeabi_dmul+0x64>
    8d56:	e073      	b.n	8e40 <__aeabi_dmul+0x14c>
    8d58:	4643      	mov	r3, r8
    8d5a:	00da      	lsls	r2, r3, #3
    8d5c:	2380      	movs	r3, #128	; 0x80
    8d5e:	041b      	lsls	r3, r3, #16
    8d60:	4313      	orrs	r3, r2
    8d62:	4652      	mov	r2, sl
    8d64:	48cc      	ldr	r0, [pc, #816]	; (9098 <__aeabi_dmul+0x3a4>)
    8d66:	0f52      	lsrs	r2, r2, #29
    8d68:	4684      	mov	ip, r0
    8d6a:	4313      	orrs	r3, r2
    8d6c:	4652      	mov	r2, sl
    8d6e:	2000      	movs	r0, #0
    8d70:	4461      	add	r1, ip
    8d72:	00d2      	lsls	r2, r2, #3
    8d74:	4489      	add	r9, r1
    8d76:	0021      	movs	r1, r4
    8d78:	4069      	eors	r1, r5
    8d7a:	9100      	str	r1, [sp, #0]
    8d7c:	468c      	mov	ip, r1
    8d7e:	2101      	movs	r1, #1
    8d80:	4449      	add	r1, r9
    8d82:	468a      	mov	sl, r1
    8d84:	2f0f      	cmp	r7, #15
    8d86:	d900      	bls.n	8d8a <__aeabi_dmul+0x96>
    8d88:	e090      	b.n	8eac <__aeabi_dmul+0x1b8>
    8d8a:	49c4      	ldr	r1, [pc, #784]	; (909c <__aeabi_dmul+0x3a8>)
    8d8c:	00bf      	lsls	r7, r7, #2
    8d8e:	59cf      	ldr	r7, [r1, r7]
    8d90:	46bf      	mov	pc, r7
    8d92:	465b      	mov	r3, fp
    8d94:	433b      	orrs	r3, r7
    8d96:	9301      	str	r3, [sp, #4]
    8d98:	d000      	beq.n	8d9c <__aeabi_dmul+0xa8>
    8d9a:	e16a      	b.n	9072 <__aeabi_dmul+0x37e>
    8d9c:	2302      	movs	r3, #2
    8d9e:	2708      	movs	r7, #8
    8da0:	2600      	movs	r6, #0
    8da2:	4681      	mov	r9, r0
    8da4:	469b      	mov	fp, r3
    8da6:	e7c9      	b.n	8d3c <__aeabi_dmul+0x48>
    8da8:	0032      	movs	r2, r6
    8daa:	4658      	mov	r0, fp
    8dac:	9b01      	ldr	r3, [sp, #4]
    8dae:	4661      	mov	r1, ip
    8db0:	9100      	str	r1, [sp, #0]
    8db2:	2802      	cmp	r0, #2
    8db4:	d100      	bne.n	8db8 <__aeabi_dmul+0xc4>
    8db6:	e075      	b.n	8ea4 <__aeabi_dmul+0x1b0>
    8db8:	2803      	cmp	r0, #3
    8dba:	d100      	bne.n	8dbe <__aeabi_dmul+0xca>
    8dbc:	e1fe      	b.n	91bc <__aeabi_dmul+0x4c8>
    8dbe:	2801      	cmp	r0, #1
    8dc0:	d000      	beq.n	8dc4 <__aeabi_dmul+0xd0>
    8dc2:	e12c      	b.n	901e <__aeabi_dmul+0x32a>
    8dc4:	2300      	movs	r3, #0
    8dc6:	2700      	movs	r7, #0
    8dc8:	2600      	movs	r6, #0
    8dca:	2500      	movs	r5, #0
    8dcc:	033f      	lsls	r7, r7, #12
    8dce:	0d2a      	lsrs	r2, r5, #20
    8dd0:	0b3f      	lsrs	r7, r7, #12
    8dd2:	48b3      	ldr	r0, [pc, #716]	; (90a0 <__aeabi_dmul+0x3ac>)
    8dd4:	0512      	lsls	r2, r2, #20
    8dd6:	433a      	orrs	r2, r7
    8dd8:	4002      	ands	r2, r0
    8dda:	051b      	lsls	r3, r3, #20
    8ddc:	4313      	orrs	r3, r2
    8dde:	9a00      	ldr	r2, [sp, #0]
    8de0:	005b      	lsls	r3, r3, #1
    8de2:	07d1      	lsls	r1, r2, #31
    8de4:	085b      	lsrs	r3, r3, #1
    8de6:	430b      	orrs	r3, r1
    8de8:	0030      	movs	r0, r6
    8dea:	0019      	movs	r1, r3
    8dec:	b007      	add	sp, #28
    8dee:	bc3c      	pop	{r2, r3, r4, r5}
    8df0:	4690      	mov	r8, r2
    8df2:	4699      	mov	r9, r3
    8df4:	46a2      	mov	sl, r4
    8df6:	46ab      	mov	fp, r5
    8df8:	bdf0      	pop	{r4, r5, r6, r7, pc}
    8dfa:	465b      	mov	r3, fp
    8dfc:	433b      	orrs	r3, r7
    8dfe:	9301      	str	r3, [sp, #4]
    8e00:	d100      	bne.n	8e04 <__aeabi_dmul+0x110>
    8e02:	e12f      	b.n	9064 <__aeabi_dmul+0x370>
    8e04:	2f00      	cmp	r7, #0
    8e06:	d100      	bne.n	8e0a <__aeabi_dmul+0x116>
    8e08:	e1a5      	b.n	9156 <__aeabi_dmul+0x462>
    8e0a:	0038      	movs	r0, r7
    8e0c:	f000 fec0 	bl	9b90 <__clzsi2>
    8e10:	0003      	movs	r3, r0
    8e12:	3b0b      	subs	r3, #11
    8e14:	2b1c      	cmp	r3, #28
    8e16:	dd00      	ble.n	8e1a <__aeabi_dmul+0x126>
    8e18:	e196      	b.n	9148 <__aeabi_dmul+0x454>
    8e1a:	221d      	movs	r2, #29
    8e1c:	1ad3      	subs	r3, r2, r3
    8e1e:	465a      	mov	r2, fp
    8e20:	0001      	movs	r1, r0
    8e22:	40da      	lsrs	r2, r3
    8e24:	465e      	mov	r6, fp
    8e26:	3908      	subs	r1, #8
    8e28:	408f      	lsls	r7, r1
    8e2a:	0013      	movs	r3, r2
    8e2c:	408e      	lsls	r6, r1
    8e2e:	433b      	orrs	r3, r7
    8e30:	9301      	str	r3, [sp, #4]
    8e32:	4b9c      	ldr	r3, [pc, #624]	; (90a4 <__aeabi_dmul+0x3b0>)
    8e34:	2700      	movs	r7, #0
    8e36:	1a1b      	subs	r3, r3, r0
    8e38:	4699      	mov	r9, r3
    8e3a:	2300      	movs	r3, #0
    8e3c:	469b      	mov	fp, r3
    8e3e:	e77d      	b.n	8d3c <__aeabi_dmul+0x48>
    8e40:	4641      	mov	r1, r8
    8e42:	4653      	mov	r3, sl
    8e44:	430b      	orrs	r3, r1
    8e46:	4993      	ldr	r1, [pc, #588]	; (9094 <__aeabi_dmul+0x3a0>)
    8e48:	468c      	mov	ip, r1
    8e4a:	44e1      	add	r9, ip
    8e4c:	2b00      	cmp	r3, #0
    8e4e:	d000      	beq.n	8e52 <__aeabi_dmul+0x15e>
    8e50:	e11a      	b.n	9088 <__aeabi_dmul+0x394>
    8e52:	2202      	movs	r2, #2
    8e54:	2002      	movs	r0, #2
    8e56:	4317      	orrs	r7, r2
    8e58:	2200      	movs	r2, #0
    8e5a:	e78c      	b.n	8d76 <__aeabi_dmul+0x82>
    8e5c:	4313      	orrs	r3, r2
    8e5e:	d100      	bne.n	8e62 <__aeabi_dmul+0x16e>
    8e60:	e10d      	b.n	907e <__aeabi_dmul+0x38a>
    8e62:	4643      	mov	r3, r8
    8e64:	2b00      	cmp	r3, #0
    8e66:	d100      	bne.n	8e6a <__aeabi_dmul+0x176>
    8e68:	e181      	b.n	916e <__aeabi_dmul+0x47a>
    8e6a:	4640      	mov	r0, r8
    8e6c:	f000 fe90 	bl	9b90 <__clzsi2>
    8e70:	0002      	movs	r2, r0
    8e72:	3a0b      	subs	r2, #11
    8e74:	2a1c      	cmp	r2, #28
    8e76:	dd00      	ble.n	8e7a <__aeabi_dmul+0x186>
    8e78:	e172      	b.n	9160 <__aeabi_dmul+0x46c>
    8e7a:	0001      	movs	r1, r0
    8e7c:	4643      	mov	r3, r8
    8e7e:	3908      	subs	r1, #8
    8e80:	408b      	lsls	r3, r1
    8e82:	4698      	mov	r8, r3
    8e84:	231d      	movs	r3, #29
    8e86:	1a9a      	subs	r2, r3, r2
    8e88:	4653      	mov	r3, sl
    8e8a:	40d3      	lsrs	r3, r2
    8e8c:	001a      	movs	r2, r3
    8e8e:	4643      	mov	r3, r8
    8e90:	4313      	orrs	r3, r2
    8e92:	4652      	mov	r2, sl
    8e94:	408a      	lsls	r2, r1
    8e96:	4649      	mov	r1, r9
    8e98:	1a08      	subs	r0, r1, r0
    8e9a:	4982      	ldr	r1, [pc, #520]	; (90a4 <__aeabi_dmul+0x3b0>)
    8e9c:	4689      	mov	r9, r1
    8e9e:	4481      	add	r9, r0
    8ea0:	2000      	movs	r0, #0
    8ea2:	e768      	b.n	8d76 <__aeabi_dmul+0x82>
    8ea4:	4b7b      	ldr	r3, [pc, #492]	; (9094 <__aeabi_dmul+0x3a0>)
    8ea6:	2700      	movs	r7, #0
    8ea8:	2600      	movs	r6, #0
    8eaa:	e78e      	b.n	8dca <__aeabi_dmul+0xd6>
    8eac:	0c14      	lsrs	r4, r2, #16
    8eae:	0412      	lsls	r2, r2, #16
    8eb0:	0c12      	lsrs	r2, r2, #16
    8eb2:	0011      	movs	r1, r2
    8eb4:	0c37      	lsrs	r7, r6, #16
    8eb6:	0436      	lsls	r6, r6, #16
    8eb8:	0c35      	lsrs	r5, r6, #16
    8eba:	4379      	muls	r1, r7
    8ebc:	0028      	movs	r0, r5
    8ebe:	468c      	mov	ip, r1
    8ec0:	002e      	movs	r6, r5
    8ec2:	4360      	muls	r0, r4
    8ec4:	4460      	add	r0, ip
    8ec6:	4683      	mov	fp, r0
    8ec8:	4356      	muls	r6, r2
    8eca:	0021      	movs	r1, r4
    8ecc:	0c30      	lsrs	r0, r6, #16
    8ece:	4680      	mov	r8, r0
    8ed0:	4658      	mov	r0, fp
    8ed2:	4379      	muls	r1, r7
    8ed4:	4440      	add	r0, r8
    8ed6:	9102      	str	r1, [sp, #8]
    8ed8:	4584      	cmp	ip, r0
    8eda:	d906      	bls.n	8eea <__aeabi_dmul+0x1f6>
    8edc:	4688      	mov	r8, r1
    8ede:	2180      	movs	r1, #128	; 0x80
    8ee0:	0249      	lsls	r1, r1, #9
    8ee2:	468c      	mov	ip, r1
    8ee4:	44e0      	add	r8, ip
    8ee6:	4641      	mov	r1, r8
    8ee8:	9102      	str	r1, [sp, #8]
    8eea:	0436      	lsls	r6, r6, #16
    8eec:	0c01      	lsrs	r1, r0, #16
    8eee:	0c36      	lsrs	r6, r6, #16
    8ef0:	0400      	lsls	r0, r0, #16
    8ef2:	468b      	mov	fp, r1
    8ef4:	1981      	adds	r1, r0, r6
    8ef6:	0c1e      	lsrs	r6, r3, #16
    8ef8:	041b      	lsls	r3, r3, #16
    8efa:	0c1b      	lsrs	r3, r3, #16
    8efc:	9103      	str	r1, [sp, #12]
    8efe:	0019      	movs	r1, r3
    8f00:	4379      	muls	r1, r7
    8f02:	468c      	mov	ip, r1
    8f04:	0028      	movs	r0, r5
    8f06:	4375      	muls	r5, r6
    8f08:	4465      	add	r5, ip
    8f0a:	46a8      	mov	r8, r5
    8f0c:	4358      	muls	r0, r3
    8f0e:	0c05      	lsrs	r5, r0, #16
    8f10:	4445      	add	r5, r8
    8f12:	4377      	muls	r7, r6
    8f14:	42a9      	cmp	r1, r5
    8f16:	d903      	bls.n	8f20 <__aeabi_dmul+0x22c>
    8f18:	2180      	movs	r1, #128	; 0x80
    8f1a:	0249      	lsls	r1, r1, #9
    8f1c:	468c      	mov	ip, r1
    8f1e:	4467      	add	r7, ip
    8f20:	0c29      	lsrs	r1, r5, #16
    8f22:	468c      	mov	ip, r1
    8f24:	0039      	movs	r1, r7
    8f26:	0400      	lsls	r0, r0, #16
    8f28:	0c00      	lsrs	r0, r0, #16
    8f2a:	042d      	lsls	r5, r5, #16
    8f2c:	182d      	adds	r5, r5, r0
    8f2e:	4461      	add	r1, ip
    8f30:	44ab      	add	fp, r5
    8f32:	9105      	str	r1, [sp, #20]
    8f34:	4659      	mov	r1, fp
    8f36:	9104      	str	r1, [sp, #16]
    8f38:	9901      	ldr	r1, [sp, #4]
    8f3a:	040f      	lsls	r7, r1, #16
    8f3c:	0c3f      	lsrs	r7, r7, #16
    8f3e:	0c08      	lsrs	r0, r1, #16
    8f40:	0039      	movs	r1, r7
    8f42:	4351      	muls	r1, r2
    8f44:	4342      	muls	r2, r0
    8f46:	4690      	mov	r8, r2
    8f48:	0002      	movs	r2, r0
    8f4a:	468c      	mov	ip, r1
    8f4c:	0c09      	lsrs	r1, r1, #16
    8f4e:	468b      	mov	fp, r1
    8f50:	4362      	muls	r2, r4
    8f52:	437c      	muls	r4, r7
    8f54:	4444      	add	r4, r8
    8f56:	445c      	add	r4, fp
    8f58:	45a0      	cmp	r8, r4
    8f5a:	d903      	bls.n	8f64 <__aeabi_dmul+0x270>
    8f5c:	2180      	movs	r1, #128	; 0x80
    8f5e:	0249      	lsls	r1, r1, #9
    8f60:	4688      	mov	r8, r1
    8f62:	4442      	add	r2, r8
    8f64:	0c21      	lsrs	r1, r4, #16
    8f66:	4688      	mov	r8, r1
    8f68:	4661      	mov	r1, ip
    8f6a:	0409      	lsls	r1, r1, #16
    8f6c:	0c09      	lsrs	r1, r1, #16
    8f6e:	468c      	mov	ip, r1
    8f70:	0039      	movs	r1, r7
    8f72:	4359      	muls	r1, r3
    8f74:	4343      	muls	r3, r0
    8f76:	4370      	muls	r0, r6
    8f78:	437e      	muls	r6, r7
    8f7a:	0c0f      	lsrs	r7, r1, #16
    8f7c:	18f6      	adds	r6, r6, r3
    8f7e:	0424      	lsls	r4, r4, #16
    8f80:	19be      	adds	r6, r7, r6
    8f82:	4464      	add	r4, ip
    8f84:	4442      	add	r2, r8
    8f86:	468c      	mov	ip, r1
    8f88:	42b3      	cmp	r3, r6
    8f8a:	d903      	bls.n	8f94 <__aeabi_dmul+0x2a0>
    8f8c:	2380      	movs	r3, #128	; 0x80
    8f8e:	025b      	lsls	r3, r3, #9
    8f90:	4698      	mov	r8, r3
    8f92:	4440      	add	r0, r8
    8f94:	9b02      	ldr	r3, [sp, #8]
    8f96:	4661      	mov	r1, ip
    8f98:	4698      	mov	r8, r3
    8f9a:	9b04      	ldr	r3, [sp, #16]
    8f9c:	0437      	lsls	r7, r6, #16
    8f9e:	4443      	add	r3, r8
    8fa0:	469b      	mov	fp, r3
    8fa2:	45ab      	cmp	fp, r5
    8fa4:	41ad      	sbcs	r5, r5
    8fa6:	426b      	negs	r3, r5
    8fa8:	040d      	lsls	r5, r1, #16
    8faa:	9905      	ldr	r1, [sp, #20]
    8fac:	0c2d      	lsrs	r5, r5, #16
    8fae:	468c      	mov	ip, r1
    8fb0:	197f      	adds	r7, r7, r5
    8fb2:	4467      	add	r7, ip
    8fb4:	18fd      	adds	r5, r7, r3
    8fb6:	46a8      	mov	r8, r5
    8fb8:	465d      	mov	r5, fp
    8fba:	192d      	adds	r5, r5, r4
    8fbc:	42a5      	cmp	r5, r4
    8fbe:	41a4      	sbcs	r4, r4
    8fc0:	4693      	mov	fp, r2
    8fc2:	4264      	negs	r4, r4
    8fc4:	46a4      	mov	ip, r4
    8fc6:	44c3      	add	fp, r8
    8fc8:	44dc      	add	ip, fp
    8fca:	428f      	cmp	r7, r1
    8fcc:	41bf      	sbcs	r7, r7
    8fce:	4598      	cmp	r8, r3
    8fd0:	419b      	sbcs	r3, r3
    8fd2:	4593      	cmp	fp, r2
    8fd4:	4192      	sbcs	r2, r2
    8fd6:	45a4      	cmp	ip, r4
    8fd8:	41a4      	sbcs	r4, r4
    8fda:	425b      	negs	r3, r3
    8fdc:	427f      	negs	r7, r7
    8fde:	431f      	orrs	r7, r3
    8fe0:	0c36      	lsrs	r6, r6, #16
    8fe2:	4252      	negs	r2, r2
    8fe4:	4264      	negs	r4, r4
    8fe6:	19bf      	adds	r7, r7, r6
    8fe8:	4322      	orrs	r2, r4
    8fea:	18bf      	adds	r7, r7, r2
    8fec:	4662      	mov	r2, ip
    8fee:	1838      	adds	r0, r7, r0
    8ff0:	0243      	lsls	r3, r0, #9
    8ff2:	0dd2      	lsrs	r2, r2, #23
    8ff4:	9903      	ldr	r1, [sp, #12]
    8ff6:	4313      	orrs	r3, r2
    8ff8:	026a      	lsls	r2, r5, #9
    8ffa:	430a      	orrs	r2, r1
    8ffc:	1e50      	subs	r0, r2, #1
    8ffe:	4182      	sbcs	r2, r0
    9000:	4661      	mov	r1, ip
    9002:	0ded      	lsrs	r5, r5, #23
    9004:	432a      	orrs	r2, r5
    9006:	024e      	lsls	r6, r1, #9
    9008:	4332      	orrs	r2, r6
    900a:	01d9      	lsls	r1, r3, #7
    900c:	d400      	bmi.n	9010 <__aeabi_dmul+0x31c>
    900e:	e0b3      	b.n	9178 <__aeabi_dmul+0x484>
    9010:	2601      	movs	r6, #1
    9012:	0850      	lsrs	r0, r2, #1
    9014:	4032      	ands	r2, r6
    9016:	4302      	orrs	r2, r0
    9018:	07de      	lsls	r6, r3, #31
    901a:	4332      	orrs	r2, r6
    901c:	085b      	lsrs	r3, r3, #1
    901e:	4c22      	ldr	r4, [pc, #136]	; (90a8 <__aeabi_dmul+0x3b4>)
    9020:	4454      	add	r4, sl
    9022:	2c00      	cmp	r4, #0
    9024:	dd62      	ble.n	90ec <__aeabi_dmul+0x3f8>
    9026:	0751      	lsls	r1, r2, #29
    9028:	d009      	beq.n	903e <__aeabi_dmul+0x34a>
    902a:	200f      	movs	r0, #15
    902c:	4010      	ands	r0, r2
    902e:	2804      	cmp	r0, #4
    9030:	d005      	beq.n	903e <__aeabi_dmul+0x34a>
    9032:	1d10      	adds	r0, r2, #4
    9034:	4290      	cmp	r0, r2
    9036:	4192      	sbcs	r2, r2
    9038:	4252      	negs	r2, r2
    903a:	189b      	adds	r3, r3, r2
    903c:	0002      	movs	r2, r0
    903e:	01d9      	lsls	r1, r3, #7
    9040:	d504      	bpl.n	904c <__aeabi_dmul+0x358>
    9042:	2480      	movs	r4, #128	; 0x80
    9044:	4819      	ldr	r0, [pc, #100]	; (90ac <__aeabi_dmul+0x3b8>)
    9046:	00e4      	lsls	r4, r4, #3
    9048:	4003      	ands	r3, r0
    904a:	4454      	add	r4, sl
    904c:	4818      	ldr	r0, [pc, #96]	; (90b0 <__aeabi_dmul+0x3bc>)
    904e:	4284      	cmp	r4, r0
    9050:	dd00      	ble.n	9054 <__aeabi_dmul+0x360>
    9052:	e727      	b.n	8ea4 <__aeabi_dmul+0x1b0>
    9054:	075e      	lsls	r6, r3, #29
    9056:	025b      	lsls	r3, r3, #9
    9058:	08d2      	lsrs	r2, r2, #3
    905a:	0b1f      	lsrs	r7, r3, #12
    905c:	0563      	lsls	r3, r4, #21
    905e:	4316      	orrs	r6, r2
    9060:	0d5b      	lsrs	r3, r3, #21
    9062:	e6b2      	b.n	8dca <__aeabi_dmul+0xd6>
    9064:	2300      	movs	r3, #0
    9066:	4699      	mov	r9, r3
    9068:	3301      	adds	r3, #1
    906a:	2704      	movs	r7, #4
    906c:	2600      	movs	r6, #0
    906e:	469b      	mov	fp, r3
    9070:	e664      	b.n	8d3c <__aeabi_dmul+0x48>
    9072:	2303      	movs	r3, #3
    9074:	9701      	str	r7, [sp, #4]
    9076:	4681      	mov	r9, r0
    9078:	270c      	movs	r7, #12
    907a:	469b      	mov	fp, r3
    907c:	e65e      	b.n	8d3c <__aeabi_dmul+0x48>
    907e:	2201      	movs	r2, #1
    9080:	2001      	movs	r0, #1
    9082:	4317      	orrs	r7, r2
    9084:	2200      	movs	r2, #0
    9086:	e676      	b.n	8d76 <__aeabi_dmul+0x82>
    9088:	2303      	movs	r3, #3
    908a:	2003      	movs	r0, #3
    908c:	431f      	orrs	r7, r3
    908e:	4643      	mov	r3, r8
    9090:	e671      	b.n	8d76 <__aeabi_dmul+0x82>
    9092:	46c0      	nop			; (mov r8, r8)
    9094:	000007ff 	.word	0x000007ff
    9098:	fffffc01 	.word	0xfffffc01
    909c:	0000d868 	.word	0x0000d868
    90a0:	800fffff 	.word	0x800fffff
    90a4:	fffffc0d 	.word	0xfffffc0d
    90a8:	000003ff 	.word	0x000003ff
    90ac:	feffffff 	.word	0xfeffffff
    90b0:	000007fe 	.word	0x000007fe
    90b4:	2300      	movs	r3, #0
    90b6:	2780      	movs	r7, #128	; 0x80
    90b8:	9300      	str	r3, [sp, #0]
    90ba:	033f      	lsls	r7, r7, #12
    90bc:	2600      	movs	r6, #0
    90be:	4b43      	ldr	r3, [pc, #268]	; (91cc <__aeabi_dmul+0x4d8>)
    90c0:	e683      	b.n	8dca <__aeabi_dmul+0xd6>
    90c2:	9b01      	ldr	r3, [sp, #4]
    90c4:	0032      	movs	r2, r6
    90c6:	46a4      	mov	ip, r4
    90c8:	4658      	mov	r0, fp
    90ca:	e670      	b.n	8dae <__aeabi_dmul+0xba>
    90cc:	46ac      	mov	ip, r5
    90ce:	e66e      	b.n	8dae <__aeabi_dmul+0xba>
    90d0:	2780      	movs	r7, #128	; 0x80
    90d2:	9901      	ldr	r1, [sp, #4]
    90d4:	033f      	lsls	r7, r7, #12
    90d6:	4239      	tst	r1, r7
    90d8:	d02d      	beq.n	9136 <__aeabi_dmul+0x442>
    90da:	423b      	tst	r3, r7
    90dc:	d12b      	bne.n	9136 <__aeabi_dmul+0x442>
    90de:	431f      	orrs	r7, r3
    90e0:	033f      	lsls	r7, r7, #12
    90e2:	0b3f      	lsrs	r7, r7, #12
    90e4:	9500      	str	r5, [sp, #0]
    90e6:	0016      	movs	r6, r2
    90e8:	4b38      	ldr	r3, [pc, #224]	; (91cc <__aeabi_dmul+0x4d8>)
    90ea:	e66e      	b.n	8dca <__aeabi_dmul+0xd6>
    90ec:	2501      	movs	r5, #1
    90ee:	1b2d      	subs	r5, r5, r4
    90f0:	2d38      	cmp	r5, #56	; 0x38
    90f2:	dd00      	ble.n	90f6 <__aeabi_dmul+0x402>
    90f4:	e666      	b.n	8dc4 <__aeabi_dmul+0xd0>
    90f6:	2d1f      	cmp	r5, #31
    90f8:	dc40      	bgt.n	917c <__aeabi_dmul+0x488>
    90fa:	4835      	ldr	r0, [pc, #212]	; (91d0 <__aeabi_dmul+0x4dc>)
    90fc:	001c      	movs	r4, r3
    90fe:	4450      	add	r0, sl
    9100:	0016      	movs	r6, r2
    9102:	4082      	lsls	r2, r0
    9104:	4084      	lsls	r4, r0
    9106:	40ee      	lsrs	r6, r5
    9108:	1e50      	subs	r0, r2, #1
    910a:	4182      	sbcs	r2, r0
    910c:	4334      	orrs	r4, r6
    910e:	4314      	orrs	r4, r2
    9110:	40eb      	lsrs	r3, r5
    9112:	0762      	lsls	r2, r4, #29
    9114:	d009      	beq.n	912a <__aeabi_dmul+0x436>
    9116:	220f      	movs	r2, #15
    9118:	4022      	ands	r2, r4
    911a:	2a04      	cmp	r2, #4
    911c:	d005      	beq.n	912a <__aeabi_dmul+0x436>
    911e:	0022      	movs	r2, r4
    9120:	1d14      	adds	r4, r2, #4
    9122:	4294      	cmp	r4, r2
    9124:	4180      	sbcs	r0, r0
    9126:	4240      	negs	r0, r0
    9128:	181b      	adds	r3, r3, r0
    912a:	021a      	lsls	r2, r3, #8
    912c:	d53e      	bpl.n	91ac <__aeabi_dmul+0x4b8>
    912e:	2301      	movs	r3, #1
    9130:	2700      	movs	r7, #0
    9132:	2600      	movs	r6, #0
    9134:	e649      	b.n	8dca <__aeabi_dmul+0xd6>
    9136:	2780      	movs	r7, #128	; 0x80
    9138:	9b01      	ldr	r3, [sp, #4]
    913a:	033f      	lsls	r7, r7, #12
    913c:	431f      	orrs	r7, r3
    913e:	033f      	lsls	r7, r7, #12
    9140:	0b3f      	lsrs	r7, r7, #12
    9142:	9400      	str	r4, [sp, #0]
    9144:	4b21      	ldr	r3, [pc, #132]	; (91cc <__aeabi_dmul+0x4d8>)
    9146:	e640      	b.n	8dca <__aeabi_dmul+0xd6>
    9148:	0003      	movs	r3, r0
    914a:	465a      	mov	r2, fp
    914c:	3b28      	subs	r3, #40	; 0x28
    914e:	409a      	lsls	r2, r3
    9150:	2600      	movs	r6, #0
    9152:	9201      	str	r2, [sp, #4]
    9154:	e66d      	b.n	8e32 <__aeabi_dmul+0x13e>
    9156:	4658      	mov	r0, fp
    9158:	f000 fd1a 	bl	9b90 <__clzsi2>
    915c:	3020      	adds	r0, #32
    915e:	e657      	b.n	8e10 <__aeabi_dmul+0x11c>
    9160:	0003      	movs	r3, r0
    9162:	4652      	mov	r2, sl
    9164:	3b28      	subs	r3, #40	; 0x28
    9166:	409a      	lsls	r2, r3
    9168:	0013      	movs	r3, r2
    916a:	2200      	movs	r2, #0
    916c:	e693      	b.n	8e96 <__aeabi_dmul+0x1a2>
    916e:	4650      	mov	r0, sl
    9170:	f000 fd0e 	bl	9b90 <__clzsi2>
    9174:	3020      	adds	r0, #32
    9176:	e67b      	b.n	8e70 <__aeabi_dmul+0x17c>
    9178:	46ca      	mov	sl, r9
    917a:	e750      	b.n	901e <__aeabi_dmul+0x32a>
    917c:	201f      	movs	r0, #31
    917e:	001e      	movs	r6, r3
    9180:	4240      	negs	r0, r0
    9182:	1b04      	subs	r4, r0, r4
    9184:	40e6      	lsrs	r6, r4
    9186:	2d20      	cmp	r5, #32
    9188:	d003      	beq.n	9192 <__aeabi_dmul+0x49e>
    918a:	4c12      	ldr	r4, [pc, #72]	; (91d4 <__aeabi_dmul+0x4e0>)
    918c:	4454      	add	r4, sl
    918e:	40a3      	lsls	r3, r4
    9190:	431a      	orrs	r2, r3
    9192:	1e50      	subs	r0, r2, #1
    9194:	4182      	sbcs	r2, r0
    9196:	4332      	orrs	r2, r6
    9198:	2607      	movs	r6, #7
    919a:	2700      	movs	r7, #0
    919c:	4016      	ands	r6, r2
    919e:	d009      	beq.n	91b4 <__aeabi_dmul+0x4c0>
    91a0:	200f      	movs	r0, #15
    91a2:	2300      	movs	r3, #0
    91a4:	4010      	ands	r0, r2
    91a6:	0014      	movs	r4, r2
    91a8:	2804      	cmp	r0, #4
    91aa:	d1b9      	bne.n	9120 <__aeabi_dmul+0x42c>
    91ac:	0022      	movs	r2, r4
    91ae:	075e      	lsls	r6, r3, #29
    91b0:	025b      	lsls	r3, r3, #9
    91b2:	0b1f      	lsrs	r7, r3, #12
    91b4:	08d2      	lsrs	r2, r2, #3
    91b6:	4316      	orrs	r6, r2
    91b8:	2300      	movs	r3, #0
    91ba:	e606      	b.n	8dca <__aeabi_dmul+0xd6>
    91bc:	2780      	movs	r7, #128	; 0x80
    91be:	033f      	lsls	r7, r7, #12
    91c0:	431f      	orrs	r7, r3
    91c2:	033f      	lsls	r7, r7, #12
    91c4:	0b3f      	lsrs	r7, r7, #12
    91c6:	0016      	movs	r6, r2
    91c8:	4b00      	ldr	r3, [pc, #0]	; (91cc <__aeabi_dmul+0x4d8>)
    91ca:	e5fe      	b.n	8dca <__aeabi_dmul+0xd6>
    91cc:	000007ff 	.word	0x000007ff
    91d0:	0000041e 	.word	0x0000041e
    91d4:	0000043e 	.word	0x0000043e

000091d8 <__aeabi_dsub>:
__aeabi_dsub():
    91d8:	b5f8      	push	{r3, r4, r5, r6, r7, lr}
    91da:	4657      	mov	r7, sl
    91dc:	464e      	mov	r6, r9
    91de:	4645      	mov	r5, r8
    91e0:	46de      	mov	lr, fp
    91e2:	000c      	movs	r4, r1
    91e4:	0309      	lsls	r1, r1, #12
    91e6:	b5e0      	push	{r5, r6, r7, lr}
    91e8:	0a49      	lsrs	r1, r1, #9
    91ea:	0f46      	lsrs	r6, r0, #29
    91ec:	005f      	lsls	r7, r3, #1
    91ee:	4331      	orrs	r1, r6
    91f0:	031e      	lsls	r6, r3, #12
    91f2:	0fdb      	lsrs	r3, r3, #31
    91f4:	0a76      	lsrs	r6, r6, #9
    91f6:	469b      	mov	fp, r3
    91f8:	0f53      	lsrs	r3, r2, #29
    91fa:	4333      	orrs	r3, r6
    91fc:	4ec8      	ldr	r6, [pc, #800]	; (9520 <__aeabi_dsub+0x348>)
    91fe:	0065      	lsls	r5, r4, #1
    9200:	00c0      	lsls	r0, r0, #3
    9202:	0fe4      	lsrs	r4, r4, #31
    9204:	00d2      	lsls	r2, r2, #3
    9206:	0d6d      	lsrs	r5, r5, #21
    9208:	46a2      	mov	sl, r4
    920a:	4681      	mov	r9, r0
    920c:	0d7f      	lsrs	r7, r7, #21
    920e:	469c      	mov	ip, r3
    9210:	4690      	mov	r8, r2
    9212:	42b7      	cmp	r7, r6
    9214:	d100      	bne.n	9218 <__aeabi_dsub+0x40>
    9216:	e0b9      	b.n	938c <__aeabi_dsub+0x1b4>
    9218:	465b      	mov	r3, fp
    921a:	2601      	movs	r6, #1
    921c:	4073      	eors	r3, r6
    921e:	469b      	mov	fp, r3
    9220:	1bee      	subs	r6, r5, r7
    9222:	45a3      	cmp	fp, r4
    9224:	d100      	bne.n	9228 <__aeabi_dsub+0x50>
    9226:	e083      	b.n	9330 <__aeabi_dsub+0x158>
    9228:	2e00      	cmp	r6, #0
    922a:	dd63      	ble.n	92f4 <__aeabi_dsub+0x11c>
    922c:	2f00      	cmp	r7, #0
    922e:	d000      	beq.n	9232 <__aeabi_dsub+0x5a>
    9230:	e0b1      	b.n	9396 <__aeabi_dsub+0x1be>
    9232:	4663      	mov	r3, ip
    9234:	4313      	orrs	r3, r2
    9236:	d100      	bne.n	923a <__aeabi_dsub+0x62>
    9238:	e123      	b.n	9482 <__aeabi_dsub+0x2aa>
    923a:	1e73      	subs	r3, r6, #1
    923c:	2b00      	cmp	r3, #0
    923e:	d000      	beq.n	9242 <__aeabi_dsub+0x6a>
    9240:	e1ba      	b.n	95b8 <__aeabi_dsub+0x3e0>
    9242:	1a86      	subs	r6, r0, r2
    9244:	4663      	mov	r3, ip
    9246:	42b0      	cmp	r0, r6
    9248:	4180      	sbcs	r0, r0
    924a:	2501      	movs	r5, #1
    924c:	1ac9      	subs	r1, r1, r3
    924e:	4240      	negs	r0, r0
    9250:	1a09      	subs	r1, r1, r0
    9252:	020b      	lsls	r3, r1, #8
    9254:	d400      	bmi.n	9258 <__aeabi_dsub+0x80>
    9256:	e147      	b.n	94e8 <__aeabi_dsub+0x310>
    9258:	0249      	lsls	r1, r1, #9
    925a:	0a4b      	lsrs	r3, r1, #9
    925c:	4698      	mov	r8, r3
    925e:	4643      	mov	r3, r8
    9260:	2b00      	cmp	r3, #0
    9262:	d100      	bne.n	9266 <__aeabi_dsub+0x8e>
    9264:	e189      	b.n	957a <__aeabi_dsub+0x3a2>
    9266:	4640      	mov	r0, r8
    9268:	f000 fc92 	bl	9b90 <__clzsi2>
    926c:	0003      	movs	r3, r0
    926e:	3b08      	subs	r3, #8
    9270:	2b1f      	cmp	r3, #31
    9272:	dd00      	ble.n	9276 <__aeabi_dsub+0x9e>
    9274:	e17c      	b.n	9570 <__aeabi_dsub+0x398>
    9276:	2220      	movs	r2, #32
    9278:	0030      	movs	r0, r6
    927a:	1ad2      	subs	r2, r2, r3
    927c:	4641      	mov	r1, r8
    927e:	40d0      	lsrs	r0, r2
    9280:	4099      	lsls	r1, r3
    9282:	0002      	movs	r2, r0
    9284:	409e      	lsls	r6, r3
    9286:	430a      	orrs	r2, r1
    9288:	429d      	cmp	r5, r3
    928a:	dd00      	ble.n	928e <__aeabi_dsub+0xb6>
    928c:	e16a      	b.n	9564 <__aeabi_dsub+0x38c>
    928e:	1b5d      	subs	r5, r3, r5
    9290:	1c6b      	adds	r3, r5, #1
    9292:	2b1f      	cmp	r3, #31
    9294:	dd00      	ble.n	9298 <__aeabi_dsub+0xc0>
    9296:	e194      	b.n	95c2 <__aeabi_dsub+0x3ea>
    9298:	2120      	movs	r1, #32
    929a:	0010      	movs	r0, r2
    929c:	0035      	movs	r5, r6
    929e:	1ac9      	subs	r1, r1, r3
    92a0:	408e      	lsls	r6, r1
    92a2:	40da      	lsrs	r2, r3
    92a4:	4088      	lsls	r0, r1
    92a6:	40dd      	lsrs	r5, r3
    92a8:	1e71      	subs	r1, r6, #1
    92aa:	418e      	sbcs	r6, r1
    92ac:	0011      	movs	r1, r2
    92ae:	2207      	movs	r2, #7
    92b0:	4328      	orrs	r0, r5
    92b2:	2500      	movs	r5, #0
    92b4:	4306      	orrs	r6, r0
    92b6:	4032      	ands	r2, r6
    92b8:	2a00      	cmp	r2, #0
    92ba:	d009      	beq.n	92d0 <__aeabi_dsub+0xf8>
    92bc:	230f      	movs	r3, #15
    92be:	4033      	ands	r3, r6
    92c0:	2b04      	cmp	r3, #4
    92c2:	d005      	beq.n	92d0 <__aeabi_dsub+0xf8>
    92c4:	1d33      	adds	r3, r6, #4
    92c6:	42b3      	cmp	r3, r6
    92c8:	41b6      	sbcs	r6, r6
    92ca:	4276      	negs	r6, r6
    92cc:	1989      	adds	r1, r1, r6
    92ce:	001e      	movs	r6, r3
    92d0:	020b      	lsls	r3, r1, #8
    92d2:	d400      	bmi.n	92d6 <__aeabi_dsub+0xfe>
    92d4:	e23d      	b.n	9752 <__aeabi_dsub+0x57a>
    92d6:	1c6a      	adds	r2, r5, #1
    92d8:	4b91      	ldr	r3, [pc, #580]	; (9520 <__aeabi_dsub+0x348>)
    92da:	0555      	lsls	r5, r2, #21
    92dc:	0d6d      	lsrs	r5, r5, #21
    92de:	429a      	cmp	r2, r3
    92e0:	d100      	bne.n	92e4 <__aeabi_dsub+0x10c>
    92e2:	e119      	b.n	9518 <__aeabi_dsub+0x340>
    92e4:	4a8f      	ldr	r2, [pc, #572]	; (9524 <__aeabi_dsub+0x34c>)
    92e6:	08f6      	lsrs	r6, r6, #3
    92e8:	400a      	ands	r2, r1
    92ea:	0757      	lsls	r7, r2, #29
    92ec:	0252      	lsls	r2, r2, #9
    92ee:	4337      	orrs	r7, r6
    92f0:	0b12      	lsrs	r2, r2, #12
    92f2:	e09b      	b.n	942c <__aeabi_dsub+0x254>
    92f4:	2e00      	cmp	r6, #0
    92f6:	d000      	beq.n	92fa <__aeabi_dsub+0x122>
    92f8:	e0c5      	b.n	9486 <__aeabi_dsub+0x2ae>
    92fa:	1c6e      	adds	r6, r5, #1
    92fc:	0576      	lsls	r6, r6, #21
    92fe:	0d76      	lsrs	r6, r6, #21
    9300:	2e01      	cmp	r6, #1
    9302:	dc00      	bgt.n	9306 <__aeabi_dsub+0x12e>
    9304:	e148      	b.n	9598 <__aeabi_dsub+0x3c0>
    9306:	4667      	mov	r7, ip
    9308:	1a86      	subs	r6, r0, r2
    930a:	1bcb      	subs	r3, r1, r7
    930c:	42b0      	cmp	r0, r6
    930e:	41bf      	sbcs	r7, r7
    9310:	427f      	negs	r7, r7
    9312:	46b8      	mov	r8, r7
    9314:	001f      	movs	r7, r3
    9316:	4643      	mov	r3, r8
    9318:	1aff      	subs	r7, r7, r3
    931a:	003b      	movs	r3, r7
    931c:	46b8      	mov	r8, r7
    931e:	021b      	lsls	r3, r3, #8
    9320:	d500      	bpl.n	9324 <__aeabi_dsub+0x14c>
    9322:	e15f      	b.n	95e4 <__aeabi_dsub+0x40c>
    9324:	4337      	orrs	r7, r6
    9326:	d19a      	bne.n	925e <__aeabi_dsub+0x86>
    9328:	2200      	movs	r2, #0
    932a:	2400      	movs	r4, #0
    932c:	2500      	movs	r5, #0
    932e:	e079      	b.n	9424 <__aeabi_dsub+0x24c>
    9330:	2e00      	cmp	r6, #0
    9332:	dc00      	bgt.n	9336 <__aeabi_dsub+0x15e>
    9334:	e0fa      	b.n	952c <__aeabi_dsub+0x354>
    9336:	2f00      	cmp	r7, #0
    9338:	d100      	bne.n	933c <__aeabi_dsub+0x164>
    933a:	e08d      	b.n	9458 <__aeabi_dsub+0x280>
    933c:	4b78      	ldr	r3, [pc, #480]	; (9520 <__aeabi_dsub+0x348>)
    933e:	429d      	cmp	r5, r3
    9340:	d067      	beq.n	9412 <__aeabi_dsub+0x23a>
    9342:	2380      	movs	r3, #128	; 0x80
    9344:	4667      	mov	r7, ip
    9346:	041b      	lsls	r3, r3, #16
    9348:	431f      	orrs	r7, r3
    934a:	46bc      	mov	ip, r7
    934c:	2e38      	cmp	r6, #56	; 0x38
    934e:	dc00      	bgt.n	9352 <__aeabi_dsub+0x17a>
    9350:	e152      	b.n	95f8 <__aeabi_dsub+0x420>
    9352:	4663      	mov	r3, ip
    9354:	4313      	orrs	r3, r2
    9356:	1e5a      	subs	r2, r3, #1
    9358:	4193      	sbcs	r3, r2
    935a:	181e      	adds	r6, r3, r0
    935c:	4286      	cmp	r6, r0
    935e:	4180      	sbcs	r0, r0
    9360:	4240      	negs	r0, r0
    9362:	1809      	adds	r1, r1, r0
    9364:	020b      	lsls	r3, r1, #8
    9366:	d400      	bmi.n	936a <__aeabi_dsub+0x192>
    9368:	e0be      	b.n	94e8 <__aeabi_dsub+0x310>
    936a:	4b6d      	ldr	r3, [pc, #436]	; (9520 <__aeabi_dsub+0x348>)
    936c:	3501      	adds	r5, #1
    936e:	429d      	cmp	r5, r3
    9370:	d100      	bne.n	9374 <__aeabi_dsub+0x19c>
    9372:	e0d2      	b.n	951a <__aeabi_dsub+0x342>
    9374:	4a6b      	ldr	r2, [pc, #428]	; (9524 <__aeabi_dsub+0x34c>)
    9376:	0873      	lsrs	r3, r6, #1
    9378:	400a      	ands	r2, r1
    937a:	2101      	movs	r1, #1
    937c:	400e      	ands	r6, r1
    937e:	431e      	orrs	r6, r3
    9380:	0851      	lsrs	r1, r2, #1
    9382:	07d3      	lsls	r3, r2, #31
    9384:	2207      	movs	r2, #7
    9386:	431e      	orrs	r6, r3
    9388:	4032      	ands	r2, r6
    938a:	e795      	b.n	92b8 <__aeabi_dsub+0xe0>
    938c:	001e      	movs	r6, r3
    938e:	4316      	orrs	r6, r2
    9390:	d000      	beq.n	9394 <__aeabi_dsub+0x1bc>
    9392:	e745      	b.n	9220 <__aeabi_dsub+0x48>
    9394:	e740      	b.n	9218 <__aeabi_dsub+0x40>
    9396:	4b62      	ldr	r3, [pc, #392]	; (9520 <__aeabi_dsub+0x348>)
    9398:	429d      	cmp	r5, r3
    939a:	d03a      	beq.n	9412 <__aeabi_dsub+0x23a>
    939c:	2380      	movs	r3, #128	; 0x80
    939e:	4667      	mov	r7, ip
    93a0:	041b      	lsls	r3, r3, #16
    93a2:	431f      	orrs	r7, r3
    93a4:	46bc      	mov	ip, r7
    93a6:	2e38      	cmp	r6, #56	; 0x38
    93a8:	dd00      	ble.n	93ac <__aeabi_dsub+0x1d4>
    93aa:	e0eb      	b.n	9584 <__aeabi_dsub+0x3ac>
    93ac:	2e1f      	cmp	r6, #31
    93ae:	dc00      	bgt.n	93b2 <__aeabi_dsub+0x1da>
    93b0:	e13a      	b.n	9628 <__aeabi_dsub+0x450>
    93b2:	0033      	movs	r3, r6
    93b4:	4667      	mov	r7, ip
    93b6:	3b20      	subs	r3, #32
    93b8:	40df      	lsrs	r7, r3
    93ba:	003b      	movs	r3, r7
    93bc:	2e20      	cmp	r6, #32
    93be:	d005      	beq.n	93cc <__aeabi_dsub+0x1f4>
    93c0:	2740      	movs	r7, #64	; 0x40
    93c2:	1bbf      	subs	r7, r7, r6
    93c4:	4666      	mov	r6, ip
    93c6:	40be      	lsls	r6, r7
    93c8:	4332      	orrs	r2, r6
    93ca:	4690      	mov	r8, r2
    93cc:	4646      	mov	r6, r8
    93ce:	1e72      	subs	r2, r6, #1
    93d0:	4196      	sbcs	r6, r2
    93d2:	4333      	orrs	r3, r6
    93d4:	e0da      	b.n	958c <__aeabi_dsub+0x3b4>
    93d6:	2b00      	cmp	r3, #0
    93d8:	d100      	bne.n	93dc <__aeabi_dsub+0x204>
    93da:	e214      	b.n	9806 <__aeabi_dsub+0x62e>
    93dc:	4663      	mov	r3, ip
    93de:	4313      	orrs	r3, r2
    93e0:	d100      	bne.n	93e4 <__aeabi_dsub+0x20c>
    93e2:	e168      	b.n	96b6 <__aeabi_dsub+0x4de>
    93e4:	2380      	movs	r3, #128	; 0x80
    93e6:	074e      	lsls	r6, r1, #29
    93e8:	08c0      	lsrs	r0, r0, #3
    93ea:	08c9      	lsrs	r1, r1, #3
    93ec:	031b      	lsls	r3, r3, #12
    93ee:	4306      	orrs	r6, r0
    93f0:	4219      	tst	r1, r3
    93f2:	d008      	beq.n	9406 <__aeabi_dsub+0x22e>
    93f4:	4660      	mov	r0, ip
    93f6:	08c0      	lsrs	r0, r0, #3
    93f8:	4218      	tst	r0, r3
    93fa:	d104      	bne.n	9406 <__aeabi_dsub+0x22e>
    93fc:	4663      	mov	r3, ip
    93fe:	0001      	movs	r1, r0
    9400:	08d2      	lsrs	r2, r2, #3
    9402:	075e      	lsls	r6, r3, #29
    9404:	4316      	orrs	r6, r2
    9406:	00f3      	lsls	r3, r6, #3
    9408:	4699      	mov	r9, r3
    940a:	00c9      	lsls	r1, r1, #3
    940c:	0f72      	lsrs	r2, r6, #29
    940e:	4d44      	ldr	r5, [pc, #272]	; (9520 <__aeabi_dsub+0x348>)
    9410:	4311      	orrs	r1, r2
    9412:	464b      	mov	r3, r9
    9414:	08de      	lsrs	r6, r3, #3
    9416:	4b42      	ldr	r3, [pc, #264]	; (9520 <__aeabi_dsub+0x348>)
    9418:	074f      	lsls	r7, r1, #29
    941a:	4337      	orrs	r7, r6
    941c:	08ca      	lsrs	r2, r1, #3
    941e:	429d      	cmp	r5, r3
    9420:	d100      	bne.n	9424 <__aeabi_dsub+0x24c>
    9422:	e06e      	b.n	9502 <__aeabi_dsub+0x32a>
    9424:	0312      	lsls	r2, r2, #12
    9426:	056d      	lsls	r5, r5, #21
    9428:	0b12      	lsrs	r2, r2, #12
    942a:	0d6d      	lsrs	r5, r5, #21
    942c:	2100      	movs	r1, #0
    942e:	0312      	lsls	r2, r2, #12
    9430:	0b13      	lsrs	r3, r2, #12
    9432:	0d0a      	lsrs	r2, r1, #20
    9434:	0512      	lsls	r2, r2, #20
    9436:	431a      	orrs	r2, r3
    9438:	4b3b      	ldr	r3, [pc, #236]	; (9528 <__aeabi_dsub+0x350>)
    943a:	052d      	lsls	r5, r5, #20
    943c:	4013      	ands	r3, r2
    943e:	432b      	orrs	r3, r5
    9440:	005b      	lsls	r3, r3, #1
    9442:	07e4      	lsls	r4, r4, #31
    9444:	085b      	lsrs	r3, r3, #1
    9446:	4323      	orrs	r3, r4
    9448:	0038      	movs	r0, r7
    944a:	0019      	movs	r1, r3
    944c:	bc3c      	pop	{r2, r3, r4, r5}
    944e:	4690      	mov	r8, r2
    9450:	4699      	mov	r9, r3
    9452:	46a2      	mov	sl, r4
    9454:	46ab      	mov	fp, r5
    9456:	bdf8      	pop	{r3, r4, r5, r6, r7, pc}
    9458:	4663      	mov	r3, ip
    945a:	4313      	orrs	r3, r2
    945c:	d011      	beq.n	9482 <__aeabi_dsub+0x2aa>
    945e:	1e73      	subs	r3, r6, #1
    9460:	2b00      	cmp	r3, #0
    9462:	d000      	beq.n	9466 <__aeabi_dsub+0x28e>
    9464:	e107      	b.n	9676 <__aeabi_dsub+0x49e>
    9466:	1886      	adds	r6, r0, r2
    9468:	4286      	cmp	r6, r0
    946a:	4180      	sbcs	r0, r0
    946c:	4461      	add	r1, ip
    946e:	4240      	negs	r0, r0
    9470:	1809      	adds	r1, r1, r0
    9472:	2501      	movs	r5, #1
    9474:	020b      	lsls	r3, r1, #8
    9476:	d537      	bpl.n	94e8 <__aeabi_dsub+0x310>
    9478:	2502      	movs	r5, #2
    947a:	e77b      	b.n	9374 <__aeabi_dsub+0x19c>
    947c:	003e      	movs	r6, r7
    947e:	4661      	mov	r1, ip
    9480:	4691      	mov	r9, r2
    9482:	0035      	movs	r5, r6
    9484:	e7c5      	b.n	9412 <__aeabi_dsub+0x23a>
    9486:	465c      	mov	r4, fp
    9488:	2d00      	cmp	r5, #0
    948a:	d000      	beq.n	948e <__aeabi_dsub+0x2b6>
    948c:	e0e1      	b.n	9652 <__aeabi_dsub+0x47a>
    948e:	000b      	movs	r3, r1
    9490:	4303      	orrs	r3, r0
    9492:	d0f3      	beq.n	947c <__aeabi_dsub+0x2a4>
    9494:	1c73      	adds	r3, r6, #1
    9496:	d100      	bne.n	949a <__aeabi_dsub+0x2c2>
    9498:	e1ac      	b.n	97f4 <__aeabi_dsub+0x61c>
    949a:	4b21      	ldr	r3, [pc, #132]	; (9520 <__aeabi_dsub+0x348>)
    949c:	429f      	cmp	r7, r3
    949e:	d100      	bne.n	94a2 <__aeabi_dsub+0x2ca>
    94a0:	e13a      	b.n	9718 <__aeabi_dsub+0x540>
    94a2:	43f3      	mvns	r3, r6
    94a4:	2b38      	cmp	r3, #56	; 0x38
    94a6:	dd00      	ble.n	94aa <__aeabi_dsub+0x2d2>
    94a8:	e16f      	b.n	978a <__aeabi_dsub+0x5b2>
    94aa:	2b1f      	cmp	r3, #31
    94ac:	dd00      	ble.n	94b0 <__aeabi_dsub+0x2d8>
    94ae:	e18c      	b.n	97ca <__aeabi_dsub+0x5f2>
    94b0:	2520      	movs	r5, #32
    94b2:	000e      	movs	r6, r1
    94b4:	1aed      	subs	r5, r5, r3
    94b6:	40ae      	lsls	r6, r5
    94b8:	46b0      	mov	r8, r6
    94ba:	0006      	movs	r6, r0
    94bc:	46aa      	mov	sl, r5
    94be:	40de      	lsrs	r6, r3
    94c0:	4645      	mov	r5, r8
    94c2:	4335      	orrs	r5, r6
    94c4:	002e      	movs	r6, r5
    94c6:	4655      	mov	r5, sl
    94c8:	40d9      	lsrs	r1, r3
    94ca:	40a8      	lsls	r0, r5
    94cc:	4663      	mov	r3, ip
    94ce:	1e45      	subs	r5, r0, #1
    94d0:	41a8      	sbcs	r0, r5
    94d2:	1a5b      	subs	r3, r3, r1
    94d4:	469c      	mov	ip, r3
    94d6:	4330      	orrs	r0, r6
    94d8:	1a16      	subs	r6, r2, r0
    94da:	42b2      	cmp	r2, r6
    94dc:	4192      	sbcs	r2, r2
    94de:	4663      	mov	r3, ip
    94e0:	4252      	negs	r2, r2
    94e2:	1a99      	subs	r1, r3, r2
    94e4:	003d      	movs	r5, r7
    94e6:	e6b4      	b.n	9252 <__aeabi_dsub+0x7a>
    94e8:	2207      	movs	r2, #7
    94ea:	4032      	ands	r2, r6
    94ec:	2a00      	cmp	r2, #0
    94ee:	d000      	beq.n	94f2 <__aeabi_dsub+0x31a>
    94f0:	e6e4      	b.n	92bc <__aeabi_dsub+0xe4>
    94f2:	4b0b      	ldr	r3, [pc, #44]	; (9520 <__aeabi_dsub+0x348>)
    94f4:	08f6      	lsrs	r6, r6, #3
    94f6:	074f      	lsls	r7, r1, #29
    94f8:	4337      	orrs	r7, r6
    94fa:	08ca      	lsrs	r2, r1, #3
    94fc:	429d      	cmp	r5, r3
    94fe:	d000      	beq.n	9502 <__aeabi_dsub+0x32a>
    9500:	e790      	b.n	9424 <__aeabi_dsub+0x24c>
    9502:	003b      	movs	r3, r7
    9504:	4313      	orrs	r3, r2
    9506:	d100      	bne.n	950a <__aeabi_dsub+0x332>
    9508:	e1a6      	b.n	9858 <__aeabi_dsub+0x680>
    950a:	2380      	movs	r3, #128	; 0x80
    950c:	031b      	lsls	r3, r3, #12
    950e:	431a      	orrs	r2, r3
    9510:	0312      	lsls	r2, r2, #12
    9512:	0b12      	lsrs	r2, r2, #12
    9514:	4d02      	ldr	r5, [pc, #8]	; (9520 <__aeabi_dsub+0x348>)
    9516:	e789      	b.n	942c <__aeabi_dsub+0x254>
    9518:	0015      	movs	r5, r2
    951a:	2200      	movs	r2, #0
    951c:	2700      	movs	r7, #0
    951e:	e785      	b.n	942c <__aeabi_dsub+0x254>
    9520:	000007ff 	.word	0x000007ff
    9524:	ff7fffff 	.word	0xff7fffff
    9528:	800fffff 	.word	0x800fffff
    952c:	2e00      	cmp	r6, #0
    952e:	d000      	beq.n	9532 <__aeabi_dsub+0x35a>
    9530:	e0c7      	b.n	96c2 <__aeabi_dsub+0x4ea>
    9532:	1c6b      	adds	r3, r5, #1
    9534:	055e      	lsls	r6, r3, #21
    9536:	0d76      	lsrs	r6, r6, #21
    9538:	2e01      	cmp	r6, #1
    953a:	dc00      	bgt.n	953e <__aeabi_dsub+0x366>
    953c:	e0f0      	b.n	9720 <__aeabi_dsub+0x548>
    953e:	4dc8      	ldr	r5, [pc, #800]	; (9860 <__aeabi_dsub+0x688>)
    9540:	42ab      	cmp	r3, r5
    9542:	d100      	bne.n	9546 <__aeabi_dsub+0x36e>
    9544:	e0b9      	b.n	96ba <__aeabi_dsub+0x4e2>
    9546:	1885      	adds	r5, r0, r2
    9548:	000a      	movs	r2, r1
    954a:	4285      	cmp	r5, r0
    954c:	4189      	sbcs	r1, r1
    954e:	4462      	add	r2, ip
    9550:	4249      	negs	r1, r1
    9552:	1851      	adds	r1, r2, r1
    9554:	2207      	movs	r2, #7
    9556:	07ce      	lsls	r6, r1, #31
    9558:	086d      	lsrs	r5, r5, #1
    955a:	432e      	orrs	r6, r5
    955c:	0849      	lsrs	r1, r1, #1
    955e:	4032      	ands	r2, r6
    9560:	001d      	movs	r5, r3
    9562:	e6a9      	b.n	92b8 <__aeabi_dsub+0xe0>
    9564:	49bf      	ldr	r1, [pc, #764]	; (9864 <__aeabi_dsub+0x68c>)
    9566:	1aed      	subs	r5, r5, r3
    9568:	4011      	ands	r1, r2
    956a:	2207      	movs	r2, #7
    956c:	4032      	ands	r2, r6
    956e:	e6a3      	b.n	92b8 <__aeabi_dsub+0xe0>
    9570:	0032      	movs	r2, r6
    9572:	3828      	subs	r0, #40	; 0x28
    9574:	4082      	lsls	r2, r0
    9576:	2600      	movs	r6, #0
    9578:	e686      	b.n	9288 <__aeabi_dsub+0xb0>
    957a:	0030      	movs	r0, r6
    957c:	f000 fb08 	bl	9b90 <__clzsi2>
    9580:	3020      	adds	r0, #32
    9582:	e673      	b.n	926c <__aeabi_dsub+0x94>
    9584:	4663      	mov	r3, ip
    9586:	4313      	orrs	r3, r2
    9588:	1e5a      	subs	r2, r3, #1
    958a:	4193      	sbcs	r3, r2
    958c:	1ac6      	subs	r6, r0, r3
    958e:	42b0      	cmp	r0, r6
    9590:	4180      	sbcs	r0, r0
    9592:	4240      	negs	r0, r0
    9594:	1a09      	subs	r1, r1, r0
    9596:	e65c      	b.n	9252 <__aeabi_dsub+0x7a>
    9598:	000e      	movs	r6, r1
    959a:	4667      	mov	r7, ip
    959c:	4306      	orrs	r6, r0
    959e:	4317      	orrs	r7, r2
    95a0:	2d00      	cmp	r5, #0
    95a2:	d15e      	bne.n	9662 <__aeabi_dsub+0x48a>
    95a4:	2e00      	cmp	r6, #0
    95a6:	d000      	beq.n	95aa <__aeabi_dsub+0x3d2>
    95a8:	e0f3      	b.n	9792 <__aeabi_dsub+0x5ba>
    95aa:	2f00      	cmp	r7, #0
    95ac:	d100      	bne.n	95b0 <__aeabi_dsub+0x3d8>
    95ae:	e11e      	b.n	97ee <__aeabi_dsub+0x616>
    95b0:	465c      	mov	r4, fp
    95b2:	4661      	mov	r1, ip
    95b4:	4691      	mov	r9, r2
    95b6:	e72c      	b.n	9412 <__aeabi_dsub+0x23a>
    95b8:	4fa9      	ldr	r7, [pc, #676]	; (9860 <__aeabi_dsub+0x688>)
    95ba:	42be      	cmp	r6, r7
    95bc:	d07b      	beq.n	96b6 <__aeabi_dsub+0x4de>
    95be:	001e      	movs	r6, r3
    95c0:	e6f1      	b.n	93a6 <__aeabi_dsub+0x1ce>
    95c2:	0010      	movs	r0, r2
    95c4:	3d1f      	subs	r5, #31
    95c6:	40e8      	lsrs	r0, r5
    95c8:	2b20      	cmp	r3, #32
    95ca:	d003      	beq.n	95d4 <__aeabi_dsub+0x3fc>
    95cc:	2140      	movs	r1, #64	; 0x40
    95ce:	1acb      	subs	r3, r1, r3
    95d0:	409a      	lsls	r2, r3
    95d2:	4316      	orrs	r6, r2
    95d4:	1e73      	subs	r3, r6, #1
    95d6:	419e      	sbcs	r6, r3
    95d8:	2207      	movs	r2, #7
    95da:	4306      	orrs	r6, r0
    95dc:	4032      	ands	r2, r6
    95de:	2100      	movs	r1, #0
    95e0:	2500      	movs	r5, #0
    95e2:	e783      	b.n	94ec <__aeabi_dsub+0x314>
    95e4:	1a16      	subs	r6, r2, r0
    95e6:	4663      	mov	r3, ip
    95e8:	42b2      	cmp	r2, r6
    95ea:	4180      	sbcs	r0, r0
    95ec:	1a59      	subs	r1, r3, r1
    95ee:	4240      	negs	r0, r0
    95f0:	1a0b      	subs	r3, r1, r0
    95f2:	4698      	mov	r8, r3
    95f4:	465c      	mov	r4, fp
    95f6:	e632      	b.n	925e <__aeabi_dsub+0x86>
    95f8:	2e1f      	cmp	r6, #31
    95fa:	dd00      	ble.n	95fe <__aeabi_dsub+0x426>
    95fc:	e0ab      	b.n	9756 <__aeabi_dsub+0x57e>
    95fe:	2720      	movs	r7, #32
    9600:	1bbb      	subs	r3, r7, r6
    9602:	469a      	mov	sl, r3
    9604:	4663      	mov	r3, ip
    9606:	4657      	mov	r7, sl
    9608:	40bb      	lsls	r3, r7
    960a:	4699      	mov	r9, r3
    960c:	0013      	movs	r3, r2
    960e:	464f      	mov	r7, r9
    9610:	40f3      	lsrs	r3, r6
    9612:	431f      	orrs	r7, r3
    9614:	003b      	movs	r3, r7
    9616:	4657      	mov	r7, sl
    9618:	40ba      	lsls	r2, r7
    961a:	1e57      	subs	r7, r2, #1
    961c:	41ba      	sbcs	r2, r7
    961e:	4313      	orrs	r3, r2
    9620:	4662      	mov	r2, ip
    9622:	40f2      	lsrs	r2, r6
    9624:	1889      	adds	r1, r1, r2
    9626:	e698      	b.n	935a <__aeabi_dsub+0x182>
    9628:	2720      	movs	r7, #32
    962a:	1bbb      	subs	r3, r7, r6
    962c:	469a      	mov	sl, r3
    962e:	4663      	mov	r3, ip
    9630:	4657      	mov	r7, sl
    9632:	40bb      	lsls	r3, r7
    9634:	4699      	mov	r9, r3
    9636:	0013      	movs	r3, r2
    9638:	464f      	mov	r7, r9
    963a:	40f3      	lsrs	r3, r6
    963c:	431f      	orrs	r7, r3
    963e:	003b      	movs	r3, r7
    9640:	4657      	mov	r7, sl
    9642:	40ba      	lsls	r2, r7
    9644:	1e57      	subs	r7, r2, #1
    9646:	41ba      	sbcs	r2, r7
    9648:	4313      	orrs	r3, r2
    964a:	4662      	mov	r2, ip
    964c:	40f2      	lsrs	r2, r6
    964e:	1a89      	subs	r1, r1, r2
    9650:	e79c      	b.n	958c <__aeabi_dsub+0x3b4>
    9652:	4b83      	ldr	r3, [pc, #524]	; (9860 <__aeabi_dsub+0x688>)
    9654:	429f      	cmp	r7, r3
    9656:	d05f      	beq.n	9718 <__aeabi_dsub+0x540>
    9658:	2580      	movs	r5, #128	; 0x80
    965a:	042d      	lsls	r5, r5, #16
    965c:	4273      	negs	r3, r6
    965e:	4329      	orrs	r1, r5
    9660:	e720      	b.n	94a4 <__aeabi_dsub+0x2cc>
    9662:	2e00      	cmp	r6, #0
    9664:	d10c      	bne.n	9680 <__aeabi_dsub+0x4a8>
    9666:	2f00      	cmp	r7, #0
    9668:	d100      	bne.n	966c <__aeabi_dsub+0x494>
    966a:	e0d0      	b.n	980e <__aeabi_dsub+0x636>
    966c:	465c      	mov	r4, fp
    966e:	4661      	mov	r1, ip
    9670:	4691      	mov	r9, r2
    9672:	4d7b      	ldr	r5, [pc, #492]	; (9860 <__aeabi_dsub+0x688>)
    9674:	e6cd      	b.n	9412 <__aeabi_dsub+0x23a>
    9676:	4f7a      	ldr	r7, [pc, #488]	; (9860 <__aeabi_dsub+0x688>)
    9678:	42be      	cmp	r6, r7
    967a:	d01c      	beq.n	96b6 <__aeabi_dsub+0x4de>
    967c:	001e      	movs	r6, r3
    967e:	e665      	b.n	934c <__aeabi_dsub+0x174>
    9680:	2f00      	cmp	r7, #0
    9682:	d018      	beq.n	96b6 <__aeabi_dsub+0x4de>
    9684:	08c0      	lsrs	r0, r0, #3
    9686:	074e      	lsls	r6, r1, #29
    9688:	4306      	orrs	r6, r0
    968a:	2080      	movs	r0, #128	; 0x80
    968c:	08c9      	lsrs	r1, r1, #3
    968e:	0300      	lsls	r0, r0, #12
    9690:	4201      	tst	r1, r0
    9692:	d008      	beq.n	96a6 <__aeabi_dsub+0x4ce>
    9694:	4663      	mov	r3, ip
    9696:	08dc      	lsrs	r4, r3, #3
    9698:	4204      	tst	r4, r0
    969a:	d104      	bne.n	96a6 <__aeabi_dsub+0x4ce>
    969c:	0021      	movs	r1, r4
    969e:	46da      	mov	sl, fp
    96a0:	08d2      	lsrs	r2, r2, #3
    96a2:	075e      	lsls	r6, r3, #29
    96a4:	4316      	orrs	r6, r2
    96a6:	00f3      	lsls	r3, r6, #3
    96a8:	4699      	mov	r9, r3
    96aa:	2401      	movs	r4, #1
    96ac:	4653      	mov	r3, sl
    96ae:	00c9      	lsls	r1, r1, #3
    96b0:	0f72      	lsrs	r2, r6, #29
    96b2:	4311      	orrs	r1, r2
    96b4:	401c      	ands	r4, r3
    96b6:	4d6a      	ldr	r5, [pc, #424]	; (9860 <__aeabi_dsub+0x688>)
    96b8:	e6ab      	b.n	9412 <__aeabi_dsub+0x23a>
    96ba:	001d      	movs	r5, r3
    96bc:	2200      	movs	r2, #0
    96be:	2700      	movs	r7, #0
    96c0:	e6b4      	b.n	942c <__aeabi_dsub+0x254>
    96c2:	2d00      	cmp	r5, #0
    96c4:	d159      	bne.n	977a <__aeabi_dsub+0x5a2>
    96c6:	000b      	movs	r3, r1
    96c8:	4303      	orrs	r3, r0
    96ca:	d100      	bne.n	96ce <__aeabi_dsub+0x4f6>
    96cc:	e6d6      	b.n	947c <__aeabi_dsub+0x2a4>
    96ce:	1c73      	adds	r3, r6, #1
    96d0:	d100      	bne.n	96d4 <__aeabi_dsub+0x4fc>
    96d2:	e0b2      	b.n	983a <__aeabi_dsub+0x662>
    96d4:	4b62      	ldr	r3, [pc, #392]	; (9860 <__aeabi_dsub+0x688>)
    96d6:	429f      	cmp	r7, r3
    96d8:	d01e      	beq.n	9718 <__aeabi_dsub+0x540>
    96da:	43f3      	mvns	r3, r6
    96dc:	2b38      	cmp	r3, #56	; 0x38
    96de:	dc6f      	bgt.n	97c0 <__aeabi_dsub+0x5e8>
    96e0:	2b1f      	cmp	r3, #31
    96e2:	dd00      	ble.n	96e6 <__aeabi_dsub+0x50e>
    96e4:	e097      	b.n	9816 <__aeabi_dsub+0x63e>
    96e6:	2520      	movs	r5, #32
    96e8:	000e      	movs	r6, r1
    96ea:	1aed      	subs	r5, r5, r3
    96ec:	40ae      	lsls	r6, r5
    96ee:	46b0      	mov	r8, r6
    96f0:	0006      	movs	r6, r0
    96f2:	46aa      	mov	sl, r5
    96f4:	40de      	lsrs	r6, r3
    96f6:	4645      	mov	r5, r8
    96f8:	4335      	orrs	r5, r6
    96fa:	002e      	movs	r6, r5
    96fc:	4655      	mov	r5, sl
    96fe:	40a8      	lsls	r0, r5
    9700:	40d9      	lsrs	r1, r3
    9702:	1e45      	subs	r5, r0, #1
    9704:	41a8      	sbcs	r0, r5
    9706:	448c      	add	ip, r1
    9708:	4306      	orrs	r6, r0
    970a:	18b6      	adds	r6, r6, r2
    970c:	4296      	cmp	r6, r2
    970e:	4192      	sbcs	r2, r2
    9710:	4251      	negs	r1, r2
    9712:	4461      	add	r1, ip
    9714:	003d      	movs	r5, r7
    9716:	e625      	b.n	9364 <__aeabi_dsub+0x18c>
    9718:	003d      	movs	r5, r7
    971a:	4661      	mov	r1, ip
    971c:	4691      	mov	r9, r2
    971e:	e678      	b.n	9412 <__aeabi_dsub+0x23a>
    9720:	000b      	movs	r3, r1
    9722:	4303      	orrs	r3, r0
    9724:	2d00      	cmp	r5, #0
    9726:	d000      	beq.n	972a <__aeabi_dsub+0x552>
    9728:	e655      	b.n	93d6 <__aeabi_dsub+0x1fe>
    972a:	2b00      	cmp	r3, #0
    972c:	d0f5      	beq.n	971a <__aeabi_dsub+0x542>
    972e:	4663      	mov	r3, ip
    9730:	4313      	orrs	r3, r2
    9732:	d100      	bne.n	9736 <__aeabi_dsub+0x55e>
    9734:	e66d      	b.n	9412 <__aeabi_dsub+0x23a>
    9736:	1886      	adds	r6, r0, r2
    9738:	4286      	cmp	r6, r0
    973a:	4180      	sbcs	r0, r0
    973c:	4461      	add	r1, ip
    973e:	4240      	negs	r0, r0
    9740:	1809      	adds	r1, r1, r0
    9742:	2200      	movs	r2, #0
    9744:	020b      	lsls	r3, r1, #8
    9746:	d400      	bmi.n	974a <__aeabi_dsub+0x572>
    9748:	e6d0      	b.n	94ec <__aeabi_dsub+0x314>
    974a:	4b46      	ldr	r3, [pc, #280]	; (9864 <__aeabi_dsub+0x68c>)
    974c:	3501      	adds	r5, #1
    974e:	4019      	ands	r1, r3
    9750:	e5b2      	b.n	92b8 <__aeabi_dsub+0xe0>
    9752:	46b1      	mov	r9, r6
    9754:	e65d      	b.n	9412 <__aeabi_dsub+0x23a>
    9756:	0033      	movs	r3, r6
    9758:	4667      	mov	r7, ip
    975a:	3b20      	subs	r3, #32
    975c:	40df      	lsrs	r7, r3
    975e:	003b      	movs	r3, r7
    9760:	2e20      	cmp	r6, #32
    9762:	d005      	beq.n	9770 <__aeabi_dsub+0x598>
    9764:	2740      	movs	r7, #64	; 0x40
    9766:	1bbf      	subs	r7, r7, r6
    9768:	4666      	mov	r6, ip
    976a:	40be      	lsls	r6, r7
    976c:	4332      	orrs	r2, r6
    976e:	4690      	mov	r8, r2
    9770:	4646      	mov	r6, r8
    9772:	1e72      	subs	r2, r6, #1
    9774:	4196      	sbcs	r6, r2
    9776:	4333      	orrs	r3, r6
    9778:	e5ef      	b.n	935a <__aeabi_dsub+0x182>
    977a:	4b39      	ldr	r3, [pc, #228]	; (9860 <__aeabi_dsub+0x688>)
    977c:	429f      	cmp	r7, r3
    977e:	d0cb      	beq.n	9718 <__aeabi_dsub+0x540>
    9780:	2580      	movs	r5, #128	; 0x80
    9782:	042d      	lsls	r5, r5, #16
    9784:	4273      	negs	r3, r6
    9786:	4329      	orrs	r1, r5
    9788:	e7a8      	b.n	96dc <__aeabi_dsub+0x504>
    978a:	4308      	orrs	r0, r1
    978c:	1e41      	subs	r1, r0, #1
    978e:	4188      	sbcs	r0, r1
    9790:	e6a2      	b.n	94d8 <__aeabi_dsub+0x300>
    9792:	2f00      	cmp	r7, #0
    9794:	d100      	bne.n	9798 <__aeabi_dsub+0x5c0>
    9796:	e63c      	b.n	9412 <__aeabi_dsub+0x23a>
    9798:	4663      	mov	r3, ip
    979a:	1a86      	subs	r6, r0, r2
    979c:	1acf      	subs	r7, r1, r3
    979e:	42b0      	cmp	r0, r6
    97a0:	419b      	sbcs	r3, r3
    97a2:	425b      	negs	r3, r3
    97a4:	1afb      	subs	r3, r7, r3
    97a6:	4698      	mov	r8, r3
    97a8:	021b      	lsls	r3, r3, #8
    97aa:	d54e      	bpl.n	984a <__aeabi_dsub+0x672>
    97ac:	1a16      	subs	r6, r2, r0
    97ae:	4663      	mov	r3, ip
    97b0:	42b2      	cmp	r2, r6
    97b2:	4192      	sbcs	r2, r2
    97b4:	1a59      	subs	r1, r3, r1
    97b6:	4252      	negs	r2, r2
    97b8:	1a89      	subs	r1, r1, r2
    97ba:	465c      	mov	r4, fp
    97bc:	2200      	movs	r2, #0
    97be:	e57b      	b.n	92b8 <__aeabi_dsub+0xe0>
    97c0:	4301      	orrs	r1, r0
    97c2:	000e      	movs	r6, r1
    97c4:	1e71      	subs	r1, r6, #1
    97c6:	418e      	sbcs	r6, r1
    97c8:	e79f      	b.n	970a <__aeabi_dsub+0x532>
    97ca:	001d      	movs	r5, r3
    97cc:	000e      	movs	r6, r1
    97ce:	3d20      	subs	r5, #32
    97d0:	40ee      	lsrs	r6, r5
    97d2:	46b0      	mov	r8, r6
    97d4:	2b20      	cmp	r3, #32
    97d6:	d004      	beq.n	97e2 <__aeabi_dsub+0x60a>
    97d8:	2540      	movs	r5, #64	; 0x40
    97da:	1aeb      	subs	r3, r5, r3
    97dc:	4099      	lsls	r1, r3
    97de:	4308      	orrs	r0, r1
    97e0:	4681      	mov	r9, r0
    97e2:	4648      	mov	r0, r9
    97e4:	4643      	mov	r3, r8
    97e6:	1e41      	subs	r1, r0, #1
    97e8:	4188      	sbcs	r0, r1
    97ea:	4318      	orrs	r0, r3
    97ec:	e674      	b.n	94d8 <__aeabi_dsub+0x300>
    97ee:	2200      	movs	r2, #0
    97f0:	2400      	movs	r4, #0
    97f2:	e617      	b.n	9424 <__aeabi_dsub+0x24c>
    97f4:	1a16      	subs	r6, r2, r0
    97f6:	4663      	mov	r3, ip
    97f8:	42b2      	cmp	r2, r6
    97fa:	4192      	sbcs	r2, r2
    97fc:	1a59      	subs	r1, r3, r1
    97fe:	4252      	negs	r2, r2
    9800:	1a89      	subs	r1, r1, r2
    9802:	003d      	movs	r5, r7
    9804:	e525      	b.n	9252 <__aeabi_dsub+0x7a>
    9806:	4661      	mov	r1, ip
    9808:	4691      	mov	r9, r2
    980a:	4d15      	ldr	r5, [pc, #84]	; (9860 <__aeabi_dsub+0x688>)
    980c:	e601      	b.n	9412 <__aeabi_dsub+0x23a>
    980e:	2280      	movs	r2, #128	; 0x80
    9810:	2400      	movs	r4, #0
    9812:	0312      	lsls	r2, r2, #12
    9814:	e679      	b.n	950a <__aeabi_dsub+0x332>
    9816:	001d      	movs	r5, r3
    9818:	000e      	movs	r6, r1
    981a:	3d20      	subs	r5, #32
    981c:	40ee      	lsrs	r6, r5
    981e:	46b0      	mov	r8, r6
    9820:	2b20      	cmp	r3, #32
    9822:	d004      	beq.n	982e <__aeabi_dsub+0x656>
    9824:	2540      	movs	r5, #64	; 0x40
    9826:	1aeb      	subs	r3, r5, r3
    9828:	4099      	lsls	r1, r3
    982a:	4308      	orrs	r0, r1
    982c:	4681      	mov	r9, r0
    982e:	464e      	mov	r6, r9
    9830:	4643      	mov	r3, r8
    9832:	1e71      	subs	r1, r6, #1
    9834:	418e      	sbcs	r6, r1
    9836:	431e      	orrs	r6, r3
    9838:	e767      	b.n	970a <__aeabi_dsub+0x532>
    983a:	1886      	adds	r6, r0, r2
    983c:	4296      	cmp	r6, r2
    983e:	419b      	sbcs	r3, r3
    9840:	4461      	add	r1, ip
    9842:	425b      	negs	r3, r3
    9844:	18c9      	adds	r1, r1, r3
    9846:	003d      	movs	r5, r7
    9848:	e58c      	b.n	9364 <__aeabi_dsub+0x18c>
    984a:	4647      	mov	r7, r8
    984c:	4337      	orrs	r7, r6
    984e:	d0ce      	beq.n	97ee <__aeabi_dsub+0x616>
    9850:	2207      	movs	r2, #7
    9852:	4641      	mov	r1, r8
    9854:	4032      	ands	r2, r6
    9856:	e649      	b.n	94ec <__aeabi_dsub+0x314>
    9858:	2700      	movs	r7, #0
    985a:	003a      	movs	r2, r7
    985c:	e5e6      	b.n	942c <__aeabi_dsub+0x254>
    985e:	46c0      	nop			; (mov r8, r8)
    9860:	000007ff 	.word	0x000007ff
    9864:	ff7fffff 	.word	0xff7fffff

00009868 <__aeabi_dcmpun>:
__aeabi_dcmpun():
    9868:	b570      	push	{r4, r5, r6, lr}
    986a:	4e0c      	ldr	r6, [pc, #48]	; (989c <__aeabi_dcmpun+0x34>)
    986c:	030d      	lsls	r5, r1, #12
    986e:	031c      	lsls	r4, r3, #12
    9870:	0049      	lsls	r1, r1, #1
    9872:	005b      	lsls	r3, r3, #1
    9874:	0b2d      	lsrs	r5, r5, #12
    9876:	0d49      	lsrs	r1, r1, #21
    9878:	0b24      	lsrs	r4, r4, #12
    987a:	0d5b      	lsrs	r3, r3, #21
    987c:	42b1      	cmp	r1, r6
    987e:	d008      	beq.n	9892 <__aeabi_dcmpun+0x2a>
    9880:	4906      	ldr	r1, [pc, #24]	; (989c <__aeabi_dcmpun+0x34>)
    9882:	2000      	movs	r0, #0
    9884:	428b      	cmp	r3, r1
    9886:	d103      	bne.n	9890 <__aeabi_dcmpun+0x28>
    9888:	4314      	orrs	r4, r2
    988a:	0020      	movs	r0, r4
    988c:	1e44      	subs	r4, r0, #1
    988e:	41a0      	sbcs	r0, r4
    9890:	bd70      	pop	{r4, r5, r6, pc}
    9892:	4305      	orrs	r5, r0
    9894:	2001      	movs	r0, #1
    9896:	2d00      	cmp	r5, #0
    9898:	d1fa      	bne.n	9890 <__aeabi_dcmpun+0x28>
    989a:	e7f1      	b.n	9880 <__aeabi_dcmpun+0x18>
    989c:	000007ff 	.word	0x000007ff

000098a0 <__aeabi_d2iz>:
__aeabi_d2iz():
    98a0:	b530      	push	{r4, r5, lr}
    98a2:	4d14      	ldr	r5, [pc, #80]	; (98f4 <__aeabi_d2iz+0x54>)
    98a4:	030a      	lsls	r2, r1, #12
    98a6:	004b      	lsls	r3, r1, #1
    98a8:	0b12      	lsrs	r2, r2, #12
    98aa:	0d5b      	lsrs	r3, r3, #21
    98ac:	0fc9      	lsrs	r1, r1, #31
    98ae:	2400      	movs	r4, #0
    98b0:	42ab      	cmp	r3, r5
    98b2:	dd11      	ble.n	98d8 <__aeabi_d2iz+0x38>
    98b4:	4c10      	ldr	r4, [pc, #64]	; (98f8 <__aeabi_d2iz+0x58>)
    98b6:	42a3      	cmp	r3, r4
    98b8:	dc10      	bgt.n	98dc <__aeabi_d2iz+0x3c>
    98ba:	2480      	movs	r4, #128	; 0x80
    98bc:	0364      	lsls	r4, r4, #13
    98be:	4322      	orrs	r2, r4
    98c0:	4c0e      	ldr	r4, [pc, #56]	; (98fc <__aeabi_d2iz+0x5c>)
    98c2:	1ae4      	subs	r4, r4, r3
    98c4:	2c1f      	cmp	r4, #31
    98c6:	dd0c      	ble.n	98e2 <__aeabi_d2iz+0x42>
    98c8:	480d      	ldr	r0, [pc, #52]	; (9900 <__aeabi_d2iz+0x60>)
    98ca:	1ac3      	subs	r3, r0, r3
    98cc:	40da      	lsrs	r2, r3
    98ce:	0013      	movs	r3, r2
    98d0:	425c      	negs	r4, r3
    98d2:	2900      	cmp	r1, #0
    98d4:	d100      	bne.n	98d8 <__aeabi_d2iz+0x38>
    98d6:	001c      	movs	r4, r3
    98d8:	0020      	movs	r0, r4
    98da:	bd30      	pop	{r4, r5, pc}
    98dc:	4b09      	ldr	r3, [pc, #36]	; (9904 <__aeabi_d2iz+0x64>)
    98de:	18cc      	adds	r4, r1, r3
    98e0:	e7fa      	b.n	98d8 <__aeabi_d2iz+0x38>
    98e2:	4d09      	ldr	r5, [pc, #36]	; (9908 <__aeabi_d2iz+0x68>)
    98e4:	40e0      	lsrs	r0, r4
    98e6:	46ac      	mov	ip, r5
    98e8:	4463      	add	r3, ip
    98ea:	409a      	lsls	r2, r3
    98ec:	0013      	movs	r3, r2
    98ee:	4303      	orrs	r3, r0
    98f0:	e7ee      	b.n	98d0 <__aeabi_d2iz+0x30>
    98f2:	46c0      	nop			; (mov r8, r8)
    98f4:	000003fe 	.word	0x000003fe
    98f8:	0000041d 	.word	0x0000041d
    98fc:	00000433 	.word	0x00000433
    9900:	00000413 	.word	0x00000413
    9904:	7fffffff 	.word	0x7fffffff
    9908:	fffffbed 	.word	0xfffffbed

0000990c <__aeabi_i2d>:
__aeabi_i2d():
    990c:	b570      	push	{r4, r5, r6, lr}
    990e:	2800      	cmp	r0, #0
    9910:	d02d      	beq.n	996e <__aeabi_i2d+0x62>
    9912:	17c3      	asrs	r3, r0, #31
    9914:	18c5      	adds	r5, r0, r3
    9916:	405d      	eors	r5, r3
    9918:	0fc4      	lsrs	r4, r0, #31
    991a:	0028      	movs	r0, r5
    991c:	f000 f938 	bl	9b90 <__clzsi2>
    9920:	4b15      	ldr	r3, [pc, #84]	; (9978 <__aeabi_i2d+0x6c>)
    9922:	1a1b      	subs	r3, r3, r0
    9924:	055b      	lsls	r3, r3, #21
    9926:	0d5b      	lsrs	r3, r3, #21
    9928:	280a      	cmp	r0, #10
    992a:	dd15      	ble.n	9958 <__aeabi_i2d+0x4c>
    992c:	380b      	subs	r0, #11
    992e:	4085      	lsls	r5, r0
    9930:	2200      	movs	r2, #0
    9932:	032d      	lsls	r5, r5, #12
    9934:	0b2d      	lsrs	r5, r5, #12
    9936:	2100      	movs	r1, #0
    9938:	0010      	movs	r0, r2
    993a:	032d      	lsls	r5, r5, #12
    993c:	0d0a      	lsrs	r2, r1, #20
    993e:	0b2d      	lsrs	r5, r5, #12
    9940:	0512      	lsls	r2, r2, #20
    9942:	432a      	orrs	r2, r5
    9944:	4d0d      	ldr	r5, [pc, #52]	; (997c <__aeabi_i2d+0x70>)
    9946:	051b      	lsls	r3, r3, #20
    9948:	402a      	ands	r2, r5
    994a:	4313      	orrs	r3, r2
    994c:	005b      	lsls	r3, r3, #1
    994e:	07e4      	lsls	r4, r4, #31
    9950:	085b      	lsrs	r3, r3, #1
    9952:	4323      	orrs	r3, r4
    9954:	0019      	movs	r1, r3
    9956:	bd70      	pop	{r4, r5, r6, pc}
    9958:	0002      	movs	r2, r0
    995a:	0029      	movs	r1, r5
    995c:	3215      	adds	r2, #21
    995e:	4091      	lsls	r1, r2
    9960:	000a      	movs	r2, r1
    9962:	210b      	movs	r1, #11
    9964:	1a08      	subs	r0, r1, r0
    9966:	40c5      	lsrs	r5, r0
    9968:	032d      	lsls	r5, r5, #12
    996a:	0b2d      	lsrs	r5, r5, #12
    996c:	e7e3      	b.n	9936 <__aeabi_i2d+0x2a>
    996e:	2400      	movs	r4, #0
    9970:	2300      	movs	r3, #0
    9972:	2500      	movs	r5, #0
    9974:	2200      	movs	r2, #0
    9976:	e7de      	b.n	9936 <__aeabi_i2d+0x2a>
    9978:	0000041e 	.word	0x0000041e
    997c:	800fffff 	.word	0x800fffff

00009980 <__aeabi_ui2d>:
__aeabi_ui2d():
    9980:	b510      	push	{r4, lr}
    9982:	1e04      	subs	r4, r0, #0
    9984:	d025      	beq.n	99d2 <__aeabi_ui2d+0x52>
    9986:	f000 f903 	bl	9b90 <__clzsi2>
    998a:	4b14      	ldr	r3, [pc, #80]	; (99dc <__aeabi_ui2d+0x5c>)
    998c:	1a1b      	subs	r3, r3, r0
    998e:	055b      	lsls	r3, r3, #21
    9990:	0d5b      	lsrs	r3, r3, #21
    9992:	280a      	cmp	r0, #10
    9994:	dd12      	ble.n	99bc <__aeabi_ui2d+0x3c>
    9996:	380b      	subs	r0, #11
    9998:	4084      	lsls	r4, r0
    999a:	2200      	movs	r2, #0
    999c:	0324      	lsls	r4, r4, #12
    999e:	0b24      	lsrs	r4, r4, #12
    99a0:	2100      	movs	r1, #0
    99a2:	0010      	movs	r0, r2
    99a4:	0324      	lsls	r4, r4, #12
    99a6:	0d0a      	lsrs	r2, r1, #20
    99a8:	0b24      	lsrs	r4, r4, #12
    99aa:	0512      	lsls	r2, r2, #20
    99ac:	4322      	orrs	r2, r4
    99ae:	4c0c      	ldr	r4, [pc, #48]	; (99e0 <__aeabi_ui2d+0x60>)
    99b0:	051b      	lsls	r3, r3, #20
    99b2:	4022      	ands	r2, r4
    99b4:	4313      	orrs	r3, r2
    99b6:	005b      	lsls	r3, r3, #1
    99b8:	0859      	lsrs	r1, r3, #1
    99ba:	bd10      	pop	{r4, pc}
    99bc:	0002      	movs	r2, r0
    99be:	0021      	movs	r1, r4
    99c0:	3215      	adds	r2, #21
    99c2:	4091      	lsls	r1, r2
    99c4:	000a      	movs	r2, r1
    99c6:	210b      	movs	r1, #11
    99c8:	1a08      	subs	r0, r1, r0
    99ca:	40c4      	lsrs	r4, r0
    99cc:	0324      	lsls	r4, r4, #12
    99ce:	0b24      	lsrs	r4, r4, #12
    99d0:	e7e6      	b.n	99a0 <__aeabi_ui2d+0x20>
    99d2:	2300      	movs	r3, #0
    99d4:	2400      	movs	r4, #0
    99d6:	2200      	movs	r2, #0
    99d8:	e7e2      	b.n	99a0 <__aeabi_ui2d+0x20>
    99da:	46c0      	nop			; (mov r8, r8)
    99dc:	0000041e 	.word	0x0000041e
    99e0:	800fffff 	.word	0x800fffff

000099e4 <__aeabi_f2d>:
__aeabi_f2d():
    99e4:	0041      	lsls	r1, r0, #1
    99e6:	0e09      	lsrs	r1, r1, #24
    99e8:	1c4b      	adds	r3, r1, #1
    99ea:	b570      	push	{r4, r5, r6, lr}
    99ec:	b2db      	uxtb	r3, r3
    99ee:	0246      	lsls	r6, r0, #9
    99f0:	0a75      	lsrs	r5, r6, #9
    99f2:	0fc4      	lsrs	r4, r0, #31
    99f4:	2b01      	cmp	r3, #1
    99f6:	dd14      	ble.n	9a22 <__aeabi_f2d+0x3e>
    99f8:	23e0      	movs	r3, #224	; 0xe0
    99fa:	009b      	lsls	r3, r3, #2
    99fc:	076d      	lsls	r5, r5, #29
    99fe:	0b36      	lsrs	r6, r6, #12
    9a00:	18cb      	adds	r3, r1, r3
    9a02:	2100      	movs	r1, #0
    9a04:	0d0a      	lsrs	r2, r1, #20
    9a06:	0028      	movs	r0, r5
    9a08:	0512      	lsls	r2, r2, #20
    9a0a:	4d1c      	ldr	r5, [pc, #112]	; (9a7c <__aeabi_f2d+0x98>)
    9a0c:	4332      	orrs	r2, r6
    9a0e:	055b      	lsls	r3, r3, #21
    9a10:	402a      	ands	r2, r5
    9a12:	085b      	lsrs	r3, r3, #1
    9a14:	4313      	orrs	r3, r2
    9a16:	005b      	lsls	r3, r3, #1
    9a18:	07e4      	lsls	r4, r4, #31
    9a1a:	085b      	lsrs	r3, r3, #1
    9a1c:	4323      	orrs	r3, r4
    9a1e:	0019      	movs	r1, r3
    9a20:	bd70      	pop	{r4, r5, r6, pc}
    9a22:	2900      	cmp	r1, #0
    9a24:	d114      	bne.n	9a50 <__aeabi_f2d+0x6c>
    9a26:	2d00      	cmp	r5, #0
    9a28:	d01e      	beq.n	9a68 <__aeabi_f2d+0x84>
    9a2a:	0028      	movs	r0, r5
    9a2c:	f000 f8b0 	bl	9b90 <__clzsi2>
    9a30:	280a      	cmp	r0, #10
    9a32:	dc1c      	bgt.n	9a6e <__aeabi_f2d+0x8a>
    9a34:	230b      	movs	r3, #11
    9a36:	002a      	movs	r2, r5
    9a38:	1a1b      	subs	r3, r3, r0
    9a3a:	40da      	lsrs	r2, r3
    9a3c:	0003      	movs	r3, r0
    9a3e:	3315      	adds	r3, #21
    9a40:	409d      	lsls	r5, r3
    9a42:	4b0f      	ldr	r3, [pc, #60]	; (9a80 <__aeabi_f2d+0x9c>)
    9a44:	0312      	lsls	r2, r2, #12
    9a46:	1a1b      	subs	r3, r3, r0
    9a48:	055b      	lsls	r3, r3, #21
    9a4a:	0b16      	lsrs	r6, r2, #12
    9a4c:	0d5b      	lsrs	r3, r3, #21
    9a4e:	e7d8      	b.n	9a02 <__aeabi_f2d+0x1e>
    9a50:	2d00      	cmp	r5, #0
    9a52:	d006      	beq.n	9a62 <__aeabi_f2d+0x7e>
    9a54:	0b32      	lsrs	r2, r6, #12
    9a56:	2680      	movs	r6, #128	; 0x80
    9a58:	0336      	lsls	r6, r6, #12
    9a5a:	076d      	lsls	r5, r5, #29
    9a5c:	4316      	orrs	r6, r2
    9a5e:	4b09      	ldr	r3, [pc, #36]	; (9a84 <__aeabi_f2d+0xa0>)
    9a60:	e7cf      	b.n	9a02 <__aeabi_f2d+0x1e>
    9a62:	4b08      	ldr	r3, [pc, #32]	; (9a84 <__aeabi_f2d+0xa0>)
    9a64:	2600      	movs	r6, #0
    9a66:	e7cc      	b.n	9a02 <__aeabi_f2d+0x1e>
    9a68:	2300      	movs	r3, #0
    9a6a:	2600      	movs	r6, #0
    9a6c:	e7c9      	b.n	9a02 <__aeabi_f2d+0x1e>
    9a6e:	0003      	movs	r3, r0
    9a70:	002a      	movs	r2, r5
    9a72:	3b0b      	subs	r3, #11
    9a74:	409a      	lsls	r2, r3
    9a76:	2500      	movs	r5, #0
    9a78:	e7e3      	b.n	9a42 <__aeabi_f2d+0x5e>
    9a7a:	46c0      	nop			; (mov r8, r8)
    9a7c:	800fffff 	.word	0x800fffff
    9a80:	00000389 	.word	0x00000389
    9a84:	000007ff 	.word	0x000007ff

00009a88 <__aeabi_d2f>:
__aeabi_d2f():
    9a88:	b5f0      	push	{r4, r5, r6, r7, lr}
    9a8a:	004c      	lsls	r4, r1, #1
    9a8c:	0d64      	lsrs	r4, r4, #21
    9a8e:	030b      	lsls	r3, r1, #12
    9a90:	1c62      	adds	r2, r4, #1
    9a92:	0a5b      	lsrs	r3, r3, #9
    9a94:	0f46      	lsrs	r6, r0, #29
    9a96:	0552      	lsls	r2, r2, #21
    9a98:	0fc9      	lsrs	r1, r1, #31
    9a9a:	431e      	orrs	r6, r3
    9a9c:	00c5      	lsls	r5, r0, #3
    9a9e:	0d52      	lsrs	r2, r2, #21
    9aa0:	2a01      	cmp	r2, #1
    9aa2:	dd29      	ble.n	9af8 <__aeabi_d2f+0x70>
    9aa4:	4b37      	ldr	r3, [pc, #220]	; (9b84 <__aeabi_d2f+0xfc>)
    9aa6:	18e7      	adds	r7, r4, r3
    9aa8:	2ffe      	cmp	r7, #254	; 0xfe
    9aaa:	dc1c      	bgt.n	9ae6 <__aeabi_d2f+0x5e>
    9aac:	2f00      	cmp	r7, #0
    9aae:	dd3b      	ble.n	9b28 <__aeabi_d2f+0xa0>
    9ab0:	0180      	lsls	r0, r0, #6
    9ab2:	1e43      	subs	r3, r0, #1
    9ab4:	4198      	sbcs	r0, r3
    9ab6:	2207      	movs	r2, #7
    9ab8:	00f3      	lsls	r3, r6, #3
    9aba:	0f6d      	lsrs	r5, r5, #29
    9abc:	4303      	orrs	r3, r0
    9abe:	432b      	orrs	r3, r5
    9ac0:	401a      	ands	r2, r3
    9ac2:	2a00      	cmp	r2, #0
    9ac4:	d004      	beq.n	9ad0 <__aeabi_d2f+0x48>
    9ac6:	220f      	movs	r2, #15
    9ac8:	401a      	ands	r2, r3
    9aca:	2a04      	cmp	r2, #4
    9acc:	d000      	beq.n	9ad0 <__aeabi_d2f+0x48>
    9ace:	3304      	adds	r3, #4
    9ad0:	2280      	movs	r2, #128	; 0x80
    9ad2:	04d2      	lsls	r2, r2, #19
    9ad4:	401a      	ands	r2, r3
    9ad6:	d024      	beq.n	9b22 <__aeabi_d2f+0x9a>
    9ad8:	3701      	adds	r7, #1
    9ada:	b2fa      	uxtb	r2, r7
    9adc:	2fff      	cmp	r7, #255	; 0xff
    9ade:	d002      	beq.n	9ae6 <__aeabi_d2f+0x5e>
    9ae0:	019b      	lsls	r3, r3, #6
    9ae2:	0a58      	lsrs	r0, r3, #9
    9ae4:	e001      	b.n	9aea <__aeabi_d2f+0x62>
    9ae6:	22ff      	movs	r2, #255	; 0xff
    9ae8:	2000      	movs	r0, #0
    9aea:	0240      	lsls	r0, r0, #9
    9aec:	05d2      	lsls	r2, r2, #23
    9aee:	0a40      	lsrs	r0, r0, #9
    9af0:	07c9      	lsls	r1, r1, #31
    9af2:	4310      	orrs	r0, r2
    9af4:	4308      	orrs	r0, r1
    9af6:	bdf0      	pop	{r4, r5, r6, r7, pc}
    9af8:	4335      	orrs	r5, r6
    9afa:	2c00      	cmp	r4, #0
    9afc:	d104      	bne.n	9b08 <__aeabi_d2f+0x80>
    9afe:	2d00      	cmp	r5, #0
    9b00:	d10a      	bne.n	9b18 <__aeabi_d2f+0x90>
    9b02:	2200      	movs	r2, #0
    9b04:	2000      	movs	r0, #0
    9b06:	e7f0      	b.n	9aea <__aeabi_d2f+0x62>
    9b08:	2d00      	cmp	r5, #0
    9b0a:	d0ec      	beq.n	9ae6 <__aeabi_d2f+0x5e>
    9b0c:	2080      	movs	r0, #128	; 0x80
    9b0e:	03c0      	lsls	r0, r0, #15
    9b10:	4330      	orrs	r0, r6
    9b12:	22ff      	movs	r2, #255	; 0xff
    9b14:	e7e9      	b.n	9aea <__aeabi_d2f+0x62>
    9b16:	2400      	movs	r4, #0
    9b18:	2300      	movs	r3, #0
    9b1a:	025b      	lsls	r3, r3, #9
    9b1c:	0a58      	lsrs	r0, r3, #9
    9b1e:	b2e2      	uxtb	r2, r4
    9b20:	e7e3      	b.n	9aea <__aeabi_d2f+0x62>
    9b22:	08db      	lsrs	r3, r3, #3
    9b24:	003c      	movs	r4, r7
    9b26:	e7f8      	b.n	9b1a <__aeabi_d2f+0x92>
    9b28:	003b      	movs	r3, r7
    9b2a:	3317      	adds	r3, #23
    9b2c:	dbf3      	blt.n	9b16 <__aeabi_d2f+0x8e>
    9b2e:	2380      	movs	r3, #128	; 0x80
    9b30:	041b      	lsls	r3, r3, #16
    9b32:	4333      	orrs	r3, r6
    9b34:	261e      	movs	r6, #30
    9b36:	1bf6      	subs	r6, r6, r7
    9b38:	2e1f      	cmp	r6, #31
    9b3a:	dd14      	ble.n	9b66 <__aeabi_d2f+0xde>
    9b3c:	2202      	movs	r2, #2
    9b3e:	4252      	negs	r2, r2
    9b40:	1bd7      	subs	r7, r2, r7
    9b42:	001a      	movs	r2, r3
    9b44:	40fa      	lsrs	r2, r7
    9b46:	0017      	movs	r7, r2
    9b48:	2e20      	cmp	r6, #32
    9b4a:	d004      	beq.n	9b56 <__aeabi_d2f+0xce>
    9b4c:	4a0e      	ldr	r2, [pc, #56]	; (9b88 <__aeabi_d2f+0x100>)
    9b4e:	4694      	mov	ip, r2
    9b50:	4464      	add	r4, ip
    9b52:	40a3      	lsls	r3, r4
    9b54:	431d      	orrs	r5, r3
    9b56:	002b      	movs	r3, r5
    9b58:	1e5d      	subs	r5, r3, #1
    9b5a:	41ab      	sbcs	r3, r5
    9b5c:	2207      	movs	r2, #7
    9b5e:	433b      	orrs	r3, r7
    9b60:	401a      	ands	r2, r3
    9b62:	2700      	movs	r7, #0
    9b64:	e7ad      	b.n	9ac2 <__aeabi_d2f+0x3a>
    9b66:	4a09      	ldr	r2, [pc, #36]	; (9b8c <__aeabi_d2f+0x104>)
    9b68:	0028      	movs	r0, r5
    9b6a:	18a2      	adds	r2, r4, r2
    9b6c:	4095      	lsls	r5, r2
    9b6e:	4093      	lsls	r3, r2
    9b70:	1e6c      	subs	r4, r5, #1
    9b72:	41a5      	sbcs	r5, r4
    9b74:	40f0      	lsrs	r0, r6
    9b76:	2207      	movs	r2, #7
    9b78:	432b      	orrs	r3, r5
    9b7a:	4303      	orrs	r3, r0
    9b7c:	401a      	ands	r2, r3
    9b7e:	2700      	movs	r7, #0
    9b80:	e79f      	b.n	9ac2 <__aeabi_d2f+0x3a>
    9b82:	46c0      	nop			; (mov r8, r8)
    9b84:	fffffc80 	.word	0xfffffc80
    9b88:	fffffca2 	.word	0xfffffca2
    9b8c:	fffffc82 	.word	0xfffffc82

00009b90 <__clzsi2>:
__clzsi2():
    9b90:	211c      	movs	r1, #28
    9b92:	2301      	movs	r3, #1
    9b94:	041b      	lsls	r3, r3, #16
    9b96:	4298      	cmp	r0, r3
    9b98:	d301      	bcc.n	9b9e <__clzsi2+0xe>
    9b9a:	0c00      	lsrs	r0, r0, #16
    9b9c:	3910      	subs	r1, #16
    9b9e:	0a1b      	lsrs	r3, r3, #8
    9ba0:	4298      	cmp	r0, r3
    9ba2:	d301      	bcc.n	9ba8 <__clzsi2+0x18>
    9ba4:	0a00      	lsrs	r0, r0, #8
    9ba6:	3908      	subs	r1, #8
    9ba8:	091b      	lsrs	r3, r3, #4
    9baa:	4298      	cmp	r0, r3
    9bac:	d301      	bcc.n	9bb2 <__clzsi2+0x22>
    9bae:	0900      	lsrs	r0, r0, #4
    9bb0:	3904      	subs	r1, #4
    9bb2:	a202      	add	r2, pc, #8	; (adr r2, 9bbc <__clzsi2+0x2c>)
    9bb4:	5c10      	ldrb	r0, [r2, r0]
    9bb6:	1840      	adds	r0, r0, r1
    9bb8:	4770      	bx	lr
    9bba:	46c0      	nop			; (mov r8, r8)
    9bbc:	02020304 	.word	0x02020304
    9bc0:	01010101 	.word	0x01010101
	...

00009bcc <__clzdi2>:
__clzdi2():
    9bcc:	b510      	push	{r4, lr}
    9bce:	2900      	cmp	r1, #0
    9bd0:	d103      	bne.n	9bda <__clzdi2+0xe>
    9bd2:	f7ff ffdd 	bl	9b90 <__clzsi2>
    9bd6:	3020      	adds	r0, #32
    9bd8:	e002      	b.n	9be0 <__clzdi2+0x14>
    9bda:	1c08      	adds	r0, r1, #0
    9bdc:	f7ff ffd8 	bl	9b90 <__clzsi2>
    9be0:	bd10      	pop	{r4, pc}
    9be2:	46c0      	nop			; (mov r8, r8)

00009be4 <strlen>:
strlen():
    9be4:	2300      	movs	r3, #0
    9be6:	5cc2      	ldrb	r2, [r0, r3]
    9be8:	3301      	adds	r3, #1
    9bea:	2a00      	cmp	r2, #0
    9bec:	d1fb      	bne.n	9be6 <strlen+0x2>
    9bee:	1e58      	subs	r0, r3, #1
    9bf0:	4770      	bx	lr

00009bf2 <GPIOA_Handler>:
__disable_irq():
D:\zhangqiang\DiplomaProject\experiment\UE\User_NB-IoT_Frame(KL36)(A.50)-190816\02_Core/core_cmFunc.h:344
  This function disables IRQ interrupts by setting the I-bit in the CPSR.
  Can only be executed in Privileged modes.
 */
__attribute__( ( always_inline ) ) __STATIC_INLINE void __disable_irq(void)
{
  __ASM volatile ("cpsid i" : : : "memory");
    9bf2:	b672      	cpsid	i
__enable_irq():
D:\zhangqiang\DiplomaProject\experiment\UE\User_NB-IoT_Frame(KL36)(A.50)-190816\02_Core/core_cmFunc.h:333
  __ASM volatile ("cpsie i" : : : "memory");
    9bf4:	b662      	cpsie	i
GPIOA_Handler():
D:\zhangqiang\DiplomaProject\experiment\UE\User_NB-IoT_Frame(KL36)(A.50)-190816\Debug/../07_NosPrg/isr.c:23
	//------------------------------------------------------------------
	//（在此处增加功能）

	//------------------------------------------------------------------
	ENABLE_INTERRUPTS;     //关总中断
}
    9bf6:	4770      	bx	lr

00009bf8 <GPIOB_Handler>:
__disable_irq():
D:\zhangqiang\DiplomaProject\experiment\UE\User_NB-IoT_Frame(KL36)(A.50)-190816\02_Core/core_cmFunc.h:344
  __ASM volatile ("cpsid i" : : : "memory");
    9bf8:	b672      	cpsid	i
__enable_irq():
D:\zhangqiang\DiplomaProject\experiment\UE\User_NB-IoT_Frame(KL36)(A.50)-190816\02_Core/core_cmFunc.h:333
  __ASM volatile ("cpsie i" : : : "memory");
    9bfa:	b662      	cpsie	i
GPIOB_Handler():
D:\zhangqiang\DiplomaProject\experiment\UE\User_NB-IoT_Frame(KL36)(A.50)-190816\Debug/../07_NosPrg/isr.c:39
	//------------------------------------------------------------------
	//（在此处增加功能）

	//------------------------------------------------------------------
	ENABLE_INTERRUPTS;     //关总中断
}
    9bfc:	4770      	bx	lr
	...

00009c00 <UARTA_Handler>:
UARTA_Handler():
D:\zhangqiang\DiplomaProject\experiment\UE\User_NB-IoT_Frame(KL36)(A.50)-190816\Debug/../07_NosPrg/isr.c:48
//触发条件：UARTA收到一个字节触发
//备    注：进入本程序后，可使用uart_get_re_int函数可再进行中断标志判断
//          （1-有UART接收中断，0-没有UART接收中断）
//======================================================================
void UARTA_Handler(void)
{
    9c00:	b510      	push	{r4, lr}
    9c02:	b082      	sub	sp, #8
__disable_irq():
D:\zhangqiang\DiplomaProject\experiment\UE\User_NB-IoT_Frame(KL36)(A.50)-190816\02_Core/core_cmFunc.h:344
  __ASM volatile ("cpsid i" : : : "memory");
    9c04:	b672      	cpsid	i
UARTA_Handler():
D:\zhangqiang\DiplomaProject\experiment\UE\User_NB-IoT_Frame(KL36)(A.50)-190816\Debug/../07_NosPrg/isr.c:56
	uint_8 flag;

	DISABLE_INTERRUPTS;      //关总中断
	//------------------------------------------------------------------
	//接收一个字节
	ch = uart_re1(UART_USER, &flag);   //调用接收一个字节的函数，清接收中断位
    9c06:	466b      	mov	r3, sp
    9c08:	1ddc      	adds	r4, r3, #7
    9c0a:	4b0b      	ldr	r3, [pc, #44]	; (9c38 <UARTA_Handler+0x38>)
    9c0c:	681a      	ldr	r2, [r3, #0]
    9c0e:	239e      	movs	r3, #158	; 0x9e
    9c10:	005b      	lsls	r3, r3, #1
    9c12:	58d3      	ldr	r3, [r2, r3]
    9c14:	0021      	movs	r1, r4
    9c16:	2000      	movs	r0, #0
    9c18:	4798      	blx	r3
D:\zhangqiang\DiplomaProject\experiment\UE\User_NB-IoT_Frame(KL36)(A.50)-190816\Debug/../07_NosPrg/isr.c:57
	if(flag)   //有数据
    9c1a:	7823      	ldrb	r3, [r4, #0]
    9c1c:	2b00      	cmp	r3, #0
    9c1e:	d007      	beq.n	9c30 <UARTA_Handler+0x30>
D:\zhangqiang\DiplomaProject\experiment\UE\User_NB-IoT_Frame(KL36)(A.50)-190816\Debug/../07_NosPrg/isr.c:59
	{
		uart_send1(UART_USER,ch);//回发接收到的字节
    9c20:	4b05      	ldr	r3, [pc, #20]	; (9c38 <UARTA_Handler+0x38>)
    9c22:	681a      	ldr	r2, [r3, #0]
    9c24:	2398      	movs	r3, #152	; 0x98
    9c26:	005b      	lsls	r3, r3, #1
    9c28:	58d3      	ldr	r3, [r2, r3]
    9c2a:	0001      	movs	r1, r0
    9c2c:	2000      	movs	r0, #0
    9c2e:	4798      	blx	r3
__enable_irq():
D:\zhangqiang\DiplomaProject\experiment\UE\User_NB-IoT_Frame(KL36)(A.50)-190816\02_Core/core_cmFunc.h:333
  __ASM volatile ("cpsie i" : : : "memory");
    9c30:	b662      	cpsie	i
UARTA_Handler():
D:\zhangqiang\DiplomaProject\experiment\UE\User_NB-IoT_Frame(KL36)(A.50)-190816\Debug/../07_NosPrg/isr.c:63
	}
	//------------------------------------------------------------------
	ENABLE_INTERRUPTS;       //开总中断
}
    9c32:	b002      	add	sp, #8
    9c34:	bd10      	pop	{r4, pc}
    9c36:	46c0      	nop			; (mov r8, r8)
    9c38:	20000568 	.word	0x20000568

00009c3c <SPIA_Handler>:
__disable_irq():
D:\zhangqiang\DiplomaProject\experiment\UE\User_NB-IoT_Frame(KL36)(A.50)-190816\02_Core/core_cmFunc.h:344
  __ASM volatile ("cpsid i" : : : "memory");
    9c3c:	b672      	cpsid	i
__enable_irq():
D:\zhangqiang\DiplomaProject\experiment\UE\User_NB-IoT_Frame(KL36)(A.50)-190816\02_Core/core_cmFunc.h:333
  __ASM volatile ("cpsie i" : : : "memory");
    9c3e:	b662      	cpsie	i
SPIA_Handler():
D:\zhangqiang\DiplomaProject\experiment\UE\User_NB-IoT_Frame(KL36)(A.50)-190816\Debug/../07_NosPrg/isr.c:78
	//------------------------------------------------------------------
	//（在此处增加功能）

	//------------------------------------------------------------------
	ENABLE_INTERRUPTS;     //关总中断
}
    9c40:	4770      	bx	lr

00009c42 <SPIB_Handler>:
__disable_irq():
D:\zhangqiang\DiplomaProject\experiment\UE\User_NB-IoT_Frame(KL36)(A.50)-190816\02_Core/core_cmFunc.h:344
  __ASM volatile ("cpsid i" : : : "memory");
    9c42:	b672      	cpsid	i
__enable_irq():
D:\zhangqiang\DiplomaProject\experiment\UE\User_NB-IoT_Frame(KL36)(A.50)-190816\02_Core/core_cmFunc.h:333
  __ASM volatile ("cpsie i" : : : "memory");
    9c44:	b662      	cpsie	i
SPIB_Handler():
D:\zhangqiang\DiplomaProject\experiment\UE\User_NB-IoT_Frame(KL36)(A.50)-190816\Debug/../07_NosPrg/isr.c:92
	//------------------------------------------------------------------
	//（在此处增加功能）

	//------------------------------------------------------------------
	ENABLE_INTERRUPTS;     //关总中断
}
    9c46:	4770      	bx	lr

00009c48 <I2CA_Handler>:
__disable_irq():
D:\zhangqiang\DiplomaProject\experiment\UE\User_NB-IoT_Frame(KL36)(A.50)-190816\02_Core/core_cmFunc.h:344
  __ASM volatile ("cpsid i" : : : "memory");
    9c48:	b672      	cpsid	i
__enable_irq():
D:\zhangqiang\DiplomaProject\experiment\UE\User_NB-IoT_Frame(KL36)(A.50)-190816\02_Core/core_cmFunc.h:333
  __ASM volatile ("cpsie i" : : : "memory");
    9c4a:	b662      	cpsie	i
I2CA_Handler():
D:\zhangqiang\DiplomaProject\experiment\UE\User_NB-IoT_Frame(KL36)(A.50)-190816\Debug/../07_NosPrg/isr.c:106
	//------------------------------------------------------------------
	//（在此处增加功能）

	//------------------------------------------------------------------
	ENABLE_INTERRUPTS;     //关总中断
}
    9c4c:	4770      	bx	lr

00009c4e <I2CB_Handler>:
__disable_irq():
D:\zhangqiang\DiplomaProject\experiment\UE\User_NB-IoT_Frame(KL36)(A.50)-190816\02_Core/core_cmFunc.h:344
  __ASM volatile ("cpsid i" : : : "memory");
    9c4e:	b672      	cpsid	i
__enable_irq():
D:\zhangqiang\DiplomaProject\experiment\UE\User_NB-IoT_Frame(KL36)(A.50)-190816\02_Core/core_cmFunc.h:333
  __ASM volatile ("cpsie i" : : : "memory");
    9c50:	b662      	cpsie	i
I2CB_Handler():
D:\zhangqiang\DiplomaProject\experiment\UE\User_NB-IoT_Frame(KL36)(A.50)-190816\Debug/../07_NosPrg/isr.c:121
	//------------------------------------------------------------------
	//（在此处增加功能）

	//------------------------------------------------------------------
	ENABLE_INTERRUPTS;     //关总中断
}
    9c52:	4770      	bx	lr

00009c54 <TSI_Handler>:
TSI_Handler():
D:\zhangqiang\DiplomaProject\experiment\UE\User_NB-IoT_Frame(KL36)(A.50)-190816\Debug/../07_NosPrg/isr.c:131
//程序名称：TSI中断处理程序
//触发条件：TSI通道超值中断，可设置其触发阈值的上下限，当TSI通道计数器超出
//         阈值范围时触发此中断
//======================================================================
void TSI_Handler(void)
{
    9c54:	b500      	push	{lr}
    9c56:	b087      	sub	sp, #28
__disable_irq():
D:\zhangqiang\DiplomaProject\experiment\UE\User_NB-IoT_Frame(KL36)(A.50)-190816\02_Core/core_cmFunc.h:344
  __ASM volatile ("cpsid i" : : : "memory");
    9c58:	b672      	cpsid	i
TSI_Handler():
D:\zhangqiang\DiplomaProject\experiment\UE\User_NB-IoT_Frame(KL36)(A.50)-190816\Debug/../07_NosPrg/isr.c:138
	uint_16 i;
	uint_8 touchNum[10];
	DISABLE_INTERRUPTS;                        //关总中断
	//------------------------------------------------------------------
	//（在此处增加功能）
	if(tsi_get_int(TSI_TOUCH))     //若为TSI超值中断
    9c5a:	2003      	movs	r0, #3
    9c5c:	f003 fa82 	bl	d164 <tsi_get_int>
    9c60:	2800      	cmp	r0, #0
    9c62:	d105      	bne.n	9c70 <TSI_Handler+0x1c>
D:\zhangqiang\DiplomaProject\experiment\UE\User_NB-IoT_Frame(KL36)(A.50)-190816\Debug/../07_NosPrg/isr.c:149
			gUserData.touchNum++;
			LCD_ShowString(36,189,BLUE,GRAY,   //LCD上显示TSI触摸次数
					(uint_8 *)IntConvertToStr(gUserData.touchNum,touchNum));
		}
	}
	tsi_clear_int(TSI_TOUCH);
    9c64:	2003      	movs	r0, #3
    9c66:	f003 fa83 	bl	d170 <tsi_clear_int>
__enable_irq():
D:\zhangqiang\DiplomaProject\experiment\UE\User_NB-IoT_Frame(KL36)(A.50)-190816\02_Core/core_cmFunc.h:333
  __ASM volatile ("cpsie i" : : : "memory");
    9c6a:	b662      	cpsie	i
TSI_Handler():
D:\zhangqiang\DiplomaProject\experiment\UE\User_NB-IoT_Frame(KL36)(A.50)-190816\Debug/../07_NosPrg/isr.c:152
	//------------------------------------------------------------------
	ENABLE_INTERRUPTS;                        //开总中断
}
    9c6c:	b007      	add	sp, #28
    9c6e:	bd00      	pop	{pc}
D:\zhangqiang\DiplomaProject\experiment\UE\User_NB-IoT_Frame(KL36)(A.50)-190816\Debug/../07_NosPrg/isr.c:141
		i = tsi_get_value(TSI_TOUCH);//读取计数寄存器中的值;
    9c70:	2003      	movs	r0, #3
    9c72:	f003 fa39 	bl	d0e8 <tsi_get_value>
D:\zhangqiang\DiplomaProject\experiment\UE\User_NB-IoT_Frame(KL36)(A.50)-190816\Debug/../07_NosPrg/isr.c:142
		if(i>500)                              //判断是否为一次有效触摸
    9c76:	23fa      	movs	r3, #250	; 0xfa
    9c78:	005b      	lsls	r3, r3, #1
    9c7a:	4298      	cmp	r0, r3
    9c7c:	d9f2      	bls.n	9c64 <TSI_Handler+0x10>
D:\zhangqiang\DiplomaProject\experiment\UE\User_NB-IoT_Frame(KL36)(A.50)-190816\Debug/../07_NosPrg/isr.c:144
			gUserData.touchNum++;
    9c7e:	4b0c      	ldr	r3, [pc, #48]	; (9cb0 <TSI_Handler+0x5c>)
    9c80:	22e8      	movs	r2, #232	; 0xe8
    9c82:	5c99      	ldrb	r1, [r3, r2]
    9c84:	20e9      	movs	r0, #233	; 0xe9
    9c86:	5c18      	ldrb	r0, [r3, r0]
    9c88:	0200      	lsls	r0, r0, #8
    9c8a:	4308      	orrs	r0, r1
    9c8c:	3001      	adds	r0, #1
    9c8e:	b280      	uxth	r0, r0
    9c90:	5498      	strb	r0, [r3, r2]
    9c92:	0a02      	lsrs	r2, r0, #8
    9c94:	33e8      	adds	r3, #232	; 0xe8
    9c96:	705a      	strb	r2, [r3, #1]
D:\zhangqiang\DiplomaProject\experiment\UE\User_NB-IoT_Frame(KL36)(A.50)-190816\Debug/../07_NosPrg/isr.c:146
					(uint_8 *)IntConvertToStr(gUserData.touchNum,touchNum));
    9c98:	a903      	add	r1, sp, #12
    9c9a:	f001 fe3d 	bl	b918 <IntConvertToStr>
D:\zhangqiang\DiplomaProject\experiment\UE\User_NB-IoT_Frame(KL36)(A.50)-190816\Debug/../07_NosPrg/isr.c:145
			LCD_ShowString(36,189,BLUE,GRAY,   //LCD上显示TSI触摸次数
    9c9e:	9000      	str	r0, [sp, #0]
    9ca0:	4b04      	ldr	r3, [pc, #16]	; (9cb4 <TSI_Handler+0x60>)
    9ca2:	221f      	movs	r2, #31
    9ca4:	21bd      	movs	r1, #189	; 0xbd
    9ca6:	2024      	movs	r0, #36	; 0x24
    9ca8:	f002 f8ac 	bl	be04 <LCD_ShowString>
    9cac:	e7da      	b.n	9c64 <TSI_Handler+0x10>
    9cae:	46c0      	nop			; (mov r8, r8)
    9cb0:	2000056c 	.word	0x2000056c
    9cb4:	00008430 	.word	0x00008430

00009cb8 <INCAP_Handler>:
__disable_irq():
D:\zhangqiang\DiplomaProject\experiment\UE\User_NB-IoT_Frame(KL36)(A.50)-190816\02_Core/core_cmFunc.h:344
  __ASM volatile ("cpsid i" : : : "memory");
    9cb8:	b672      	cpsid	i
__enable_irq():
D:\zhangqiang\DiplomaProject\experiment\UE\User_NB-IoT_Frame(KL36)(A.50)-190816\02_Core/core_cmFunc.h:333
  __ASM volatile ("cpsie i" : : : "memory");
    9cba:	b662      	cpsie	i
INCAP_Handler():
D:\zhangqiang\DiplomaProject\experiment\UE\User_NB-IoT_Frame(KL36)(A.50)-190816\Debug/../07_NosPrg/isr.c:166
	//------------------------------------------------------------------
	//（在此处增加功能）

	//------------------------------------------------------------------
	ENABLE_INTERRUPTS;     //关总中断
}
    9cbc:	4770      	bx	lr

00009cbe <TIMERA_Handler>:
TIMERA_Handler():
D:\zhangqiang\DiplomaProject\experiment\UE\User_NB-IoT_Frame(KL36)(A.50)-190816\Debug/../07_NosPrg/isr.c:173
//======================================================================
//程序名称：TIMERA_Handler（TIMERA模块中断处理程序）
//触发条件：定时器计时达到初始化时设置的计时间隔时，触发定时器溢出中断
//======================================================================
void TIMERA_Handler(void)
{
    9cbe:	b510      	push	{r4, lr}
__disable_irq():
D:\zhangqiang\DiplomaProject\experiment\UE\User_NB-IoT_Frame(KL36)(A.50)-190816\02_Core/core_cmFunc.h:344
  __ASM volatile ("cpsid i" : : : "memory");
    9cc0:	b672      	cpsid	i
TIMERA_Handler():
D:\zhangqiang\DiplomaProject\experiment\UE\User_NB-IoT_Frame(KL36)(A.50)-190816\Debug/../07_NosPrg/isr.c:177
	DISABLE_INTERRUPTS;                       //关总中断
	//------------------------------------------------------------------
	//（在此处增加功能）
	timer_clear_int(TIMER_LP);                //清中断标志
    9cc2:	2000      	movs	r0, #0
    9cc4:	f003 f9a4 	bl	d010 <timer_clear_int>
D:\zhangqiang\DiplomaProject\experiment\UE\User_NB-IoT_Frame(KL36)(A.50)-190816\Debug/../07_NosPrg/isr.c:178
	tsi_search(TSI_TOUCH);                             //触发一次TSI扫描
    9cc8:	2003      	movs	r0, #3
    9cca:	f003 fa43 	bl	d154 <tsi_search>
__enable_irq():
D:\zhangqiang\DiplomaProject\experiment\UE\User_NB-IoT_Frame(KL36)(A.50)-190816\02_Core/core_cmFunc.h:333
  __ASM volatile ("cpsie i" : : : "memory");
    9cce:	b662      	cpsie	i
TIMERA_Handler():
D:\zhangqiang\DiplomaProject\experiment\UE\User_NB-IoT_Frame(KL36)(A.50)-190816\Debug/../07_NosPrg/isr.c:181
	//------------------------------------------------------------------
    ENABLE_INTERRUPTS;                        //开总中断
}
    9cd0:	bd10      	pop	{r4, pc}

00009cd2 <TIMERB_Handler>:
__disable_irq():
D:\zhangqiang\DiplomaProject\experiment\UE\User_NB-IoT_Frame(KL36)(A.50)-190816\02_Core/core_cmFunc.h:344
  __ASM volatile ("cpsid i" : : : "memory");
    9cd2:	b672      	cpsid	i
__enable_irq():
D:\zhangqiang\DiplomaProject\experiment\UE\User_NB-IoT_Frame(KL36)(A.50)-190816\02_Core/core_cmFunc.h:333
  __ASM volatile ("cpsie i" : : : "memory");
    9cd4:	b662      	cpsie	i
TIMERB_Handler():
D:\zhangqiang\DiplomaProject\experiment\UE\User_NB-IoT_Frame(KL36)(A.50)-190816\Debug/../07_NosPrg/isr.c:195
	//------------------------------------------------------------------
	//（在此处增加功能）

	//------------------------------------------------------------------
	ENABLE_INTERRUPTS;                        //开总中断
}
    9cd6:	4770      	bx	lr

00009cd8 <userData_init>:
userData_init():
D:\zhangqiang\DiplomaProject\experiment\UE\User_NB-IoT_Frame(KL36)(A.50)-190816\Debug/../07_NosPrg/main.c:533
//函数返回：无
//参数说明：data：需要初始化的结构体数据
//功能概要：初始化用户帧结构体data
//=====================================================================
void userData_init(UserData *data)            //初始化用户帧结构体
{
    9cd8:	b570      	push	{r4, r5, r6, lr}
    9cda:	b084      	sub	sp, #16
    9cdc:	0005      	movs	r5, r0
D:\zhangqiang\DiplomaProject\experiment\UE\User_NB-IoT_Frame(KL36)(A.50)-190816\Debug/../07_NosPrg/main.c:535
    uint_8 mString[10];
    ArrayCopy(data->cmd,"U0",2);
    9cde:	2202      	movs	r2, #2
    9ce0:	495b      	ldr	r1, [pc, #364]	; (9e50 <userData_init+0x178>)
    9ce2:	f001 feed 	bl	bac0 <ArrayCopy>
D:\zhangqiang\DiplomaProject\experiment\UE\User_NB-IoT_Frame(KL36)(A.50)-190816\Debug/../07_NosPrg/main.c:536
    ArrayCopy(gFlashData.frameCmd,data->cmd,2);
    9ce6:	4e5b      	ldr	r6, [pc, #364]	; (9e54 <userData_init+0x17c>)
    9ce8:	2202      	movs	r2, #2
    9cea:	0029      	movs	r1, r5
    9cec:	0030      	movs	r0, r6
    9cee:	f001 fee7 	bl	bac0 <ArrayCopy>
D:\zhangqiang\DiplomaProject\experiment\UE\User_NB-IoT_Frame(KL36)(A.50)-190816\Debug/../07_NosPrg/main.c:537
    data->sn = 0;
    9cf2:	2300      	movs	r3, #0
    9cf4:	70ab      	strb	r3, [r5, #2]
    9cf6:	70eb      	strb	r3, [r5, #3]
D:\zhangqiang\DiplomaProject\experiment\UE\User_NB-IoT_Frame(KL36)(A.50)-190816\Debug/../07_NosPrg/main.c:538
    ArrayCopy(data->serverIP,gFlashData.serverIP,15);
    9cf8:	0031      	movs	r1, r6
    9cfa:	391c      	subs	r1, #28
    9cfc:	0028      	movs	r0, r5
    9cfe:	3013      	adds	r0, #19
    9d00:	220f      	movs	r2, #15
    9d02:	f001 fedd 	bl	bac0 <ArrayCopy>
D:\zhangqiang\DiplomaProject\experiment\UE\User_NB-IoT_Frame(KL36)(A.50)-190816\Debug/../07_NosPrg/main.c:539
    ArrayCopy(data->serverPort,gFlashData.serverPort,5);
    9d06:	0031      	movs	r1, r6
    9d08:	390d      	subs	r1, #13
    9d0a:	0028      	movs	r0, r5
    9d0c:	3022      	adds	r0, #34	; 0x22
    9d0e:	2205      	movs	r2, #5
    9d10:	f001 fed6 	bl	bac0 <ArrayCopy>
D:\zhangqiang\DiplomaProject\experiment\UE\User_NB-IoT_Frame(KL36)(A.50)-190816\Debug/../07_NosPrg/main.c:540
    data->currentTime = gFlashData.productTime;
    9d14:	0034      	movs	r4, r6
    9d16:	3cab      	subs	r4, #171	; 0xab
    9d18:	2368      	movs	r3, #104	; 0x68
    9d1a:	5ce2      	ldrb	r2, [r4, r3]
    9d1c:	3301      	adds	r3, #1
    9d1e:	5ce3      	ldrb	r3, [r4, r3]
    9d20:	021b      	lsls	r3, r3, #8
    9d22:	4313      	orrs	r3, r2
    9d24:	226a      	movs	r2, #106	; 0x6a
    9d26:	5ca2      	ldrb	r2, [r4, r2]
    9d28:	0412      	lsls	r2, r2, #16
    9d2a:	4313      	orrs	r3, r2
    9d2c:	226b      	movs	r2, #107	; 0x6b
    9d2e:	5ca2      	ldrb	r2, [r4, r2]
    9d30:	0612      	lsls	r2, r2, #24
    9d32:	431a      	orrs	r2, r3
    9d34:	236c      	movs	r3, #108	; 0x6c
    9d36:	5ce3      	ldrb	r3, [r4, r3]
    9d38:	216d      	movs	r1, #109	; 0x6d
    9d3a:	5c61      	ldrb	r1, [r4, r1]
    9d3c:	0209      	lsls	r1, r1, #8
    9d3e:	4319      	orrs	r1, r3
    9d40:	236e      	movs	r3, #110	; 0x6e
    9d42:	5ce3      	ldrb	r3, [r4, r3]
    9d44:	041b      	lsls	r3, r3, #16
    9d46:	4319      	orrs	r1, r3
    9d48:	236f      	movs	r3, #111	; 0x6f
    9d4a:	5ce3      	ldrb	r3, [r4, r3]
    9d4c:	061b      	lsls	r3, r3, #24
    9d4e:	430b      	orrs	r3, r1
    9d50:	0029      	movs	r1, r5
    9d52:	3127      	adds	r1, #39	; 0x27
    9d54:	700a      	strb	r2, [r1, #0]
    9d56:	0a10      	lsrs	r0, r2, #8
    9d58:	7048      	strb	r0, [r1, #1]
    9d5a:	0c10      	lsrs	r0, r2, #16
    9d5c:	7088      	strb	r0, [r1, #2]
    9d5e:	0e12      	lsrs	r2, r2, #24
    9d60:	70ca      	strb	r2, [r1, #3]
    9d62:	710b      	strb	r3, [r1, #4]
    9d64:	0a1a      	lsrs	r2, r3, #8
    9d66:	714a      	strb	r2, [r1, #5]
    9d68:	0c1a      	lsrs	r2, r3, #16
    9d6a:	718a      	strb	r2, [r1, #6]
    9d6c:	0e1b      	lsrs	r3, r3, #24
    9d6e:	71cb      	strb	r3, [r1, #7]
D:\zhangqiang\DiplomaProject\experiment\UE\User_NB-IoT_Frame(KL36)(A.50)-190816\Debug/../07_NosPrg/main.c:541
    data->resetCount = gFlashData.resetCount;
    9d70:	23a7      	movs	r3, #167	; 0xa7
    9d72:	5ce3      	ldrb	r3, [r4, r3]
    9d74:	22a8      	movs	r2, #168	; 0xa8
    9d76:	5ca2      	ldrb	r2, [r4, r2]
    9d78:	0212      	lsls	r2, r2, #8
    9d7a:	431a      	orrs	r2, r3
    9d7c:	23a9      	movs	r3, #169	; 0xa9
    9d7e:	5ce3      	ldrb	r3, [r4, r3]
    9d80:	041b      	lsls	r3, r3, #16
    9d82:	431a      	orrs	r2, r3
    9d84:	23aa      	movs	r3, #170	; 0xaa
    9d86:	5ce3      	ldrb	r3, [r4, r3]
    9d88:	061b      	lsls	r3, r3, #24
    9d8a:	4313      	orrs	r3, r2
    9d8c:	002a      	movs	r2, r5
    9d8e:	322f      	adds	r2, #47	; 0x2f
    9d90:	7013      	strb	r3, [r2, #0]
    9d92:	0a19      	lsrs	r1, r3, #8
    9d94:	7051      	strb	r1, [r2, #1]
    9d96:	0c19      	lsrs	r1, r3, #16
    9d98:	7091      	strb	r1, [r2, #2]
    9d9a:	0e1b      	lsrs	r3, r3, #24
    9d9c:	70d3      	strb	r3, [r2, #3]
D:\zhangqiang\DiplomaProject\experiment\UE\User_NB-IoT_Frame(KL36)(A.50)-190816\Debug/../07_NosPrg/main.c:542
    data->sendFrequencySec = gFlashData.sendFrequencySec;
    9d9e:	23a3      	movs	r3, #163	; 0xa3
    9da0:	5ce3      	ldrb	r3, [r4, r3]
    9da2:	22a4      	movs	r2, #164	; 0xa4
    9da4:	5ca2      	ldrb	r2, [r4, r2]
    9da6:	0212      	lsls	r2, r2, #8
    9da8:	431a      	orrs	r2, r3
    9daa:	23a5      	movs	r3, #165	; 0xa5
    9dac:	5ce3      	ldrb	r3, [r4, r3]
    9dae:	041b      	lsls	r3, r3, #16
    9db0:	431a      	orrs	r2, r3
    9db2:	23a6      	movs	r3, #166	; 0xa6
    9db4:	5ce3      	ldrb	r3, [r4, r3]
    9db6:	061b      	lsls	r3, r3, #24
    9db8:	4313      	orrs	r3, r2
    9dba:	002a      	movs	r2, r5
    9dbc:	3233      	adds	r2, #51	; 0x33
    9dbe:	7013      	strb	r3, [r2, #0]
    9dc0:	0a19      	lsrs	r1, r3, #8
    9dc2:	7051      	strb	r1, [r2, #1]
    9dc4:	0219      	lsls	r1, r3, #8
    9dc6:	0e09      	lsrs	r1, r1, #24
    9dc8:	7091      	strb	r1, [r2, #2]
    9dca:	0e1b      	lsrs	r3, r3, #24
    9dcc:	70d3      	strb	r3, [r2, #3]
D:\zhangqiang\DiplomaProject\experiment\UE\User_NB-IoT_Frame(KL36)(A.50)-190816\Debug/../07_NosPrg/main.c:543
    ArrayCopy(data->userName,gFlashData.userName,20);
    9dce:	0021      	movs	r1, r4
    9dd0:	3170      	adds	r1, #112	; 0x70
    9dd2:	0028      	movs	r0, r5
    9dd4:	3037      	adds	r0, #55	; 0x37
    9dd6:	2214      	movs	r2, #20
    9dd8:	f001 fe72 	bl	bac0 <ArrayCopy>
D:\zhangqiang\DiplomaProject\experiment\UE\User_NB-IoT_Frame(KL36)(A.50)-190816\Debug/../07_NosPrg/main.c:545
    //[2018.8.18] 发送的软件版本取BIOS
    bios_version(mString);
    9ddc:	4b1e      	ldr	r3, [pc, #120]	; (9e58 <userData_init+0x180>)
    9dde:	681b      	ldr	r3, [r3, #0]
    9de0:	691b      	ldr	r3, [r3, #16]
    9de2:	a801      	add	r0, sp, #4
    9de4:	4798      	blx	r3
D:\zhangqiang\DiplomaProject\experiment\UE\User_NB-IoT_Frame(KL36)(A.50)-190816\Debug/../07_NosPrg/main.c:546
    ArrayCopy(data->softVer,mString,4);
    9de6:	0028      	movs	r0, r5
    9de8:	304b      	adds	r0, #75	; 0x4b
    9dea:	2204      	movs	r2, #4
    9dec:	a901      	add	r1, sp, #4
    9dee:	f001 fe67 	bl	bac0 <ArrayCopy>
D:\zhangqiang\DiplomaProject\experiment\UE\User_NB-IoT_Frame(KL36)(A.50)-190816\Debug/../07_NosPrg/main.c:547
    ArrayCopy(data->equipName,gFlashData.equipName,30);
    9df2:	0028      	movs	r0, r5
    9df4:	304f      	adds	r0, #79	; 0x4f
    9df6:	221e      	movs	r2, #30
    9df8:	0021      	movs	r1, r4
    9dfa:	f001 fe61 	bl	bac0 <ArrayCopy>
D:\zhangqiang\DiplomaProject\experiment\UE\User_NB-IoT_Frame(KL36)(A.50)-190816\Debug/../07_NosPrg/main.c:548
    ArrayCopy(data->equipID,gFlashData.equipID,20);
    9dfe:	0021      	movs	r1, r4
    9e00:	311e      	adds	r1, #30
    9e02:	0028      	movs	r0, r5
    9e04:	306d      	adds	r0, #109	; 0x6d
    9e06:	2214      	movs	r2, #20
    9e08:	f001 fe5a 	bl	bac0 <ArrayCopy>
D:\zhangqiang\DiplomaProject\experiment\UE\User_NB-IoT_Frame(KL36)(A.50)-190816\Debug/../07_NosPrg/main.c:549
    ArrayCopy(data->equipType,gFlashData.equipType,20);
    9e0c:	0021      	movs	r1, r4
    9e0e:	3132      	adds	r1, #50	; 0x32
    9e10:	0028      	movs	r0, r5
    9e12:	3081      	adds	r0, #129	; 0x81
    9e14:	2214      	movs	r2, #20
    9e16:	f001 fe53 	bl	bac0 <ArrayCopy>
D:\zhangqiang\DiplomaProject\experiment\UE\User_NB-IoT_Frame(KL36)(A.50)-190816\Debug/../07_NosPrg/main.c:550
    ArrayCopy(data->vendor,gFlashData.vendor,30);
    9e1a:	0021      	movs	r1, r4
    9e1c:	3146      	adds	r1, #70	; 0x46
    9e1e:	0028      	movs	r0, r5
    9e20:	3095      	adds	r0, #149	; 0x95
    9e22:	221e      	movs	r2, #30
    9e24:	f001 fe4c 	bl	bac0 <ArrayCopy>
D:\zhangqiang\DiplomaProject\experiment\UE\User_NB-IoT_Frame(KL36)(A.50)-190816\Debug/../07_NosPrg/main.c:551
    ArrayCopy(data->phone,gFlashData.phone,11);
    9e28:	0021      	movs	r1, r4
    9e2a:	3184      	adds	r1, #132	; 0x84
    9e2c:	0028      	movs	r0, r5
    9e2e:	30cb      	adds	r0, #203	; 0xcb
    9e30:	220b      	movs	r2, #11
    9e32:	f001 fe45 	bl	bac0 <ArrayCopy>
D:\zhangqiang\DiplomaProject\experiment\UE\User_NB-IoT_Frame(KL36)(A.50)-190816\Debug/../07_NosPrg/main.c:552
    data->touchNum = 0;
    9e36:	23e8      	movs	r3, #232	; 0xe8
    9e38:	2200      	movs	r2, #0
    9e3a:	54ea      	strb	r2, [r5, r3]
    9e3c:	002b      	movs	r3, r5
    9e3e:	33e8      	adds	r3, #232	; 0xe8
    9e40:	705a      	strb	r2, [r3, #1]
D:\zhangqiang\DiplomaProject\experiment\UE\User_NB-IoT_Frame(KL36)(A.50)-190816\Debug/../07_NosPrg/main.c:553
    ArrayCopy(data->cmd,gFlashData.frameCmd,2);
    9e42:	3202      	adds	r2, #2
    9e44:	0031      	movs	r1, r6
    9e46:	0028      	movs	r0, r5
    9e48:	f001 fe3a 	bl	bac0 <ArrayCopy>
D:\zhangqiang\DiplomaProject\experiment\UE\User_NB-IoT_Frame(KL36)(A.50)-190816\Debug/../07_NosPrg/main.c:554
}
    9e4c:	b004      	add	sp, #16
    9e4e:	bd70      	pop	{r4, r5, r6, pc}
    9e50:	0000dd5c 	.word	0x0000dd5c
    9e54:	20000143 	.word	0x20000143
    9e58:	20000568 	.word	0x20000568

00009e5c <userData_get>:
userData_get():
D:\zhangqiang\DiplomaProject\experiment\UE\User_NB-IoT_Frame(KL36)(A.50)-190816\Debug/../07_NosPrg/main.c:563
//函数返回：无
//参数说明：data：需要赋值的结构体数据
//功能概要：给用户帧结构体data赋值
//=====================================================================
void userData_get(UserData *data)             //给用户帧结构体data赋值
{
    9e5c:	b5f0      	push	{r4, r5, r6, r7, lr}
    9e5e:	b09f      	sub	sp, #124	; 0x7c
    9e60:	0004      	movs	r4, r0
D:\zhangqiang\DiplomaProject\experiment\UE\User_NB-IoT_Frame(KL36)(A.50)-190816\Debug/../07_NosPrg/main.c:570
    uint_8 tempertature[6];
    uint_8 sTmp[40],i;
    UecomGnssInfo gnss;                        //定义gnss变量
    uint_8 buf[15];                            //临时的缓冲区
    static uint_32 sn = 0;
    data->sn = sn++;
    9e62:	4aae      	ldr	r2, [pc, #696]	; (a11c <userData_get+0x2c0>)
    9e64:	6813      	ldr	r3, [r2, #0]
    9e66:	1c59      	adds	r1, r3, #1
    9e68:	6011      	str	r1, [r2, #0]
    9e6a:	b29b      	uxth	r3, r3
    9e6c:	7083      	strb	r3, [r0, #2]
    9e6e:	0a1b      	lsrs	r3, r3, #8
    9e70:	70c3      	strb	r3, [r0, #3]
D:\zhangqiang\DiplomaProject\experiment\UE\User_NB-IoT_Frame(KL36)(A.50)-190816\Debug/../07_NosPrg/main.c:571
    adc_init(AD_MCU_TEMP,16);
    9e72:	2110      	movs	r1, #16
    9e74:	201a      	movs	r0, #26
    9e76:	f002 fedb 	bl	cc30 <adc_init>
D:\zhangqiang\DiplomaProject\experiment\UE\User_NB-IoT_Frame(KL36)(A.50)-190816\Debug/../07_NosPrg/main.c:572
    adc_init(AD_BRIGHT,16);
    9e7a:	2110      	movs	r1, #16
    9e7c:	2007      	movs	r0, #7
    9e7e:	f002 fed7 	bl	cc30 <adc_init>
D:\zhangqiang\DiplomaProject\experiment\UE\User_NB-IoT_Frame(KL36)(A.50)-190816\Debug/../07_NosPrg/main.c:573
    tmpAD = adc_read(AD_MCU_TEMP);
    9e82:	201a      	movs	r0, #26
    9e84:	f002 fe3c 	bl	cb00 <adc_read>
D:\zhangqiang\DiplomaProject\experiment\UE\User_NB-IoT_Frame(KL36)(A.50)-190816\Debug/../07_NosPrg/main.c:574
    data->mcuTemp = (int_32)((25.0-(tmpAD*0.05-719)/1.715)*10);
    9e88:	f7ff fd40 	bl	990c <__aeabi_i2d>
    9e8c:	4aa4      	ldr	r2, [pc, #656]	; (a120 <userData_get+0x2c4>)
    9e8e:	4ba5      	ldr	r3, [pc, #660]	; (a124 <userData_get+0x2c8>)
    9e90:	f7fe ff30 	bl	8cf4 <__aeabi_dmul>
    9e94:	2200      	movs	r2, #0
    9e96:	4ba4      	ldr	r3, [pc, #656]	; (a128 <userData_get+0x2cc>)
    9e98:	f7ff f99e 	bl	91d8 <__aeabi_dsub>
    9e9c:	4aa3      	ldr	r2, [pc, #652]	; (a12c <userData_get+0x2d0>)
    9e9e:	4ba4      	ldr	r3, [pc, #656]	; (a130 <userData_get+0x2d4>)
    9ea0:	f7fe fb1e 	bl	84e0 <__aeabi_ddiv>
    9ea4:	0002      	movs	r2, r0
    9ea6:	000b      	movs	r3, r1
    9ea8:	2000      	movs	r0, #0
    9eaa:	49a2      	ldr	r1, [pc, #648]	; (a134 <userData_get+0x2d8>)
    9eac:	f7ff f994 	bl	91d8 <__aeabi_dsub>
    9eb0:	2200      	movs	r2, #0
    9eb2:	4ba1      	ldr	r3, [pc, #644]	; (a138 <userData_get+0x2dc>)
    9eb4:	f7fe ff1e 	bl	8cf4 <__aeabi_dmul>
    9eb8:	f7ff fcf2 	bl	98a0 <__aeabi_d2iz>
    9ebc:	23b3      	movs	r3, #179	; 0xb3
    9ebe:	54e0      	strb	r0, [r4, r3]
    9ec0:	0a02      	lsrs	r2, r0, #8
    9ec2:	0023      	movs	r3, r4
    9ec4:	33b3      	adds	r3, #179	; 0xb3
    9ec6:	705a      	strb	r2, [r3, #1]
    9ec8:	0c02      	lsrs	r2, r0, #16
    9eca:	709a      	strb	r2, [r3, #2]
    9ecc:	0e02      	lsrs	r2, r0, #24
    9ece:	70da      	strb	r2, [r3, #3]
D:\zhangqiang\DiplomaProject\experiment\UE\User_NB-IoT_Frame(KL36)(A.50)-190816\Debug/../07_NosPrg/main.c:576
    LCD_ShowString(150,105,BLUE,GRAY,
            (uint_8*)DoubleConvertToStr(data->mcuTemp/10.0,1,tempertature));
    9ed0:	f7ff fd1c 	bl	990c <__aeabi_i2d>
    9ed4:	2200      	movs	r2, #0
    9ed6:	4b98      	ldr	r3, [pc, #608]	; (a138 <userData_get+0x2dc>)
    9ed8:	f7fe fb02 	bl	84e0 <__aeabi_ddiv>
    9edc:	ab1c      	add	r3, sp, #112	; 0x70
    9ede:	2201      	movs	r2, #1
    9ee0:	f001 fd58 	bl	b994 <DoubleConvertToStr>
D:\zhangqiang\DiplomaProject\experiment\UE\User_NB-IoT_Frame(KL36)(A.50)-190816\Debug/../07_NosPrg/main.c:575
    LCD_ShowString(150,105,BLUE,GRAY,
    9ee4:	9000      	str	r0, [sp, #0]
    9ee6:	4b95      	ldr	r3, [pc, #596]	; (a13c <userData_get+0x2e0>)
    9ee8:	221f      	movs	r2, #31
    9eea:	2169      	movs	r1, #105	; 0x69
    9eec:	2096      	movs	r0, #150	; 0x96
    9eee:	f001 ff89 	bl	be04 <LCD_ShowString>
D:\zhangqiang\DiplomaProject\experiment\UE\User_NB-IoT_Frame(KL36)(A.50)-190816\Debug/../07_NosPrg/main.c:578
    //获取光照强度
    brightAD = adc_read(AD_BRIGHT);
    9ef2:	2007      	movs	r0, #7
    9ef4:	f002 fe04 	bl	cb00 <adc_read>
D:\zhangqiang\DiplomaProject\experiment\UE\User_NB-IoT_Frame(KL36)(A.50)-190816\Debug/../07_NosPrg/main.c:579
    data->bright = brightAD;
    9ef8:	23e6      	movs	r3, #230	; 0xe6
    9efa:	54e0      	strb	r0, [r4, r3]
    9efc:	0a00      	lsrs	r0, r0, #8
    9efe:	0023      	movs	r3, r4
    9f00:	33e6      	adds	r3, #230	; 0xe6
    9f02:	7058      	strb	r0, [r3, #1]
D:\zhangqiang\DiplomaProject\experiment\UE\User_NB-IoT_Frame(KL36)(A.50)-190816\Debug/../07_NosPrg/main.c:580
	if(flag==1)
    9f04:	4b8e      	ldr	r3, [pc, #568]	; (a140 <userData_get+0x2e4>)
    9f06:	781b      	ldrb	r3, [r3, #0]
    9f08:	2b01      	cmp	r3, #1
    9f0a:	d125      	bne.n	9f58 <userData_get+0xfc>
D:\zhangqiang\DiplomaProject\experiment\UE\User_NB-IoT_Frame(KL36)(A.50)-190816\Debug/../07_NosPrg/main.c:582
	{
		flag=0;
    9f0c:	4b8c      	ldr	r3, [pc, #560]	; (a140 <userData_get+0x2e4>)
    9f0e:	2200      	movs	r2, #0
    9f10:	701a      	strb	r2, [r3, #0]
D:\zhangqiang\DiplomaProject\experiment\UE\User_NB-IoT_Frame(KL36)(A.50)-190816\Debug/../07_NosPrg/main.c:583
		uecom_modelInfo(sTmp);
    9f12:	ad12      	add	r5, sp, #72	; 0x48
    9f14:	4e8b      	ldr	r6, [pc, #556]	; (a144 <userData_get+0x2e8>)
    9f16:	23be      	movs	r3, #190	; 0xbe
    9f18:	005b      	lsls	r3, r3, #1
    9f1a:	6832      	ldr	r2, [r6, #0]
    9f1c:	58d3      	ldr	r3, [r2, r3]
    9f1e:	0028      	movs	r0, r5
    9f20:	4798      	blx	r3
D:\zhangqiang\DiplomaProject\experiment\UE\User_NB-IoT_Frame(KL36)(A.50)-190816\Debug/../07_NosPrg/main.c:584
		ArrayCopy(data->IMEI,sTmp,15);
    9f22:	220f      	movs	r2, #15
    9f24:	0029      	movs	r1, r5
    9f26:	0020      	movs	r0, r4
    9f28:	30d6      	adds	r0, #214	; 0xd6
    9f2a:	f001 fdc9 	bl	bac0 <ArrayCopy>
D:\zhangqiang\DiplomaProject\experiment\UE\User_NB-IoT_Frame(KL36)(A.50)-190816\Debug/../07_NosPrg/main.c:585
		ArrayCopy(data->IMSI,sTmp+20,15);
    9f2e:	1d20      	adds	r0, r4, #4
    9f30:	220f      	movs	r2, #15
    9f32:	a917      	add	r1, sp, #92	; 0x5c
    9f34:	f001 fdc4 	bl	bac0 <ArrayCopy>
D:\zhangqiang\DiplomaProject\experiment\UE\User_NB-IoT_Frame(KL36)(A.50)-190816\Debug/../07_NosPrg/main.c:586
		uecom_baseInfo(sTmp);
    9f38:	6832      	ldr	r2, [r6, #0]
    9f3a:	23bc      	movs	r3, #188	; 0xbc
    9f3c:	005b      	lsls	r3, r3, #1
    9f3e:	58d3      	ldr	r3, [r2, r3]
    9f40:	0028      	movs	r0, r5
    9f42:	4798      	blx	r3
D:\zhangqiang\DiplomaProject\experiment\UE\User_NB-IoT_Frame(KL36)(A.50)-190816\Debug/../07_NosPrg/main.c:587
		data->signalPower = sTmp[0];
    9f44:	782a      	ldrb	r2, [r5, #0]
    9f46:	23e5      	movs	r3, #229	; 0xe5
    9f48:	54e2      	strb	r2, [r4, r3]
D:\zhangqiang\DiplomaProject\experiment\UE\User_NB-IoT_Frame(KL36)(A.50)-190816\Debug/../07_NosPrg/main.c:588
		ArrayCopy(data->lbs_location,sTmp+1,19);
    9f4a:	2213      	movs	r2, #19
    9f4c:	2149      	movs	r1, #73	; 0x49
    9f4e:	4469      	add	r1, sp
    9f50:	0020      	movs	r0, r4
    9f52:	30fe      	adds	r0, #254	; 0xfe
    9f54:	f001 fdb4 	bl	bac0 <ArrayCopy>
D:\zhangqiang\DiplomaProject\experiment\UE\User_NB-IoT_Frame(KL36)(A.50)-190816\Debug/../07_NosPrg/main.c:594
	}
    //【画瓢处】-传感器数据获取
	//新增温度传感器
	int t;
	float tempAD,Vtemp,Rtemp;
	tempAD=adc_read(ADC_PIN4);  //获取当前温度
    9f58:	2002      	movs	r0, #2
    9f5a:	f002 fdd1 	bl	cb00 <adc_read>
    9f5e:	f7fd ff63 	bl	7e28 <__aeabi_ui2f>
D:\zhangqiang\DiplomaProject\experiment\UE\User_NB-IoT_Frame(KL36)(A.50)-190816\Debug/../07_NosPrg/main.c:595
	Vtemp=(tempAD*3300.0)/65535;
    9f62:	f7ff fd3f 	bl	99e4 <__aeabi_f2d>
    9f66:	2200      	movs	r2, #0
    9f68:	4b77      	ldr	r3, [pc, #476]	; (a148 <userData_get+0x2ec>)
    9f6a:	f7fe fec3 	bl	8cf4 <__aeabi_dmul>
    9f6e:	2200      	movs	r2, #0
    9f70:	4b76      	ldr	r3, [pc, #472]	; (a14c <userData_get+0x2f0>)
    9f72:	f7fe fab5 	bl	84e0 <__aeabi_ddiv>
    9f76:	f7ff fd87 	bl	9a88 <__aeabi_d2f>
D:\zhangqiang\DiplomaProject\experiment\UE\User_NB-IoT_Frame(KL36)(A.50)-190816\Debug/../07_NosPrg/main.c:596
	Rtemp=Vtemp/(3300.0-Vtemp)*10000.0;
    9f7a:	f7ff fd33 	bl	99e4 <__aeabi_f2d>
    9f7e:	0006      	movs	r6, r0
    9f80:	000f      	movs	r7, r1
    9f82:	0002      	movs	r2, r0
    9f84:	000b      	movs	r3, r1
    9f86:	2000      	movs	r0, #0
    9f88:	496f      	ldr	r1, [pc, #444]	; (a148 <userData_get+0x2ec>)
    9f8a:	f7ff f925 	bl	91d8 <__aeabi_dsub>
    9f8e:	0002      	movs	r2, r0
    9f90:	000b      	movs	r3, r1
    9f92:	0030      	movs	r0, r6
    9f94:	0039      	movs	r1, r7
    9f96:	f7fe faa3 	bl	84e0 <__aeabi_ddiv>
    9f9a:	2200      	movs	r2, #0
    9f9c:	4b6c      	ldr	r3, [pc, #432]	; (a150 <userData_get+0x2f4>)
    9f9e:	f7fe fea9 	bl	8cf4 <__aeabi_dmul>
    9fa2:	f7ff fd71 	bl	9a88 <__aeabi_d2f>
D:\zhangqiang\DiplomaProject\experiment\UE\User_NB-IoT_Frame(KL36)(A.50)-190816\Debug/../07_NosPrg/main.c:597
	t=((1/(log(Rtemp/10000.0)/3435.0+(1/(273.15+25))))-273.15+0.5)*10;
    9fa6:	f7ff fd1d 	bl	99e4 <__aeabi_f2d>
    9faa:	2200      	movs	r2, #0
    9fac:	4b68      	ldr	r3, [pc, #416]	; (a150 <userData_get+0x2f4>)
    9fae:	f7fe fa97 	bl	84e0 <__aeabi_ddiv>
    9fb2:	f003 f8eb 	bl	d18c <log>
D:\zhangqiang\DiplomaProject\experiment\UE\User_NB-IoT_Frame(KL36)(A.50)-190816\Debug/../07_NosPrg/main.c:598
	gUserData.temp=(float)t/10.0;
    9fb6:	4d67      	ldr	r5, [pc, #412]	; (a154 <userData_get+0x2f8>)
D:\zhangqiang\DiplomaProject\experiment\UE\User_NB-IoT_Frame(KL36)(A.50)-190816\Debug/../07_NosPrg/main.c:597
	t=((1/(log(Rtemp/10000.0)/3435.0+(1/(273.15+25))))-273.15+0.5)*10;
    9fb8:	2200      	movs	r2, #0
    9fba:	4b67      	ldr	r3, [pc, #412]	; (a158 <userData_get+0x2fc>)
    9fbc:	f7fe fa90 	bl	84e0 <__aeabi_ddiv>
    9fc0:	4a66      	ldr	r2, [pc, #408]	; (a15c <userData_get+0x300>)
    9fc2:	4b67      	ldr	r3, [pc, #412]	; (a160 <userData_get+0x304>)
    9fc4:	f7fd ff70 	bl	7ea8 <__aeabi_dadd>
    9fc8:	0002      	movs	r2, r0
    9fca:	000b      	movs	r3, r1
    9fcc:	2000      	movs	r0, #0
    9fce:	4965      	ldr	r1, [pc, #404]	; (a164 <userData_get+0x308>)
    9fd0:	f7fe fa86 	bl	84e0 <__aeabi_ddiv>
    9fd4:	4a64      	ldr	r2, [pc, #400]	; (a168 <userData_get+0x30c>)
    9fd6:	4b65      	ldr	r3, [pc, #404]	; (a16c <userData_get+0x310>)
    9fd8:	f7ff f8fe 	bl	91d8 <__aeabi_dsub>
    9fdc:	2200      	movs	r2, #0
    9fde:	4b64      	ldr	r3, [pc, #400]	; (a170 <userData_get+0x314>)
    9fe0:	f7fd ff62 	bl	7ea8 <__aeabi_dadd>
    9fe4:	2200      	movs	r2, #0
    9fe6:	4b54      	ldr	r3, [pc, #336]	; (a138 <userData_get+0x2dc>)
    9fe8:	f7fe fe84 	bl	8cf4 <__aeabi_dmul>
    9fec:	f7ff fc58 	bl	98a0 <__aeabi_d2iz>
D:\zhangqiang\DiplomaProject\experiment\UE\User_NB-IoT_Frame(KL36)(A.50)-190816\Debug/../07_NosPrg/main.c:598
	gUserData.temp=(float)t/10.0;
    9ff0:	f7fd fed0 	bl	7d94 <__aeabi_i2f>
    9ff4:	495f      	ldr	r1, [pc, #380]	; (a174 <userData_get+0x318>)
    9ff6:	f7fd f9df 	bl	73b8 <__aeabi_fdiv>
    9ffa:	2700      	movs	r7, #0
    9ffc:	2318      	movs	r3, #24
    9ffe:	33ff      	adds	r3, #255	; 0xff
    a000:	54e8      	strb	r0, [r5, r3]
    a002:	0a02      	lsrs	r2, r0, #8
    a004:	002b      	movs	r3, r5
    a006:	3318      	adds	r3, #24
    a008:	33ff      	adds	r3, #255	; 0xff
    a00a:	705a      	strb	r2, [r3, #1]
    a00c:	0c02      	lsrs	r2, r0, #16
    a00e:	709a      	strb	r2, [r3, #2]
    a010:	0e00      	lsrs	r0, r0, #24
    a012:	70d8      	strb	r0, [r3, #3]
D:\zhangqiang\DiplomaProject\experiment\UE\User_NB-IoT_Frame(KL36)(A.50)-190816\Debug/../07_NosPrg/main.c:600
	//新增光照传感器
	gUserData.light=adc_read(ADC_PIN6); //获取光照值
    a014:	2007      	movs	r0, #7
    a016:	f002 fd73 	bl	cb00 <adc_read>
    a01a:	231c      	movs	r3, #28
    a01c:	33ff      	adds	r3, #255	; 0xff
    a01e:	54e8      	strb	r0, [r5, r3]
    a020:	0a00      	lsrs	r0, r0, #8
    a022:	002b      	movs	r3, r5
    a024:	331c      	adds	r3, #28
    a026:	33ff      	adds	r3, #255	; 0xff
    a028:	7058      	strb	r0, [r3, #1]
D:\zhangqiang\DiplomaProject\experiment\UE\User_NB-IoT_Frame(KL36)(A.50)-190816\Debug/../07_NosPrg/main.c:602
	//新增磁传感器
	gUserData.ml=gpio_get(GPIOC_6);
    a02a:	4e46      	ldr	r6, [pc, #280]	; (a144 <userData_get+0x2e8>)
    a02c:	6833      	ldr	r3, [r6, #0]
    a02e:	6e5b      	ldr	r3, [r3, #100]	; 0x64
    a030:	4851      	ldr	r0, [pc, #324]	; (a178 <userData_get+0x31c>)
    a032:	4798      	blx	r3
    a034:	231e      	movs	r3, #30
    a036:	33ff      	adds	r3, #255	; 0xff
    a038:	54e8      	strb	r0, [r5, r3]
D:\zhangqiang\DiplomaProject\experiment\UE\User_NB-IoT_Frame(KL36)(A.50)-190816\Debug/../07_NosPrg/main.c:604
	//新增人体感应传感器
	gUserData.human=gpio_get(GPIOC_4);
    a03a:	6833      	ldr	r3, [r6, #0]
    a03c:	6e5b      	ldr	r3, [r3, #100]	; 0x64
    a03e:	484f      	ldr	r0, [pc, #316]	; (a17c <userData_get+0x320>)
    a040:	4798      	blx	r3
    a042:	238f      	movs	r3, #143	; 0x8f
    a044:	005b      	lsls	r3, r3, #1
    a046:	54e8      	strb	r0, [r5, r3]
D:\zhangqiang\DiplomaProject\experiment\UE\User_NB-IoT_Frame(KL36)(A.50)-190816\Debug/../07_NosPrg/main.c:606
	//新增声音传感器
	gUserData.sound=adc_read(ADC_PIN16); //获取分贝值
    a048:	2008      	movs	r0, #8
    a04a:	f002 fd59 	bl	cb00 <adc_read>
    a04e:	2320      	movs	r3, #32
    a050:	33ff      	adds	r3, #255	; 0xff
    a052:	54e8      	strb	r0, [r5, r3]
    a054:	0a00      	lsrs	r0, r0, #8
    a056:	002b      	movs	r3, r5
    a058:	3320      	adds	r3, #32
    a05a:	33ff      	adds	r3, #255	; 0xff
    a05c:	7058      	strb	r0, [r3, #1]
D:\zhangqiang\DiplomaProject\experiment\UE\User_NB-IoT_Frame(KL36)(A.50)-190816\Debug/../07_NosPrg/main.c:607
	gUserData.engine=gpio_get(SWITCH_ELC);
    a05e:	6833      	ldr	r3, [r6, #0]
    a060:	6e5b      	ldr	r3, [r3, #100]	; 0x64
    a062:	4847      	ldr	r0, [pc, #284]	; (a180 <userData_get+0x324>)
    a064:	4798      	blx	r3
    a066:	2322      	movs	r3, #34	; 0x22
    a068:	33ff      	adds	r3, #255	; 0xff
    a06a:	54e8      	strb	r0, [r5, r3]
D:\zhangqiang\DiplomaProject\experiment\UE\User_NB-IoT_Frame(KL36)(A.50)-190816\Debug/../07_NosPrg/main.c:608
	gUserData.led=gpio_get(LIGHT_BLUE);
    a06c:	6833      	ldr	r3, [r6, #0]
    a06e:	6e5b      	ldr	r3, [r3, #100]	; 0x64
    a070:	200d      	movs	r0, #13
    a072:	4798      	blx	r3
    a074:	2391      	movs	r3, #145	; 0x91
    a076:	005b      	lsls	r3, r3, #1
    a078:	54e8      	strb	r0, [r5, r3]
D:\zhangqiang\DiplomaProject\experiment\UE\User_NB-IoT_Frame(KL36)(A.50)-190816\Debug/../07_NosPrg/main.c:609
	gUserData.pre_temp=20.0;
    a07a:	2324      	movs	r3, #36	; 0x24
    a07c:	33ff      	adds	r3, #255	; 0xff
    a07e:	2200      	movs	r2, #0
    a080:	54ea      	strb	r2, [r5, r3]
    a082:	002b      	movs	r3, r5
    a084:	3324      	adds	r3, #36	; 0x24
    a086:	33ff      	adds	r3, #255	; 0xff
    a088:	705a      	strb	r2, [r3, #1]
    a08a:	32a0      	adds	r2, #160	; 0xa0
    a08c:	709a      	strb	r2, [r3, #2]
    a08e:	3a5f      	subs	r2, #95	; 0x5f
    a090:	70da      	strb	r2, [r3, #3]
D:\zhangqiang\DiplomaProject\experiment\UE\User_NB-IoT_Frame(KL36)(A.50)-190816\Debug/../07_NosPrg/main.c:610
	gUserData.pre_light=16162;
    a092:	2328      	movs	r3, #40	; 0x28
    a094:	33ff      	adds	r3, #255	; 0xff
    a096:	3a1f      	subs	r2, #31
    a098:	54ea      	strb	r2, [r5, r3]
    a09a:	002b      	movs	r3, r5
    a09c:	3328      	adds	r3, #40	; 0x28
    a09e:	33ff      	adds	r3, #255	; 0xff
    a0a0:	321d      	adds	r2, #29
    a0a2:	705a      	strb	r2, [r3, #1]
D:\zhangqiang\DiplomaProject\experiment\UE\User_NB-IoT_Frame(KL36)(A.50)-190816\Debug/../07_NosPrg/main.c:611
	gUserData.isAutoOpenFan=0;
    a0a4:	232a      	movs	r3, #42	; 0x2a
    a0a6:	33ff      	adds	r3, #255	; 0xff
    a0a8:	54ef      	strb	r7, [r5, r3]
D:\zhangqiang\DiplomaProject\experiment\UE\User_NB-IoT_Frame(KL36)(A.50)-190816\Debug/../07_NosPrg/main.c:612
	gUserData.isAutoOpenLed=0;
    a0aa:	3301      	adds	r3, #1
    a0ac:	54ef      	strb	r7, [r5, r3]
D:\zhangqiang\DiplomaProject\experiment\UE\User_NB-IoT_Frame(KL36)(A.50)-190816\Debug/../07_NosPrg/main.c:618
	//新增湿度传感器




    if(uecom_gnssGetInfo(&gnss) == 0)          //获取GNSS信息成功
    a0ae:	6832      	ldr	r2, [r6, #0]
    a0b0:	3362      	adds	r3, #98	; 0x62
    a0b2:	58d3      	ldr	r3, [r2, r3]
    a0b4:	a806      	add	r0, sp, #24
    a0b6:	4798      	blx	r3
    a0b8:	2800      	cmp	r0, #0
    a0ba:	d12c      	bne.n	a116 <userData_get+0x2ba>
    a0bc:	aa06      	add	r2, sp, #24
    a0be:	0023      	movs	r3, r4
    a0c0:	33b7      	adds	r3, #183	; 0xb7
    a0c2:	0020      	movs	r0, r4
    a0c4:	30c5      	adds	r0, #197	; 0xc5
D:\zhangqiang\DiplomaProject\experiment\UE\User_NB-IoT_Frame(KL36)(A.50)-190816\Debug/../07_NosPrg/main.c:621 (discriminator 3)
    {
        for(i=0;i<14;i++)                      //获取时间
           data->surpBaseInfo[i]=gnss.time[i];
    a0c6:	7811      	ldrb	r1, [r2, #0]
    a0c8:	7019      	strb	r1, [r3, #0]
    a0ca:	3201      	adds	r2, #1
    a0cc:	3301      	adds	r3, #1
D:\zhangqiang\DiplomaProject\experiment\UE\User_NB-IoT_Frame(KL36)(A.50)-190816\Debug/../07_NosPrg/main.c:620 (discriminator 3)
        for(i=0;i<14;i++)                      //获取时间
    a0ce:	4283      	cmp	r3, r0
    a0d0:	d1f9      	bne.n	a0c6 <userData_get+0x26a>
D:\zhangqiang\DiplomaProject\experiment\UE\User_NB-IoT_Frame(KL36)(A.50)-190816\Debug/../07_NosPrg/main.c:622
        DoubleConvertToStr(gnss.latitude,9,buf);           //存储纬度信息(保留6位小数)
    a0d2:	ab02      	add	r3, sp, #8
    a0d4:	2209      	movs	r2, #9
    a0d6:	980a      	ldr	r0, [sp, #40]	; 0x28
    a0d8:	990b      	ldr	r1, [sp, #44]	; 0x2c
    a0da:	f001 fc5b 	bl	b994 <DoubleConvertToStr>
    a0de:	0022      	movs	r2, r4
    a0e0:	32ea      	adds	r2, #234	; 0xea
    a0e2:	2300      	movs	r3, #0
D:\zhangqiang\DiplomaProject\experiment\UE\User_NB-IoT_Frame(KL36)(A.50)-190816\Debug/../07_NosPrg/main.c:625
        for(i=0;i<=8;i++)
        {
            data->surplusInfo[i]=buf[i];
    a0e4:	a802      	add	r0, sp, #8
D:\zhangqiang\DiplomaProject\experiment\UE\User_NB-IoT_Frame(KL36)(A.50)-190816\Debug/../07_NosPrg/main.c:625 (discriminator 3)
    a0e6:	5c19      	ldrb	r1, [r3, r0]
    a0e8:	7011      	strb	r1, [r2, #0]
    a0ea:	3301      	adds	r3, #1
    a0ec:	3201      	adds	r2, #1
D:\zhangqiang\DiplomaProject\experiment\UE\User_NB-IoT_Frame(KL36)(A.50)-190816\Debug/../07_NosPrg/main.c:623 (discriminator 3)
        for(i=0;i<=8;i++)
    a0ee:	2b09      	cmp	r3, #9
    a0f0:	d1f9      	bne.n	a0e6 <userData_get+0x28a>
D:\zhangqiang\DiplomaProject\experiment\UE\User_NB-IoT_Frame(KL36)(A.50)-190816\Debug/../07_NosPrg/main.c:627
        }
        data->surplusInfo[9]=',';
    a0f2:	33ea      	adds	r3, #234	; 0xea
    a0f4:	222c      	movs	r2, #44	; 0x2c
    a0f6:	54e2      	strb	r2, [r4, r3]
D:\zhangqiang\DiplomaProject\experiment\UE\User_NB-IoT_Frame(KL36)(A.50)-190816\Debug/../07_NosPrg/main.c:628
        DoubleConvertToStr(gnss.longitude,10,buf);         //存储经度信息(保留6位小数)
    a0f8:	ab02      	add	r3, sp, #8
    a0fa:	3a22      	subs	r2, #34	; 0x22
    a0fc:	980c      	ldr	r0, [sp, #48]	; 0x30
    a0fe:	990d      	ldr	r1, [sp, #52]	; 0x34
    a100:	f001 fc48 	bl	b994 <DoubleConvertToStr>
    a104:	34f4      	adds	r4, #244	; 0xf4
    a106:	2300      	movs	r3, #0
D:\zhangqiang\DiplomaProject\experiment\UE\User_NB-IoT_Frame(KL36)(A.50)-190816\Debug/../07_NosPrg/main.c:631
        for(i=0;i<=9;i++)
        {
            data->surplusInfo[i+10]=buf[i];
    a108:	a902      	add	r1, sp, #8
D:\zhangqiang\DiplomaProject\experiment\UE\User_NB-IoT_Frame(KL36)(A.50)-190816\Debug/../07_NosPrg/main.c:631 (discriminator 3)
    a10a:	5c5a      	ldrb	r2, [r3, r1]
    a10c:	7022      	strb	r2, [r4, #0]
    a10e:	3301      	adds	r3, #1
    a110:	3401      	adds	r4, #1
D:\zhangqiang\DiplomaProject\experiment\UE\User_NB-IoT_Frame(KL36)(A.50)-190816\Debug/../07_NosPrg/main.c:629 (discriminator 3)
        for(i=0;i<=9;i++)
    a112:	2b0a      	cmp	r3, #10
    a114:	d1f9      	bne.n	a10a <userData_get+0x2ae>
D:\zhangqiang\DiplomaProject\experiment\UE\User_NB-IoT_Frame(KL36)(A.50)-190816\Debug/../07_NosPrg/main.c:634
        }
    }
}
    a116:	b01f      	add	sp, #124	; 0x7c
    a118:	bdf0      	pop	{r4, r5, r6, r7, pc}
    a11a:	46c0      	nop			; (mov r8, r8)
    a11c:	20000094 	.word	0x20000094
    a120:	9999999a 	.word	0x9999999a
    a124:	3fa99999 	.word	0x3fa99999
    a128:	40867800 	.word	0x40867800
    a12c:	d70a3d71 	.word	0xd70a3d71
    a130:	3ffb70a3 	.word	0x3ffb70a3
    a134:	40390000 	.word	0x40390000
    a138:	40240000 	.word	0x40240000
    a13c:	00008430 	.word	0x00008430
    a140:	2000069a 	.word	0x2000069a
    a144:	20000568 	.word	0x20000568
    a148:	40a9c800 	.word	0x40a9c800
    a14c:	40efffe0 	.word	0x40efffe0
    a150:	40c38800 	.word	0x40c38800
    a154:	2000056c 	.word	0x2000056c
    a158:	40aad600 	.word	0x40aad600
    a15c:	dcb5db83 	.word	0xdcb5db83
    a160:	3f6b79e1 	.word	0x3f6b79e1
    a164:	3ff00000 	.word	0x3ff00000
    a168:	66666666 	.word	0x66666666
    a16c:	40711266 	.word	0x40711266
    a170:	3fe00000 	.word	0x3fe00000
    a174:	41200000 	.word	0x41200000
    a178:	00000413 	.word	0x00000413
    a17c:	0000041d 	.word	0x0000041d
    a180:	00000201 	.word	0x00000201

0000a184 <LCD_Showfirst>:
LCD_Showfirst():
D:\zhangqiang\DiplomaProject\experiment\UE\User_NB-IoT_Frame(KL36)(A.50)-190816\Debug/../07_NosPrg/main.c:643
//函数返回：无
//参数说明：无
//功能概要：初始化LCD上电显示的内容
//=====================================================================
void LCD_Showfirst()
{
    a184:	b5f0      	push	{r4, r5, r6, r7, lr}
    a186:	46c6      	mov	lr, r8
    a188:	b500      	push	{lr}
    a18a:	b08c      	sub	sp, #48	; 0x30
D:\zhangqiang\DiplomaProject\experiment\UE\User_NB-IoT_Frame(KL36)(A.50)-190816\Debug/../07_NosPrg/main.c:644
    uint_8 temp[30] = {0};
    a18c:	ad04      	add	r5, sp, #16
    a18e:	221e      	movs	r2, #30
    a190:	2100      	movs	r1, #0
    a192:	0028      	movs	r0, r5
    a194:	f003 faa9 	bl	d6ea <memset>
D:\zhangqiang\DiplomaProject\experiment\UE\User_NB-IoT_Frame(KL36)(A.50)-190816\Debug/../07_NosPrg/main.c:649
    uint_16 tmpAD;
    uint_32 mk;
    uint_8 tempertature[6];
    //（1）设置全局底色为灰色
    LCD_DrawSurface(0,0,240,320,GRAY);    //240*320像素LCD
    a198:	23a0      	movs	r3, #160	; 0xa0
    a19a:	4cae      	ldr	r4, [pc, #696]	; (a454 <LCD_Showfirst+0x2d0>)
    a19c:	9400      	str	r4, [sp, #0]
    a19e:	005b      	lsls	r3, r3, #1
    a1a0:	22f0      	movs	r2, #240	; 0xf0
    a1a2:	2100      	movs	r1, #0
    a1a4:	2000      	movs	r0, #0
    a1a6:	f001 feaf 	bl	bf08 <LCD_DrawSurface>
D:\zhangqiang\DiplomaProject\experiment\UE\User_NB-IoT_Frame(KL36)(A.50)-190816\Debug/../07_NosPrg/main.c:651
    //（2）设置第一区（标题区）
    LCD_aotu(2,2,238,38,1);               //LCD指定区域凸起
    a1aa:	2701      	movs	r7, #1
    a1ac:	9700      	str	r7, [sp, #0]
    a1ae:	2326      	movs	r3, #38	; 0x26
    a1b0:	22ee      	movs	r2, #238	; 0xee
    a1b2:	2102      	movs	r1, #2
    a1b4:	2002      	movs	r0, #2
    a1b6:	f001 fecd 	bl	bf54 <LCD_aotu>
D:\zhangqiang\DiplomaProject\experiment\UE\User_NB-IoT_Frame(KL36)(A.50)-190816\Debug/../07_NosPrg/main.c:652
    LCD_ShowString(66,15,RED,GRAY,"金葫芦IoT-GEC"); //红字
    a1ba:	22f8      	movs	r2, #248	; 0xf8
    a1bc:	4ba6      	ldr	r3, [pc, #664]	; (a458 <LCD_Showfirst+0x2d4>)
    a1be:	9300      	str	r3, [sp, #0]
    a1c0:	0023      	movs	r3, r4
    a1c2:	0212      	lsls	r2, r2, #8
    a1c4:	210f      	movs	r1, #15
    a1c6:	2042      	movs	r0, #66	; 0x42
    a1c8:	f001 fe1c 	bl	be04 <LCD_ShowString>
D:\zhangqiang\DiplomaProject\experiment\UE\User_NB-IoT_Frame(KL36)(A.50)-190816\Debug/../07_NosPrg/main.c:654
    //（3）设置第二区（与通信无关区）
    LCD_aotu(2,43,238,123,0);             //LCD指定区域凹下
    a1cc:	2600      	movs	r6, #0
    a1ce:	9600      	str	r6, [sp, #0]
    a1d0:	237b      	movs	r3, #123	; 0x7b
    a1d2:	22ee      	movs	r2, #238	; 0xee
    a1d4:	212b      	movs	r1, #43	; 0x2b
    a1d6:	2002      	movs	r0, #2
    a1d8:	f001 febc 	bl	bf54 <LCD_aotu>
D:\zhangqiang\DiplomaProject\experiment\UE\User_NB-IoT_Frame(KL36)(A.50)-190816\Debug/../07_NosPrg/main.c:656
    //显示型号
    LCD_ShowString(6,45,BLACK,GRAY,"[Type]                     ");
    a1dc:	4b9f      	ldr	r3, [pc, #636]	; (a45c <LCD_Showfirst+0x2d8>)
    a1de:	9300      	str	r3, [sp, #0]
    a1e0:	0023      	movs	r3, r4
    a1e2:	2200      	movs	r2, #0
    a1e4:	212d      	movs	r1, #45	; 0x2d
    a1e6:	2006      	movs	r0, #6
    a1e8:	f001 fe0c 	bl	be04 <LCD_ShowString>
D:\zhangqiang\DiplomaProject\experiment\UE\User_NB-IoT_Frame(KL36)(A.50)-190816\Debug/../07_NosPrg/main.c:657
    uecom_typeGet(temp);
    a1ec:	4b9c      	ldr	r3, [pc, #624]	; (a460 <LCD_Showfirst+0x2dc>)
    a1ee:	4698      	mov	r8, r3
    a1f0:	23c0      	movs	r3, #192	; 0xc0
    a1f2:	005b      	lsls	r3, r3, #1
    a1f4:	4642      	mov	r2, r8
    a1f6:	6812      	ldr	r2, [r2, #0]
    a1f8:	58d3      	ldr	r3, [r2, r3]
    a1fa:	0028      	movs	r0, r5
    a1fc:	4798      	blx	r3
D:\zhangqiang\DiplomaProject\experiment\UE\User_NB-IoT_Frame(KL36)(A.50)-190816\Debug/../07_NosPrg/main.c:658
    temp[20]=0;
    a1fe:	752e      	strb	r6, [r5, #20]
D:\zhangqiang\DiplomaProject\experiment\UE\User_NB-IoT_Frame(KL36)(A.50)-190816\Debug/../07_NosPrg/main.c:659
    LCD_ShowString(60,45,BLUE,GRAY,temp);
    a200:	9500      	str	r5, [sp, #0]
    a202:	0023      	movs	r3, r4
    a204:	221f      	movs	r2, #31
    a206:	212d      	movs	r1, #45	; 0x2d
    a208:	203c      	movs	r0, #60	; 0x3c
    a20a:	f001 fdfb 	bl	be04 <LCD_ShowString>
D:\zhangqiang\DiplomaProject\experiment\UE\User_NB-IoT_Frame(KL36)(A.50)-190816\Debug/../07_NosPrg/main.c:661
    //显示BIOS软件版本
    LCD_ShowString(6,65,BLACK,GRAY,"[BIOS_VER]                  ");
    a20e:	4b95      	ldr	r3, [pc, #596]	; (a464 <LCD_Showfirst+0x2e0>)
    a210:	9300      	str	r3, [sp, #0]
    a212:	0023      	movs	r3, r4
    a214:	2200      	movs	r2, #0
    a216:	2141      	movs	r1, #65	; 0x41
    a218:	2006      	movs	r0, #6
    a21a:	f001 fdf3 	bl	be04 <LCD_ShowString>
D:\zhangqiang\DiplomaProject\experiment\UE\User_NB-IoT_Frame(KL36)(A.50)-190816\Debug/../07_NosPrg/main.c:662
    uecom_version(temp);   //取uecom版本号（作为BIOS版本号）
    a21e:	4643      	mov	r3, r8
    a220:	681a      	ldr	r2, [r3, #0]
    a222:	23c2      	movs	r3, #194	; 0xc2
    a224:	005b      	lsls	r3, r3, #1
    a226:	58d3      	ldr	r3, [r2, r3]
    a228:	0028      	movs	r0, r5
    a22a:	4798      	blx	r3
D:\zhangqiang\DiplomaProject\experiment\UE\User_NB-IoT_Frame(KL36)(A.50)-190816\Debug/../07_NosPrg/main.c:663
    LCD_ShowString(88,65,BLUE,GRAY,temp);   //显示BIOS软件版本
    a22c:	9500      	str	r5, [sp, #0]
    a22e:	0023      	movs	r3, r4
    a230:	221f      	movs	r2, #31
    a232:	2141      	movs	r1, #65	; 0x41
    a234:	2058      	movs	r0, #88	; 0x58
    a236:	f001 fde5 	bl	be04 <LCD_ShowString>
D:\zhangqiang\DiplomaProject\experiment\UE\User_NB-IoT_Frame(KL36)(A.50)-190816\Debug/../07_NosPrg/main.c:665
    //显示user软件版本
    LCD_ShowString(120,65,BLACK,GRAY,"[USER_VER]    ");
    a23a:	4b8b      	ldr	r3, [pc, #556]	; (a468 <LCD_Showfirst+0x2e4>)
    a23c:	9300      	str	r3, [sp, #0]
    a23e:	0023      	movs	r3, r4
    a240:	2200      	movs	r2, #0
    a242:	2141      	movs	r1, #65	; 0x41
    a244:	2078      	movs	r0, #120	; 0x78
    a246:	f001 fddd 	bl	be04 <LCD_ShowString>
D:\zhangqiang\DiplomaProject\experiment\UE\User_NB-IoT_Frame(KL36)(A.50)-190816\Debug/../07_NosPrg/main.c:666
    ArrayCopy(temp,gFlashData.softVer,4);
    a24a:	4b88      	ldr	r3, [pc, #544]	; (a46c <LCD_Showfirst+0x2e8>)
    a24c:	4698      	mov	r8, r3
    a24e:	2204      	movs	r2, #4
    a250:	0019      	movs	r1, r3
    a252:	0028      	movs	r0, r5
    a254:	f001 fc34 	bl	bac0 <ArrayCopy>
D:\zhangqiang\DiplomaProject\experiment\UE\User_NB-IoT_Frame(KL36)(A.50)-190816\Debug/../07_NosPrg/main.c:667
    temp[5]=0;
    a258:	716e      	strb	r6, [r5, #5]
D:\zhangqiang\DiplomaProject\experiment\UE\User_NB-IoT_Frame(KL36)(A.50)-190816\Debug/../07_NosPrg/main.c:668
    LCD_ShowString(200,65,BLUE,GRAY,temp);
    a25a:	9500      	str	r5, [sp, #0]
    a25c:	0023      	movs	r3, r4
    a25e:	221f      	movs	r2, #31
    a260:	2141      	movs	r1, #65	; 0x41
    a262:	20c8      	movs	r0, #200	; 0xc8
    a264:	f001 fdce 	bl	be04 <LCD_ShowString>
D:\zhangqiang\DiplomaProject\experiment\UE\User_NB-IoT_Frame(KL36)(A.50)-190816\Debug/../07_NosPrg/main.c:669
    LCD_ShowString(6,85,BLACK,GRAY,"[IMSI]                      ");
    a268:	4b81      	ldr	r3, [pc, #516]	; (a470 <LCD_Showfirst+0x2ec>)
    a26a:	9300      	str	r3, [sp, #0]
    a26c:	0023      	movs	r3, r4
    a26e:	2200      	movs	r2, #0
    a270:	2155      	movs	r1, #85	; 0x55
    a272:	2006      	movs	r0, #6
    a274:	f001 fdc6 	bl	be04 <LCD_ShowString>
D:\zhangqiang\DiplomaProject\experiment\UE\User_NB-IoT_Frame(KL36)(A.50)-190816\Debug/../07_NosPrg/main.c:671
    //显示MCU温度
    LCD_ShowString(6,105,BLACK,GRAY,"[MCU_temperature]           ");
    a278:	4b7e      	ldr	r3, [pc, #504]	; (a474 <LCD_Showfirst+0x2f0>)
    a27a:	9300      	str	r3, [sp, #0]
    a27c:	0023      	movs	r3, r4
    a27e:	2200      	movs	r2, #0
    a280:	2169      	movs	r1, #105	; 0x69
    a282:	2006      	movs	r0, #6
    a284:	f001 fdbe 	bl	be04 <LCD_ShowString>
D:\zhangqiang\DiplomaProject\experiment\UE\User_NB-IoT_Frame(KL36)(A.50)-190816\Debug/../07_NosPrg/main.c:672
    adc_init(AD_MCU_TEMP,16);
    a288:	2110      	movs	r1, #16
    a28a:	201a      	movs	r0, #26
    a28c:	f002 fcd0 	bl	cc30 <adc_init>
D:\zhangqiang\DiplomaProject\experiment\UE\User_NB-IoT_Frame(KL36)(A.50)-190816\Debug/../07_NosPrg/main.c:673
    tmpAD = adc_read(AD_MCU_TEMP);
    a290:	201a      	movs	r0, #26
    a292:	f002 fc35 	bl	cb00 <adc_read>
D:\zhangqiang\DiplomaProject\experiment\UE\User_NB-IoT_Frame(KL36)(A.50)-190816\Debug/../07_NosPrg/main.c:674
    mk = (int_32)((25.0-(tmpAD*0.05-719)/1.715)*10); //温度与AD值的换算公式
    a296:	f7ff fb39 	bl	990c <__aeabi_i2d>
    a29a:	4a77      	ldr	r2, [pc, #476]	; (a478 <LCD_Showfirst+0x2f4>)
    a29c:	4b77      	ldr	r3, [pc, #476]	; (a47c <LCD_Showfirst+0x2f8>)
    a29e:	f7fe fd29 	bl	8cf4 <__aeabi_dmul>
    a2a2:	2200      	movs	r2, #0
    a2a4:	4b76      	ldr	r3, [pc, #472]	; (a480 <LCD_Showfirst+0x2fc>)
    a2a6:	f7fe ff97 	bl	91d8 <__aeabi_dsub>
    a2aa:	4a76      	ldr	r2, [pc, #472]	; (a484 <LCD_Showfirst+0x300>)
    a2ac:	4b76      	ldr	r3, [pc, #472]	; (a488 <LCD_Showfirst+0x304>)
    a2ae:	f7fe f917 	bl	84e0 <__aeabi_ddiv>
    a2b2:	0002      	movs	r2, r0
    a2b4:	000b      	movs	r3, r1
    a2b6:	2000      	movs	r0, #0
    a2b8:	4974      	ldr	r1, [pc, #464]	; (a48c <LCD_Showfirst+0x308>)
    a2ba:	f7fe ff8d 	bl	91d8 <__aeabi_dsub>
    a2be:	2200      	movs	r2, #0
    a2c0:	4b73      	ldr	r3, [pc, #460]	; (a490 <LCD_Showfirst+0x30c>)
    a2c2:	f7fe fd17 	bl	8cf4 <__aeabi_dmul>
    a2c6:	f7ff faeb 	bl	98a0 <__aeabi_d2iz>
D:\zhangqiang\DiplomaProject\experiment\UE\User_NB-IoT_Frame(KL36)(A.50)-190816\Debug/../07_NosPrg/main.c:675
    LCD_ShowString(150,105,BLUE,GRAY,(uint_8*)DoubleConvertToStr(mk/10.0,1,tempertature));
    a2ca:	f7ff fb59 	bl	9980 <__aeabi_ui2d>
    a2ce:	2200      	movs	r2, #0
    a2d0:	4b6f      	ldr	r3, [pc, #444]	; (a490 <LCD_Showfirst+0x30c>)
    a2d2:	f7fe f905 	bl	84e0 <__aeabi_ddiv>
    a2d6:	ab02      	add	r3, sp, #8
    a2d8:	2201      	movs	r2, #1
    a2da:	f001 fb5b 	bl	b994 <DoubleConvertToStr>
    a2de:	9000      	str	r0, [sp, #0]
    a2e0:	0023      	movs	r3, r4
    a2e2:	221f      	movs	r2, #31
    a2e4:	2169      	movs	r1, #105	; 0x69
    a2e6:	2096      	movs	r0, #150	; 0x96
    a2e8:	f001 fd8c 	bl	be04 <LCD_ShowString>
D:\zhangqiang\DiplomaProject\experiment\UE\User_NB-IoT_Frame(KL36)(A.50)-190816\Debug/../07_NosPrg/main.c:677
    //（4）设置第三区（与通信相关）
    LCD_aotu(2,127,238,228,1);            //LCD指定区域凸起
    a2ec:	9700      	str	r7, [sp, #0]
    a2ee:	23e4      	movs	r3, #228	; 0xe4
    a2f0:	22ee      	movs	r2, #238	; 0xee
    a2f2:	217f      	movs	r1, #127	; 0x7f
    a2f4:	2002      	movs	r0, #2
    a2f6:	f001 fe2d 	bl	bf54 <LCD_aotu>
D:\zhangqiang\DiplomaProject\experiment\UE\User_NB-IoT_Frame(KL36)(A.50)-190816\Debug/../07_NosPrg/main.c:678
    LCD_ShowString(6,131,BLACK,GRAY,"[LBS]                      ");
    a2fa:	4b66      	ldr	r3, [pc, #408]	; (a494 <LCD_Showfirst+0x310>)
    a2fc:	9300      	str	r3, [sp, #0]
    a2fe:	0023      	movs	r3, r4
    a300:	2200      	movs	r2, #0
    a302:	2183      	movs	r1, #131	; 0x83
    a304:	2006      	movs	r0, #6
    a306:	f001 fd7d 	bl	be04 <LCD_ShowString>
D:\zhangqiang\DiplomaProject\experiment\UE\User_NB-IoT_Frame(KL36)(A.50)-190816\Debug/../07_NosPrg/main.c:679
    LCD_ShowString(6,149,BLACK,GRAY,"[Signal strength(%)]       ");
    a30a:	4b63      	ldr	r3, [pc, #396]	; (a498 <LCD_Showfirst+0x314>)
    a30c:	9300      	str	r3, [sp, #0]
    a30e:	0023      	movs	r3, r4
    a310:	2200      	movs	r2, #0
    a312:	2195      	movs	r1, #149	; 0x95
    a314:	2006      	movs	r0, #6
    a316:	f001 fd75 	bl	be04 <LCD_ShowString>
D:\zhangqiang\DiplomaProject\experiment\UE\User_NB-IoT_Frame(KL36)(A.50)-190816\Debug/../07_NosPrg/main.c:681
    //显示IP:PT (IP:PORT)
    LCD_ShowString(6,169,BLACK,GRAY,"[IP:PT]                    ");
    a31a:	4b60      	ldr	r3, [pc, #384]	; (a49c <LCD_Showfirst+0x318>)
    a31c:	9300      	str	r3, [sp, #0]
    a31e:	0023      	movs	r3, r4
    a320:	2200      	movs	r2, #0
    a322:	21a9      	movs	r1, #169	; 0xa9
    a324:	2006      	movs	r0, #6
    a326:	f001 fd6d 	bl	be04 <LCD_ShowString>
D:\zhangqiang\DiplomaProject\experiment\UE\User_NB-IoT_Frame(KL36)(A.50)-190816\Debug/../07_NosPrg/main.c:682
    ArrayCopy(temp,gFlashData.serverIP,15);   //IP
    a32a:	4641      	mov	r1, r8
    a32c:	312b      	adds	r1, #43	; 0x2b
    a32e:	220f      	movs	r2, #15
    a330:	0028      	movs	r0, r5
    a332:	f001 fbc5 	bl	bac0 <ArrayCopy>
D:\zhangqiang\DiplomaProject\experiment\UE\User_NB-IoT_Frame(KL36)(A.50)-190816\Debug/../07_NosPrg/main.c:683
    temp[15]=0;
    a336:	73ee      	strb	r6, [r5, #15]
D:\zhangqiang\DiplomaProject\experiment\UE\User_NB-IoT_Frame(KL36)(A.50)-190816\Debug/../07_NosPrg/main.c:684
    LCD_ShowString(65,169,BLUE,GRAY,temp);
    a338:	9500      	str	r5, [sp, #0]
    a33a:	0023      	movs	r3, r4
    a33c:	221f      	movs	r2, #31
    a33e:	21a9      	movs	r1, #169	; 0xa9
    a340:	2041      	movs	r0, #65	; 0x41
    a342:	f001 fd5f 	bl	be04 <LCD_ShowString>
D:\zhangqiang\DiplomaProject\experiment\UE\User_NB-IoT_Frame(KL36)(A.50)-190816\Debug/../07_NosPrg/main.c:685
    LCD_ShowString(185,169,BLUE,GRAY,":");//PORT
    a346:	4b56      	ldr	r3, [pc, #344]	; (a4a0 <LCD_Showfirst+0x31c>)
    a348:	9300      	str	r3, [sp, #0]
    a34a:	0023      	movs	r3, r4
    a34c:	221f      	movs	r2, #31
    a34e:	21a9      	movs	r1, #169	; 0xa9
    a350:	20b9      	movs	r0, #185	; 0xb9
    a352:	f001 fd57 	bl	be04 <LCD_ShowString>
D:\zhangqiang\DiplomaProject\experiment\UE\User_NB-IoT_Frame(KL36)(A.50)-190816\Debug/../07_NosPrg/main.c:686
    ArrayCopy(temp,gFlashData.serverPort,5);
    a356:	4641      	mov	r1, r8
    a358:	313a      	adds	r1, #58	; 0x3a
    a35a:	2205      	movs	r2, #5
    a35c:	0028      	movs	r0, r5
    a35e:	f001 fbaf 	bl	bac0 <ArrayCopy>
D:\zhangqiang\DiplomaProject\experiment\UE\User_NB-IoT_Frame(KL36)(A.50)-190816\Debug/../07_NosPrg/main.c:687
    temp[5]=0;
    a362:	716e      	strb	r6, [r5, #5]
D:\zhangqiang\DiplomaProject\experiment\UE\User_NB-IoT_Frame(KL36)(A.50)-190816\Debug/../07_NosPrg/main.c:688
    LCD_ShowString(195,169,BLUE,GRAY,temp);
    a364:	9500      	str	r5, [sp, #0]
    a366:	0023      	movs	r3, r4
    a368:	221f      	movs	r2, #31
    a36a:	21a9      	movs	r1, #169	; 0xa9
    a36c:	20c3      	movs	r0, #195	; 0xc3
    a36e:	f001 fd49 	bl	be04 <LCD_ShowString>
D:\zhangqiang\DiplomaProject\experiment\UE\User_NB-IoT_Frame(KL36)(A.50)-190816\Debug/../07_NosPrg/main.c:690
    //显示发送频率
    LCD_ShowString(6,189,BLACK,GRAY,"TSI:       Freq(s):        ");
    a372:	4b4c      	ldr	r3, [pc, #304]	; (a4a4 <LCD_Showfirst+0x320>)
    a374:	9300      	str	r3, [sp, #0]
    a376:	0023      	movs	r3, r4
    a378:	2200      	movs	r2, #0
    a37a:	21bd      	movs	r1, #189	; 0xbd
    a37c:	2006      	movs	r0, #6
    a37e:	f001 fd41 	bl	be04 <LCD_ShowString>
D:\zhangqiang\DiplomaProject\experiment\UE\User_NB-IoT_Frame(KL36)(A.50)-190816\Debug/../07_NosPrg/main.c:691
    LCD_ShowString(180,189,BLUE,GRAY,"      ");
    a382:	4b49      	ldr	r3, [pc, #292]	; (a4a8 <LCD_Showfirst+0x324>)
    a384:	9300      	str	r3, [sp, #0]
    a386:	0023      	movs	r3, r4
    a388:	221f      	movs	r2, #31
    a38a:	21bd      	movs	r1, #189	; 0xbd
    a38c:	20b4      	movs	r0, #180	; 0xb4
    a38e:	f001 fd39 	bl	be04 <LCD_ShowString>
D:\zhangqiang\DiplomaProject\experiment\UE\User_NB-IoT_Frame(KL36)(A.50)-190816\Debug/../07_NosPrg/main.c:693
    LCD_ShowString(180,189,BLUE,GRAY,
            (uint_8 *)IntConvertToStr(gFlashData.sendFrequencySec,temp));
    a392:	4642      	mov	r2, r8
    a394:	3a64      	subs	r2, #100	; 0x64
    a396:	23a3      	movs	r3, #163	; 0xa3
    a398:	5cd0      	ldrb	r0, [r2, r3]
    a39a:	3301      	adds	r3, #1
    a39c:	5cd3      	ldrb	r3, [r2, r3]
    a39e:	021b      	lsls	r3, r3, #8
    a3a0:	4303      	orrs	r3, r0
    a3a2:	21a5      	movs	r1, #165	; 0xa5
    a3a4:	5c50      	ldrb	r0, [r2, r1]
    a3a6:	0400      	lsls	r0, r0, #16
    a3a8:	4303      	orrs	r3, r0
    a3aa:	3101      	adds	r1, #1
    a3ac:	5c50      	ldrb	r0, [r2, r1]
    a3ae:	0600      	lsls	r0, r0, #24
    a3b0:	4318      	orrs	r0, r3
    a3b2:	0029      	movs	r1, r5
    a3b4:	f001 fab0 	bl	b918 <IntConvertToStr>
D:\zhangqiang\DiplomaProject\experiment\UE\User_NB-IoT_Frame(KL36)(A.50)-190816\Debug/../07_NosPrg/main.c:692
    LCD_ShowString(180,189,BLUE,GRAY,
    a3b8:	9000      	str	r0, [sp, #0]
    a3ba:	0023      	movs	r3, r4
    a3bc:	221f      	movs	r2, #31
    a3be:	21bd      	movs	r1, #189	; 0xbd
    a3c0:	20b4      	movs	r0, #180	; 0xb4
    a3c2:	f001 fd1f 	bl	be04 <LCD_ShowString>
D:\zhangqiang\DiplomaProject\experiment\UE\User_NB-IoT_Frame(KL36)(A.50)-190816\Debug/../07_NosPrg/main.c:694
    LCD_ShowString(36,189,BLUE,GRAY,"0"); //显示TSI次数初值0
    a3c6:	4b39      	ldr	r3, [pc, #228]	; (a4ac <LCD_Showfirst+0x328>)
    a3c8:	9300      	str	r3, [sp, #0]
    a3ca:	0023      	movs	r3, r4
    a3cc:	221f      	movs	r2, #31
    a3ce:	21bd      	movs	r1, #189	; 0xbd
    a3d0:	2024      	movs	r0, #36	; 0x24
    a3d2:	f001 fd17 	bl	be04 <LCD_ShowString>
D:\zhangqiang\DiplomaProject\experiment\UE\User_NB-IoT_Frame(KL36)(A.50)-190816\Debug/../07_NosPrg/main.c:695
    LCD_ShowString(6,209,BLACK,GRAY,"Time:                      ");
    a3d6:	4b36      	ldr	r3, [pc, #216]	; (a4b0 <LCD_Showfirst+0x32c>)
    a3d8:	9300      	str	r3, [sp, #0]
    a3da:	0023      	movs	r3, r4
    a3dc:	2200      	movs	r2, #0
    a3de:	21d1      	movs	r1, #209	; 0xd1
    a3e0:	2006      	movs	r0, #6
    a3e2:	f001 fd0f 	bl	be04 <LCD_ShowString>
D:\zhangqiang\DiplomaProject\experiment\UE\User_NB-IoT_Frame(KL36)(A.50)-190816\Debug/../07_NosPrg/main.c:696
    LCD_ShowString(49,209,BLUE,GRAY,"2018-07-01 21:55:00" );
    a3e6:	4b33      	ldr	r3, [pc, #204]	; (a4b4 <LCD_Showfirst+0x330>)
    a3e8:	9300      	str	r3, [sp, #0]
    a3ea:	0023      	movs	r3, r4
    a3ec:	221f      	movs	r2, #31
    a3ee:	21d1      	movs	r1, #209	; 0xd1
    a3f0:	2031      	movs	r0, #49	; 0x31
    a3f2:	f001 fd07 	bl	be04 <LCD_ShowString>
D:\zhangqiang\DiplomaProject\experiment\UE\User_NB-IoT_Frame(KL36)(A.50)-190816\Debug/../07_NosPrg/main.c:697
    LCD_aotu(2,232,238,271,0);            //LCD指定区域凹下
    a3f6:	2310      	movs	r3, #16
    a3f8:	9600      	str	r6, [sp, #0]
    a3fa:	33ff      	adds	r3, #255	; 0xff
    a3fc:	22ee      	movs	r2, #238	; 0xee
    a3fe:	21e8      	movs	r1, #232	; 0xe8
    a400:	2002      	movs	r0, #2
    a402:	f001 fda7 	bl	bf54 <LCD_aotu>
D:\zhangqiang\DiplomaProject\experiment\UE\User_NB-IoT_Frame(KL36)(A.50)-190816\Debug/../07_NosPrg/main.c:698
    LCD_ShowString(6,235,BLACK,GRAY,"Reserved area,you can use it");
    a406:	4b2c      	ldr	r3, [pc, #176]	; (a4b8 <LCD_Showfirst+0x334>)
    a408:	9300      	str	r3, [sp, #0]
    a40a:	0023      	movs	r3, r4
    a40c:	2200      	movs	r2, #0
    a40e:	21eb      	movs	r1, #235	; 0xeb
    a410:	2006      	movs	r0, #6
    a412:	f001 fcf7 	bl	be04 <LCD_ShowString>
D:\zhangqiang\DiplomaProject\experiment\UE\User_NB-IoT_Frame(KL36)(A.50)-190816\Debug/../07_NosPrg/main.c:699
    LCD_ShowString(6,253,BLACK,GRAY,"RecvCount:                 ");
    a416:	4b29      	ldr	r3, [pc, #164]	; (a4bc <LCD_Showfirst+0x338>)
    a418:	9300      	str	r3, [sp, #0]
    a41a:	0023      	movs	r3, r4
    a41c:	2200      	movs	r2, #0
    a41e:	21fd      	movs	r1, #253	; 0xfd
    a420:	2006      	movs	r0, #6
    a422:	f001 fcef 	bl	be04 <LCD_ShowString>
D:\zhangqiang\DiplomaProject\experiment\UE\User_NB-IoT_Frame(KL36)(A.50)-190816\Debug/../07_NosPrg/main.c:701
    //（5）设置第四区（运行状态显示区）
    LCD_aotu(2,275,238,317,1);            //LCD指定区域凸起
    a426:	233e      	movs	r3, #62	; 0x3e
    a428:	2114      	movs	r1, #20
    a42a:	9700      	str	r7, [sp, #0]
    a42c:	33ff      	adds	r3, #255	; 0xff
    a42e:	22ee      	movs	r2, #238	; 0xee
    a430:	31ff      	adds	r1, #255	; 0xff
    a432:	2002      	movs	r0, #2
    a434:	f001 fd8e 	bl	bf54 <LCD_aotu>
D:\zhangqiang\DiplomaProject\experiment\UE\User_NB-IoT_Frame(KL36)(A.50)-190816\Debug/../07_NosPrg/main.c:702
    LCD_ShowString(6,278,BLACK,GRAY,"Run State:                 ");
    a438:	218b      	movs	r1, #139	; 0x8b
    a43a:	4b21      	ldr	r3, [pc, #132]	; (a4c0 <LCD_Showfirst+0x33c>)
    a43c:	9300      	str	r3, [sp, #0]
    a43e:	0023      	movs	r3, r4
    a440:	2200      	movs	r2, #0
    a442:	0049      	lsls	r1, r1, #1
    a444:	2006      	movs	r0, #6
    a446:	f001 fcdd 	bl	be04 <LCD_ShowString>
D:\zhangqiang\DiplomaProject\experiment\UE\User_NB-IoT_Frame(KL36)(A.50)-190816\Debug/../07_NosPrg/main.c:703
}
    a44a:	b00c      	add	sp, #48	; 0x30
    a44c:	bc04      	pop	{r2}
    a44e:	4690      	mov	r8, r2
    a450:	bdf0      	pop	{r4, r5, r6, r7, pc}
    a452:	46c0      	nop			; (mov r8, r8)
    a454:	00008430 	.word	0x00008430
    a458:	0000d8a8 	.word	0x0000d8a8
    a45c:	0000d8b8 	.word	0x0000d8b8
    a460:	20000568 	.word	0x20000568
    a464:	0000d8d4 	.word	0x0000d8d4
    a468:	0000d8f4 	.word	0x0000d8f4
    a46c:	200000fc 	.word	0x200000fc
    a470:	0000d904 	.word	0x0000d904
    a474:	0000d924 	.word	0x0000d924
    a478:	9999999a 	.word	0x9999999a
    a47c:	3fa99999 	.word	0x3fa99999
    a480:	40867800 	.word	0x40867800
    a484:	d70a3d71 	.word	0xd70a3d71
    a488:	3ffb70a3 	.word	0x3ffb70a3
    a48c:	40390000 	.word	0x40390000
    a490:	40240000 	.word	0x40240000
    a494:	0000d944 	.word	0x0000d944
    a498:	0000d960 	.word	0x0000d960
    a49c:	0000d97c 	.word	0x0000d97c
    a4a0:	0000d998 	.word	0x0000d998
    a4a4:	0000d99c 	.word	0x0000d99c
    a4a8:	0000d9b8 	.word	0x0000d9b8
    a4ac:	0000d9c0 	.word	0x0000d9c0
    a4b0:	0000d9c4 	.word	0x0000d9c4
    a4b4:	0000d9e0 	.word	0x0000d9e0
    a4b8:	0000d9f4 	.word	0x0000d9f4
    a4bc:	0000da14 	.word	0x0000da14
    a4c0:	0000da30 	.word	0x0000da30

0000a4c4 <main>:
main():
D:\zhangqiang\DiplomaProject\experiment\UE\User_NB-IoT_Frame(KL36)(A.50)-190816\Debug/../07_NosPrg/main.c:44
{
    a4c4:	b5f0      	push	{r4, r5, r6, r7, lr}
    a4c6:	46de      	mov	lr, fp
    a4c8:	4657      	mov	r7, sl
    a4ca:	464e      	mov	r6, r9
    a4cc:	4645      	mov	r5, r8
    a4ce:	b5e0      	push	{r5, r6, r7, lr}
    a4d0:	4cd6      	ldr	r4, [pc, #856]	; (a82c <main+0x368>)
    a4d2:	44a5      	add	sp, r4
D:\zhangqiang\DiplomaProject\experiment\UE\User_NB-IoT_Frame(KL36)(A.50)-190816\Debug/../07_NosPrg/main.c:75
    BIOS_API_Init();
    a4d4:	f002 fa8a 	bl	c9ec <BIOS_API_Init>
D:\zhangqiang\DiplomaProject\experiment\UE\User_NB-IoT_Frame(KL36)(A.50)-190816\Debug/../07_NosPrg/main.c:76
    gTimeSec=1588799218;         //默认2019-02-01 00:00:01
    a4d8:	4dd5      	ldr	r5, [pc, #852]	; (a830 <main+0x36c>)
    a4da:	48d6      	ldr	r0, [pc, #856]	; (a834 <main+0x370>)
    a4dc:	2100      	movs	r1, #0
    a4de:	6028      	str	r0, [r5, #0]
    a4e0:	6069      	str	r1, [r5, #4]
D:\zhangqiang\DiplomaProject\experiment\UE\User_NB-IoT_Frame(KL36)(A.50)-190816\Debug/../07_NosPrg/main.c:77
    sysTimeSet(gTimeSec);        //设置系统时间初值
    a4e2:	4cd5      	ldr	r4, [pc, #852]	; (a838 <main+0x374>)
    a4e4:	6823      	ldr	r3, [r4, #0]
    a4e6:	689b      	ldr	r3, [r3, #8]
    a4e8:	4798      	blx	r3
D:\zhangqiang\DiplomaProject\experiment\UE\User_NB-IoT_Frame(KL36)(A.50)-190816\Debug/../07_NosPrg/main.c:78
    mTmp=sysTimeGet();            //获得当前系统时间（s)
    a4ea:	6823      	ldr	r3, [r4, #0]
    a4ec:	685b      	ldr	r3, [r3, #4]
    a4ee:	4798      	blx	r3
__disable_irq():
D:\zhangqiang\DiplomaProject\experiment\UE\User_NB-IoT_Frame(KL36)(A.50)-190816\02_Core/core_cmFunc.h:344
  __ASM volatile ("cpsid i" : : : "memory");
    a4f0:	b672      	cpsid	i
main():
D:\zhangqiang\DiplomaProject\experiment\UE\User_NB-IoT_Frame(KL36)(A.50)-190816\Debug/../07_NosPrg/main.c:98
    gRecvLength = 0;                   //收到数据的长度（单位：字节）
    a4f2:	4bd2      	ldr	r3, [pc, #840]	; (a83c <main+0x378>)
    a4f4:	2200      	movs	r2, #0
    a4f6:	801a      	strh	r2, [r3, #0]
D:\zhangqiang\DiplomaProject\experiment\UE\User_NB-IoT_Frame(KL36)(A.50)-190816\Debug/../07_NosPrg/main.c:99
    flag=1;                            //标志位，需要更新模组信息
    a4f8:	4bd1      	ldr	r3, [pc, #836]	; (a840 <main+0x37c>)
    a4fa:	3201      	adds	r2, #1
    a4fc:	701a      	strb	r2, [r3, #0]
D:\zhangqiang\DiplomaProject\experiment\UE\User_NB-IoT_Frame(KL36)(A.50)-190816\Debug/../07_NosPrg/main.c:102
    uecom_power(UECOM_ON);             //给通信模组供电
    a4fe:	23b0      	movs	r3, #176	; 0xb0
    a500:	005b      	lsls	r3, r3, #1
    a502:	6822      	ldr	r2, [r4, #0]
    a504:	58d3      	ldr	r3, [r2, r3]
    a506:	2001      	movs	r0, #1
    a508:	4798      	blx	r3
D:\zhangqiang\DiplomaProject\experiment\UE\User_NB-IoT_Frame(KL36)(A.50)-190816\Debug/../07_NosPrg/main.c:104
    timer_init(TIMER_LP,500);                   //LPTMR计时器初始化为500毫秒
    a50a:	21fa      	movs	r1, #250	; 0xfa
    a50c:	0049      	lsls	r1, r1, #1
    a50e:	2000      	movs	r0, #0
    a510:	f002 fd3e 	bl	cf90 <timer_init>
D:\zhangqiang\DiplomaProject\experiment\UE\User_NB-IoT_Frame(KL36)(A.50)-190816\Debug/../07_NosPrg/main.c:105
    tsi_init(TSI_TOUCH,TSI_VALUE);     //初始化触摸按键TSI
    a514:	49cb      	ldr	r1, [pc, #812]	; (a844 <main+0x380>)
    a516:	2003      	movs	r0, #3
    a518:	f002 fd8c 	bl	d034 <tsi_init>
D:\zhangqiang\DiplomaProject\experiment\UE\User_NB-IoT_Frame(KL36)(A.50)-190816\Debug/../07_NosPrg/main.c:106
    flash_init();                      //初始化flash
    a51c:	6823      	ldr	r3, [r4, #0]
    a51e:	6b5b      	ldr	r3, [r3, #52]	; 0x34
    a520:	4798      	blx	r3
D:\zhangqiang\DiplomaProject\experiment\UE\User_NB-IoT_Frame(KL36)(A.50)-190816\Debug/../07_NosPrg/main.c:107
    sysTimeSet(gTimeSec);              //设置系统时间初值
    a522:	6828      	ldr	r0, [r5, #0]
    a524:	6869      	ldr	r1, [r5, #4]
    a526:	6823      	ldr	r3, [r4, #0]
    a528:	689b      	ldr	r3, [r3, #8]
    a52a:	4798      	blx	r3
D:\zhangqiang\DiplomaProject\experiment\UE\User_NB-IoT_Frame(KL36)(A.50)-190816\Debug/../07_NosPrg/main.c:108
    LCD_Init();                        //初始化LCD
    a52c:	f001 fb80 	bl	bc30 <LCD_Init>
D:\zhangqiang\DiplomaProject\experiment\UE\User_NB-IoT_Frame(KL36)(A.50)-190816\Debug/../07_NosPrg/main.c:115
    adc_init(ADC_PIN4,16);
    a530:	2110      	movs	r1, #16
    a532:	2002      	movs	r0, #2
    a534:	f002 fb7c 	bl	cc30 <adc_init>
D:\zhangqiang\DiplomaProject\experiment\UE\User_NB-IoT_Frame(KL36)(A.50)-190816\Debug/../07_NosPrg/main.c:117
    adc_init(ADC_PIN6,16);
    a538:	2110      	movs	r1, #16
    a53a:	2007      	movs	r0, #7
    a53c:	f002 fb78 	bl	cc30 <adc_init>
D:\zhangqiang\DiplomaProject\experiment\UE\User_NB-IoT_Frame(KL36)(A.50)-190816\Debug/../07_NosPrg/main.c:119
    gpio_init(GPIOC_6,GPIO_INPUT,0);
    a540:	4dc1      	ldr	r5, [pc, #772]	; (a848 <main+0x384>)
    a542:	6823      	ldr	r3, [r4, #0]
    a544:	6ddb      	ldr	r3, [r3, #92]	; 0x5c
    a546:	2200      	movs	r2, #0
    a548:	2100      	movs	r1, #0
    a54a:	0028      	movs	r0, r5
    a54c:	4798      	blx	r3
D:\zhangqiang\DiplomaProject\experiment\UE\User_NB-IoT_Frame(KL36)(A.50)-190816\Debug/../07_NosPrg/main.c:120
    gpio_pull(GPIOC_6,1);
    a54e:	6823      	ldr	r3, [r4, #0]
    a550:	6edb      	ldr	r3, [r3, #108]	; 0x6c
    a552:	2101      	movs	r1, #1
    a554:	0028      	movs	r0, r5
    a556:	4798      	blx	r3
D:\zhangqiang\DiplomaProject\experiment\UE\User_NB-IoT_Frame(KL36)(A.50)-190816\Debug/../07_NosPrg/main.c:122
    gpio_init(GPIOC_4,GPIO_INPUT,0);
    a558:	4dbc      	ldr	r5, [pc, #752]	; (a84c <main+0x388>)
    a55a:	6823      	ldr	r3, [r4, #0]
    a55c:	6ddb      	ldr	r3, [r3, #92]	; 0x5c
    a55e:	2200      	movs	r2, #0
    a560:	2100      	movs	r1, #0
    a562:	0028      	movs	r0, r5
    a564:	4798      	blx	r3
D:\zhangqiang\DiplomaProject\experiment\UE\User_NB-IoT_Frame(KL36)(A.50)-190816\Debug/../07_NosPrg/main.c:123
    gpio_pull(GPIOC_4,1);
    a566:	6823      	ldr	r3, [r4, #0]
    a568:	6edb      	ldr	r3, [r3, #108]	; 0x6c
    a56a:	2101      	movs	r1, #1
    a56c:	0028      	movs	r0, r5
    a56e:	4798      	blx	r3
D:\zhangqiang\DiplomaProject\experiment\UE\User_NB-IoT_Frame(KL36)(A.50)-190816\Debug/../07_NosPrg/main.c:125
    adc_init(ADC_PIN16,16);
    a570:	2110      	movs	r1, #16
    a572:	2008      	movs	r0, #8
    a574:	f002 fb5c 	bl	cc30 <adc_init>
D:\zhangqiang\DiplomaProject\experiment\UE\User_NB-IoT_Frame(KL36)(A.50)-190816\Debug/../07_NosPrg/main.c:127
    gpio_init(SWITCH_ELC,GPIO_OUTPUT,SWITCH_OFF);
    a578:	6823      	ldr	r3, [r4, #0]
    a57a:	6ddb      	ldr	r3, [r3, #92]	; 0x5c
    a57c:	2201      	movs	r2, #1
    a57e:	2101      	movs	r1, #1
    a580:	48b3      	ldr	r0, [pc, #716]	; (a850 <main+0x38c>)
    a582:	4798      	blx	r3
D:\zhangqiang\DiplomaProject\experiment\UE\User_NB-IoT_Frame(KL36)(A.50)-190816\Debug/../07_NosPrg/main.c:129
    gpio_init(LIGHT_BLUE,GPIO_OUTPUT,LIGHT_OFF);
    a584:	6823      	ldr	r3, [r4, #0]
    a586:	6ddb      	ldr	r3, [r3, #92]	; 0x5c
    a588:	2201      	movs	r2, #1
    a58a:	2101      	movs	r1, #1
    a58c:	200d      	movs	r0, #13
    a58e:	4798      	blx	r3
D:\zhangqiang\DiplomaProject\experiment\UE\User_NB-IoT_Frame(KL36)(A.50)-190816\Debug/../07_NosPrg/main.c:139
    timer_enable_int(TIMER_LP);                //使能LPTMR中断
    a590:	2000      	movs	r0, #0
    a592:	f002 fd25 	bl	cfe0 <timer_enable_int>
D:\zhangqiang\DiplomaProject\experiment\UE\User_NB-IoT_Frame(KL36)(A.50)-190816\Debug/../07_NosPrg/main.c:140
    tsi_enable_re_int(TSI_TOUCH);               //使能TSI中断
    a596:	2003      	movs	r0, #3
    a598:	f002 fdcc 	bl	d134 <tsi_enable_re_int>
__enable_irq():
D:\zhangqiang\DiplomaProject\experiment\UE\User_NB-IoT_Frame(KL36)(A.50)-190816\02_Core/core_cmFunc.h:333
  __ASM volatile ("cpsie i" : : : "memory");
    a59c:	b662      	cpsie	i
main():
D:\zhangqiang\DiplomaProject\experiment\UE\User_NB-IoT_Frame(KL36)(A.50)-190816\Debug/../07_NosPrg/main.c:151
    flash_read_logic((uint_8*)(&gFlashData),63,0,sizeof(FlashData));
    a59e:	4dad      	ldr	r5, [pc, #692]	; (a854 <main+0x390>)
    a5a0:	6823      	ldr	r3, [r4, #0]
    a5a2:	6c1c      	ldr	r4, [r3, #64]	; 0x40
    a5a4:	23ad      	movs	r3, #173	; 0xad
    a5a6:	2200      	movs	r2, #0
    a5a8:	213f      	movs	r1, #63	; 0x3f
    a5aa:	0028      	movs	r0, r5
    a5ac:	47a0      	blx	r4
D:\zhangqiang\DiplomaProject\experiment\UE\User_NB-IoT_Frame(KL36)(A.50)-190816\Debug/../07_NosPrg/main.c:152
    userData_init(&gUserData);         //初始化用户帧结构体gUserData
    a5ae:	48aa      	ldr	r0, [pc, #680]	; (a858 <main+0x394>)
    a5b0:	f7ff fb92 	bl	9cd8 <userData_init>
D:\zhangqiang\DiplomaProject\experiment\UE\User_NB-IoT_Frame(KL36)(A.50)-190816\Debug/../07_NosPrg/main.c:153
    LCD_Showfirst();                   //LCD显示初始内容
    a5b4:	f7ff fde6 	bl	a184 <LCD_Showfirst>
D:\zhangqiang\DiplomaProject\experiment\UE\User_NB-IoT_Frame(KL36)(A.50)-190816\Debug/../07_NosPrg/main.c:155
    mTmp = gFlashData.resetCount;      // 保存当前看门狗复位次数
    a5b8:	23a7      	movs	r3, #167	; 0xa7
    a5ba:	5cea      	ldrb	r2, [r5, r3]
    a5bc:	3301      	adds	r3, #1
    a5be:	5ceb      	ldrb	r3, [r5, r3]
    a5c0:	021b      	lsls	r3, r3, #8
    a5c2:	4313      	orrs	r3, r2
    a5c4:	22a9      	movs	r2, #169	; 0xa9
    a5c6:	5caa      	ldrb	r2, [r5, r2]
    a5c8:	0412      	lsls	r2, r2, #16
    a5ca:	4313      	orrs	r3, r2
    a5cc:	22aa      	movs	r2, #170	; 0xaa
    a5ce:	5caa      	ldrb	r2, [r5, r2]
    a5d0:	0612      	lsls	r2, r2, #24
    a5d2:	431a      	orrs	r2, r3
D:\zhangqiang\DiplomaProject\experiment\UE\User_NB-IoT_Frame(KL36)(A.50)-190816\Debug/../07_NosPrg/main.c:156
    if (BGET(RCM_SRS0_WDOG_SHIFT, RCM_SRS0))     //若为看门狗复位，则加1
    a5d4:	4ba1      	ldr	r3, [pc, #644]	; (a85c <main+0x398>)
    a5d6:	781b      	ldrb	r3, [r3, #0]
    a5d8:	069b      	lsls	r3, r3, #26
    a5da:	d569      	bpl.n	a6b0 <main+0x1ec>
D:\zhangqiang\DiplomaProject\experiment\UE\User_NB-IoT_Frame(KL36)(A.50)-190816\Debug/../07_NosPrg/main.c:157
        gFlashData.resetCount++;
    a5dc:	499d      	ldr	r1, [pc, #628]	; (a854 <main+0x390>)
    a5de:	1c53      	adds	r3, r2, #1
    a5e0:	20a7      	movs	r0, #167	; 0xa7
    a5e2:	540b      	strb	r3, [r1, r0]
    a5e4:	0a18      	lsrs	r0, r3, #8
    a5e6:	31a7      	adds	r1, #167	; 0xa7
    a5e8:	7048      	strb	r0, [r1, #1]
    a5ea:	0218      	lsls	r0, r3, #8
    a5ec:	0e00      	lsrs	r0, r0, #24
    a5ee:	7088      	strb	r0, [r1, #2]
    a5f0:	0e1b      	lsrs	r3, r3, #24
    a5f2:	70cb      	strb	r3, [r1, #3]
D:\zhangqiang\DiplomaProject\experiment\UE\User_NB-IoT_Frame(KL36)(A.50)-190816\Debug/../07_NosPrg/main.c:161
    if(gFlashData.resetCount!=mTmp)
    a5f4:	4897      	ldr	r0, [pc, #604]	; (a854 <main+0x390>)
    a5f6:	23a7      	movs	r3, #167	; 0xa7
    a5f8:	5cc3      	ldrb	r3, [r0, r3]
    a5fa:	21a8      	movs	r1, #168	; 0xa8
    a5fc:	5c41      	ldrb	r1, [r0, r1]
    a5fe:	0209      	lsls	r1, r1, #8
    a600:	4319      	orrs	r1, r3
    a602:	23a9      	movs	r3, #169	; 0xa9
    a604:	5cc3      	ldrb	r3, [r0, r3]
    a606:	041b      	lsls	r3, r3, #16
    a608:	4319      	orrs	r1, r3
    a60a:	23aa      	movs	r3, #170	; 0xaa
    a60c:	5cc3      	ldrb	r3, [r0, r3]
    a60e:	061b      	lsls	r3, r3, #24
    a610:	430b      	orrs	r3, r1
    a612:	429a      	cmp	r2, r3
    a614:	d00b      	beq.n	a62e <main+0x16a>
D:\zhangqiang\DiplomaProject\experiment\UE\User_NB-IoT_Frame(KL36)(A.50)-190816\Debug/../07_NosPrg/main.c:163
        flash_erase(63);
    a616:	4c88      	ldr	r4, [pc, #544]	; (a838 <main+0x374>)
    a618:	6823      	ldr	r3, [r4, #0]
    a61a:	6b9b      	ldr	r3, [r3, #56]	; 0x38
    a61c:	203f      	movs	r0, #63	; 0x3f
    a61e:	4798      	blx	r3
D:\zhangqiang\DiplomaProject\experiment\UE\User_NB-IoT_Frame(KL36)(A.50)-190816\Debug/../07_NosPrg/main.c:164
        flash_write(63,0,mFlashLen,(uint_8*)(&gFlashData));
    a620:	6823      	ldr	r3, [r4, #0]
    a622:	6bdc      	ldr	r4, [r3, #60]	; 0x3c
    a624:	4b8b      	ldr	r3, [pc, #556]	; (a854 <main+0x390>)
    a626:	22ad      	movs	r2, #173	; 0xad
    a628:	2100      	movs	r1, #0
    a62a:	203f      	movs	r0, #63	; 0x3f
    a62c:	47a0      	blx	r4
D:\zhangqiang\DiplomaProject\experiment\UE\User_NB-IoT_Frame(KL36)(A.50)-190816\Debug/../07_NosPrg/main.c:168
    LCD_ShowString(6,300,BLUE,GRAY,    "AHL Init                    ");
    a62e:	2196      	movs	r1, #150	; 0x96
    a630:	4b8b      	ldr	r3, [pc, #556]	; (a860 <main+0x39c>)
    a632:	9300      	str	r3, [sp, #0]
    a634:	4b8b      	ldr	r3, [pc, #556]	; (a864 <main+0x3a0>)
    a636:	221f      	movs	r2, #31
    a638:	0049      	lsls	r1, r1, #1
    a63a:	2006      	movs	r0, #6
    a63c:	f001 fbe2 	bl	be04 <LCD_ShowString>
D:\zhangqiang\DiplomaProject\experiment\UE\User_NB-IoT_Frame(KL36)(A.50)-190816\Debug/../07_NosPrg/main.c:91
    mLinkCount=0;                      //基站连接次数=0
    a640:	2500      	movs	r5, #0
D:\zhangqiang\DiplomaProject\experiment\UE\User_NB-IoT_Frame(KL36)(A.50)-190816\Debug/../07_NosPrg/main.c:172
        uecom_power(UECOM_ON);        //给通信模组供电
    a642:	4e7d      	ldr	r6, [pc, #500]	; (a838 <main+0x374>)
D:\zhangqiang\DiplomaProject\experiment\UE\User_NB-IoT_Frame(KL36)(A.50)-190816\Debug/../07_NosPrg/main.c:237
        mflag =uecom_linkCS(gFlashData.serverIP,gFlashData.serverPort);
    a644:	4b88      	ldr	r3, [pc, #544]	; (a868 <main+0x3a4>)
    a646:	3b0f      	subs	r3, #15
    a648:	9305      	str	r3, [sp, #20]
D:\zhangqiang\DiplomaProject\experiment\UE\User_NB-IoT_Frame(KL36)(A.50)-190816\Debug/../07_NosPrg/main.c:172
        uecom_power(UECOM_ON);        //给通信模组供电
    a64a:	23b0      	movs	r3, #176	; 0xb0
    a64c:	005b      	lsls	r3, r3, #1
    a64e:	6832      	ldr	r2, [r6, #0]
    a650:	58d3      	ldr	r3, [r2, r3]
    a652:	2001      	movs	r0, #1
    a654:	4798      	blx	r3
D:\zhangqiang\DiplomaProject\experiment\UE\User_NB-IoT_Frame(KL36)(A.50)-190816\Debug/../07_NosPrg/main.c:173
        Delay_ms(6000);               //延时6秒
    a656:	4885      	ldr	r0, [pc, #532]	; (a86c <main+0x3a8>)
    a658:	f000 fe6a 	bl	b330 <Delay_ms>
D:\zhangqiang\DiplomaProject\experiment\UE\User_NB-IoT_Frame(KL36)(A.50)-190816\Debug/../07_NosPrg/main.c:174
        LCD_ShowString(6,300,BLUE,GRAY,"AHL Init .                  ");
    a65c:	4f81      	ldr	r7, [pc, #516]	; (a864 <main+0x3a0>)
    a65e:	2496      	movs	r4, #150	; 0x96
    a660:	0064      	lsls	r4, r4, #1
    a662:	4b83      	ldr	r3, [pc, #524]	; (a870 <main+0x3ac>)
    a664:	9300      	str	r3, [sp, #0]
    a666:	003b      	movs	r3, r7
    a668:	221f      	movs	r2, #31
    a66a:	0021      	movs	r1, r4
    a66c:	2006      	movs	r0, #6
    a66e:	f001 fbc9 	bl	be04 <LCD_ShowString>
D:\zhangqiang\DiplomaProject\experiment\UE\User_NB-IoT_Frame(KL36)(A.50)-190816\Debug/../07_NosPrg/main.c:175
        Delay_ms(6000);               //延时6秒
    a672:	487e      	ldr	r0, [pc, #504]	; (a86c <main+0x3a8>)
    a674:	f000 fe5c 	bl	b330 <Delay_ms>
D:\zhangqiang\DiplomaProject\experiment\UE\User_NB-IoT_Frame(KL36)(A.50)-190816\Debug/../07_NosPrg/main.c:178
        LCD_ShowString(6,300,BLUE,GRAY,"AHL Init ..                 ");
    a678:	4b7e      	ldr	r3, [pc, #504]	; (a874 <main+0x3b0>)
    a67a:	9300      	str	r3, [sp, #0]
    a67c:	003b      	movs	r3, r7
    a67e:	221f      	movs	r2, #31
    a680:	0021      	movs	r1, r4
    a682:	2006      	movs	r0, #6
    a684:	f001 fbbe 	bl	be04 <LCD_ShowString>
D:\zhangqiang\DiplomaProject\experiment\UE\User_NB-IoT_Frame(KL36)(A.50)-190816\Debug/../07_NosPrg/main.c:179
        mflag =uecom_init();
    a688:	23b2      	movs	r3, #178	; 0xb2
    a68a:	005b      	lsls	r3, r3, #1
    a68c:	6832      	ldr	r2, [r6, #0]
    a68e:	58d3      	ldr	r3, [r2, r3]
    a690:	4798      	blx	r3
    a692:	9004      	str	r0, [sp, #16]
D:\zhangqiang\DiplomaProject\experiment\UE\User_NB-IoT_Frame(KL36)(A.50)-190816\Debug/../07_NosPrg/main.c:181
        if(mflag)
    a694:	2800      	cmp	r0, #0
    a696:	d02c      	beq.n	a6f2 <main+0x22e>
D:\zhangqiang\DiplomaProject\experiment\UE\User_NB-IoT_Frame(KL36)(A.50)-190816\Debug/../07_NosPrg/main.c:183
          if (mflag==1)
    a698:	2801      	cmp	r0, #1
    a69a:	d016      	beq.n	a6ca <main+0x206>
D:\zhangqiang\DiplomaProject\experiment\UE\User_NB-IoT_Frame(KL36)(A.50)-190816\Debug/../07_NosPrg/main.c:185
          if (mflag==2)
    a69c:	2802      	cmp	r0, #2
    a69e:	d01e      	beq.n	a6de <main+0x21a>
D:\zhangqiang\DiplomaProject\experiment\UE\User_NB-IoT_Frame(KL36)(A.50)-190816\Debug/../07_NosPrg/main.c:187
          uecom_power(UECOM_REBOOT);  //通信模组重启
    a6a0:	4b65      	ldr	r3, [pc, #404]	; (a838 <main+0x374>)
    a6a2:	681a      	ldr	r2, [r3, #0]
    a6a4:	23b0      	movs	r3, #176	; 0xb0
    a6a6:	005b      	lsls	r3, r3, #1
    a6a8:	58d3      	ldr	r3, [r2, r3]
    a6aa:	2002      	movs	r0, #2
    a6ac:	4798      	blx	r3
D:\zhangqiang\DiplomaProject\experiment\UE\User_NB-IoT_Frame(KL36)(A.50)-190816\Debug/../07_NosPrg/main.c:188
          continue;
    a6ae:	e7cc      	b.n	a64a <main+0x186>
D:\zhangqiang\DiplomaProject\experiment\UE\User_NB-IoT_Frame(KL36)(A.50)-190816\Debug/../07_NosPrg/main.c:158
    else if(BGET(RCM_SRS0_POR_SHIFT, RCM_SRS0))  //若为上电复位，则置零
    a6b0:	4b6a      	ldr	r3, [pc, #424]	; (a85c <main+0x398>)
    a6b2:	781b      	ldrb	r3, [r3, #0]
    a6b4:	09db      	lsrs	r3, r3, #7
    a6b6:	d0ba      	beq.n	a62e <main+0x16a>
D:\zhangqiang\DiplomaProject\experiment\UE\User_NB-IoT_Frame(KL36)(A.50)-190816\Debug/../07_NosPrg/main.c:159
        gFlashData.resetCount = 0;
    a6b8:	4b66      	ldr	r3, [pc, #408]	; (a854 <main+0x390>)
    a6ba:	2100      	movs	r1, #0
    a6bc:	20a7      	movs	r0, #167	; 0xa7
    a6be:	5419      	strb	r1, [r3, r0]
    a6c0:	181b      	adds	r3, r3, r0
    a6c2:	7059      	strb	r1, [r3, #1]
    a6c4:	7099      	strb	r1, [r3, #2]
    a6c6:	70d9      	strb	r1, [r3, #3]
    a6c8:	e794      	b.n	a5f4 <main+0x130>
D:\zhangqiang\DiplomaProject\experiment\UE\User_NB-IoT_Frame(KL36)(A.50)-190816\Debug/../07_NosPrg/main.c:184
              LCD_ShowString(6,300,BLUE,GRAY,"AHL Init .. AT Error        ");
    a6ca:	2196      	movs	r1, #150	; 0x96
    a6cc:	4b6a      	ldr	r3, [pc, #424]	; (a878 <main+0x3b4>)
    a6ce:	9300      	str	r3, [sp, #0]
    a6d0:	003b      	movs	r3, r7
    a6d2:	221f      	movs	r2, #31
    a6d4:	0049      	lsls	r1, r1, #1
    a6d6:	2006      	movs	r0, #6
    a6d8:	f001 fb94 	bl	be04 <LCD_ShowString>
    a6dc:	e7e0      	b.n	a6a0 <main+0x1dc>
D:\zhangqiang\DiplomaProject\experiment\UE\User_NB-IoT_Frame(KL36)(A.50)-190816\Debug/../07_NosPrg/main.c:186
              LCD_ShowString(6,300,BLUE,GRAY,"AHL Init .. sim Error       ");
    a6de:	2196      	movs	r1, #150	; 0x96
    a6e0:	4b66      	ldr	r3, [pc, #408]	; (a87c <main+0x3b8>)
    a6e2:	9300      	str	r3, [sp, #0]
    a6e4:	4b5f      	ldr	r3, [pc, #380]	; (a864 <main+0x3a0>)
    a6e6:	221f      	movs	r2, #31
    a6e8:	0049      	lsls	r1, r1, #1
    a6ea:	2006      	movs	r0, #6
    a6ec:	f001 fb8a 	bl	be04 <LCD_ShowString>
    a6f0:	e7d6      	b.n	a6a0 <main+0x1dc>
D:\zhangqiang\DiplomaProject\experiment\UE\User_NB-IoT_Frame(KL36)(A.50)-190816\Debug/../07_NosPrg/main.c:191
        uecom_modelInfo(mRetdata);    //获取通信模组信息
    a6f2:	4f51      	ldr	r7, [pc, #324]	; (a838 <main+0x374>)
    a6f4:	23be      	movs	r3, #190	; 0xbe
    a6f6:	005b      	lsls	r3, r3, #1
    a6f8:	683a      	ldr	r2, [r7, #0]
    a6fa:	58d3      	ldr	r3, [r2, r3]
    a6fc:	a8ff      	add	r0, sp, #1020	; 0x3fc
    a6fe:	3070      	adds	r0, #112	; 0x70
    a700:	4798      	blx	r3
D:\zhangqiang\DiplomaProject\experiment\UE\User_NB-IoT_Frame(KL36)(A.50)-190816\Debug/../07_NosPrg/main.c:192
        LCD_ShowString(60,85,BLUE,GRAY,mRetdata+20);
    a702:	4c58      	ldr	r4, [pc, #352]	; (a864 <main+0x3a0>)
    a704:	abff      	add	r3, sp, #1020	; 0x3fc
    a706:	3384      	adds	r3, #132	; 0x84
    a708:	9300      	str	r3, [sp, #0]
    a70a:	0023      	movs	r3, r4
    a70c:	221f      	movs	r2, #31
    a70e:	2155      	movs	r1, #85	; 0x55
    a710:	203c      	movs	r0, #60	; 0x3c
    a712:	f001 fb77 	bl	be04 <LCD_ShowString>
D:\zhangqiang\DiplomaProject\experiment\UE\User_NB-IoT_Frame(KL36)(A.50)-190816\Debug/../07_NosPrg/main.c:195
        LCD_ShowString(6,300,BLUE,GRAY,"AHL Init ...                ");
    a716:	2196      	movs	r1, #150	; 0x96
    a718:	4b59      	ldr	r3, [pc, #356]	; (a880 <main+0x3bc>)
    a71a:	9300      	str	r3, [sp, #0]
    a71c:	0023      	movs	r3, r4
    a71e:	221f      	movs	r2, #31
    a720:	0049      	lsls	r1, r1, #1
    a722:	2006      	movs	r0, #6
    a724:	f001 fb6e 	bl	be04 <LCD_ShowString>
D:\zhangqiang\DiplomaProject\experiment\UE\User_NB-IoT_Frame(KL36)(A.50)-190816\Debug/../07_NosPrg/main.c:196
        mflag =uecom_linkBase();
    a728:	683a      	ldr	r2, [r7, #0]
    a72a:	23b4      	movs	r3, #180	; 0xb4
    a72c:	005b      	lsls	r3, r3, #1
    a72e:	58d3      	ldr	r3, [r2, r3]
    a730:	4798      	blx	r3
D:\zhangqiang\DiplomaProject\experiment\UE\User_NB-IoT_Frame(KL36)(A.50)-190816\Debug/../07_NosPrg/main.c:197
        while(mflag)
    a732:	2800      	cmp	r0, #0
    a734:	d00e      	beq.n	a754 <main+0x290>
D:\zhangqiang\DiplomaProject\experiment\UE\User_NB-IoT_Frame(KL36)(A.50)-190816\Debug/../07_NosPrg/main.c:199
         	mflag =uecom_linkBase();
    a736:	4b40      	ldr	r3, [pc, #256]	; (a838 <main+0x374>)
    a738:	4699      	mov	r9, r3
    a73a:	27b4      	movs	r7, #180	; 0xb4
    a73c:	007f      	lsls	r7, r7, #1
    a73e:	464b      	mov	r3, r9
    a740:	681b      	ldr	r3, [r3, #0]
    a742:	59db      	ldr	r3, [r3, r7]
    a744:	4798      	blx	r3
    a746:	0004      	movs	r4, r0
D:\zhangqiang\DiplomaProject\experiment\UE\User_NB-IoT_Frame(KL36)(A.50)-190816\Debug/../07_NosPrg/main.c:200
         	mLinkCount++; //连接次数+1
    a748:	3501      	adds	r5, #1
    a74a:	b2ed      	uxtb	r5, r5
D:\zhangqiang\DiplomaProject\experiment\UE\User_NB-IoT_Frame(KL36)(A.50)-190816\Debug/../07_NosPrg/main.c:201
         	if(mLinkCount>10)
    a74c:	2d0a      	cmp	r5, #10
    a74e:	d803      	bhi.n	a758 <main+0x294>
D:\zhangqiang\DiplomaProject\experiment\UE\User_NB-IoT_Frame(KL36)(A.50)-190816\Debug/../07_NosPrg/main.c:197
        while(mflag)
    a750:	2800      	cmp	r0, #0
    a752:	d1f4      	bne.n	a73e <main+0x27a>
D:\zhangqiang\DiplomaProject\experiment\UE\User_NB-IoT_Frame(KL36)(A.50)-190816\Debug/../07_NosPrg/main.c:91
    mLinkCount=0;                      //基站连接次数=0
    a754:	002c      	movs	r4, r5
    a756:	e012      	b.n	a77e <main+0x2ba>
D:\zhangqiang\DiplomaProject\experiment\UE\User_NB-IoT_Frame(KL36)(A.50)-190816\Debug/../07_NosPrg/main.c:204
 				uecom_power(UECOM_OFF);    //通信模组重启
    a758:	4d37      	ldr	r5, [pc, #220]	; (a838 <main+0x374>)
    a75a:	27b0      	movs	r7, #176	; 0xb0
    a75c:	007f      	lsls	r7, r7, #1
    a75e:	682b      	ldr	r3, [r5, #0]
    a760:	59db      	ldr	r3, [r3, r7]
    a762:	2000      	movs	r0, #0
    a764:	4798      	blx	r3
D:\zhangqiang\DiplomaProject\experiment\UE\User_NB-IoT_Frame(KL36)(A.50)-190816\Debug/../07_NosPrg/main.c:205
 				uecom_delay_ms(6000);      //延时
    a766:	4841      	ldr	r0, [pc, #260]	; (a86c <main+0x3a8>)
    a768:	f000 fde2 	bl	b330 <Delay_ms>
D:\zhangqiang\DiplomaProject\experiment\UE\User_NB-IoT_Frame(KL36)(A.50)-190816\Debug/../07_NosPrg/main.c:206
 				uecom_power(UECOM_REBOOT); //通信模组重启
    a76c:	682b      	ldr	r3, [r5, #0]
    a76e:	59db      	ldr	r3, [r3, r7]
    a770:	2002      	movs	r0, #2
    a772:	4798      	blx	r3
D:\zhangqiang\DiplomaProject\experiment\UE\User_NB-IoT_Frame(KL36)(A.50)-190816\Debug/../07_NosPrg/main.c:207
 				uecom_delay_ms(6000);      //延时
    a774:	483d      	ldr	r0, [pc, #244]	; (a86c <main+0x3a8>)
    a776:	f000 fddb 	bl	b330 <Delay_ms>
D:\zhangqiang\DiplomaProject\experiment\UE\User_NB-IoT_Frame(KL36)(A.50)-190816\Debug/../07_NosPrg/main.c:211
         if(mflag)
    a77a:	2c00      	cmp	r4, #0
    a77c:	d10b      	bne.n	a796 <main+0x2d2>
D:\zhangqiang\DiplomaProject\experiment\UE\User_NB-IoT_Frame(KL36)(A.50)-190816\Debug/../07_NosPrg/main.c:91
    mLinkCount=0;                      //基站连接次数=0
    a77e:	2505      	movs	r5, #5
D:\zhangqiang\DiplomaProject\experiment\UE\User_NB-IoT_Frame(KL36)(A.50)-190816\Debug/../07_NosPrg/main.c:224
            mflag = uecom_baseInfo(mRetdata);
    a780:	abff      	add	r3, sp, #1020	; 0x3fc
    a782:	3370      	adds	r3, #112	; 0x70
    a784:	4698      	mov	r8, r3
    a786:	4b2c      	ldr	r3, [pc, #176]	; (a838 <main+0x374>)
    a788:	469b      	mov	fp, r3
    a78a:	27bc      	movs	r7, #188	; 0xbc
    a78c:	007f      	lsls	r7, r7, #1
    a78e:	0023      	movs	r3, r4
    a790:	002c      	movs	r4, r5
    a792:	001d      	movs	r5, r3
    a794:	e024      	b.n	a7e0 <main+0x31c>
D:\zhangqiang\DiplomaProject\experiment\UE\User_NB-IoT_Frame(KL36)(A.50)-190816\Debug/../07_NosPrg/main.c:213
 			LCD_ShowString(6,300,BLUE,GRAY,"AHL Init ...link base Error ");
    a796:	2196      	movs	r1, #150	; 0x96
    a798:	4b3a      	ldr	r3, [pc, #232]	; (a884 <main+0x3c0>)
    a79a:	9300      	str	r3, [sp, #0]
    a79c:	4b31      	ldr	r3, [pc, #196]	; (a864 <main+0x3a0>)
    a79e:	221f      	movs	r2, #31
    a7a0:	0049      	lsls	r1, r1, #1
    a7a2:	2006      	movs	r0, #6
    a7a4:	f001 fb2e 	bl	be04 <LCD_ShowString>
D:\zhangqiang\DiplomaProject\experiment\UE\User_NB-IoT_Frame(KL36)(A.50)-190816\Debug/../07_NosPrg/main.c:214
 			uecom_power(UECOM_OFF);    //通信模组重启
    a7a8:	4f23      	ldr	r7, [pc, #140]	; (a838 <main+0x374>)
    a7aa:	25b0      	movs	r5, #176	; 0xb0
    a7ac:	006d      	lsls	r5, r5, #1
    a7ae:	683b      	ldr	r3, [r7, #0]
    a7b0:	595b      	ldr	r3, [r3, r5]
    a7b2:	2000      	movs	r0, #0
    a7b4:	4798      	blx	r3
D:\zhangqiang\DiplomaProject\experiment\UE\User_NB-IoT_Frame(KL36)(A.50)-190816\Debug/../07_NosPrg/main.c:215
 			uecom_delay_ms(6000);      //延时
    a7b6:	4c2d      	ldr	r4, [pc, #180]	; (a86c <main+0x3a8>)
    a7b8:	0020      	movs	r0, r4
    a7ba:	f000 fdb9 	bl	b330 <Delay_ms>
D:\zhangqiang\DiplomaProject\experiment\UE\User_NB-IoT_Frame(KL36)(A.50)-190816\Debug/../07_NosPrg/main.c:216
 			uecom_power(UECOM_REBOOT); //通信模组重启
    a7be:	683b      	ldr	r3, [r7, #0]
    a7c0:	595b      	ldr	r3, [r3, r5]
    a7c2:	2002      	movs	r0, #2
    a7c4:	4798      	blx	r3
D:\zhangqiang\DiplomaProject\experiment\UE\User_NB-IoT_Frame(KL36)(A.50)-190816\Debug/../07_NosPrg/main.c:217
 			uecom_delay_ms(6000);      //延时
    a7c6:	0020      	movs	r0, r4
    a7c8:	f000 fdb2 	bl	b330 <Delay_ms>
D:\zhangqiang\DiplomaProject\experiment\UE\User_NB-IoT_Frame(KL36)(A.50)-190816\Debug/../07_NosPrg/main.c:203
         		mLinkCount=0;
    a7cc:	9d04      	ldr	r5, [sp, #16]
D:\zhangqiang\DiplomaProject\experiment\UE\User_NB-IoT_Frame(KL36)(A.50)-190816\Debug/../07_NosPrg/main.c:218
 			continue;
    a7ce:	e73c      	b.n	a64a <main+0x186>
D:\zhangqiang\DiplomaProject\experiment\UE\User_NB-IoT_Frame(KL36)(A.50)-190816\Debug/../07_NosPrg/main.c:227
                Delay_ms(1000);
    a7d0:	20fa      	movs	r0, #250	; 0xfa
    a7d2:	0080      	lsls	r0, r0, #2
    a7d4:	f000 fdac 	bl	b330 <Delay_ms>
    a7d8:	3c01      	subs	r4, #1
    a7da:	b2a4      	uxth	r4, r4
D:\zhangqiang\DiplomaProject\experiment\UE\User_NB-IoT_Frame(KL36)(A.50)-190816\Debug/../07_NosPrg/main.c:222 (discriminator 2)
        for(mi=0;mi<5;mi++)
    a7dc:	2c00      	cmp	r4, #0
    a7de:	d053      	beq.n	a888 <main+0x3c4>
D:\zhangqiang\DiplomaProject\experiment\UE\User_NB-IoT_Frame(KL36)(A.50)-190816\Debug/../07_NosPrg/main.c:224
            mflag = uecom_baseInfo(mRetdata);
    a7e0:	465b      	mov	r3, fp
    a7e2:	681b      	ldr	r3, [r3, #0]
    a7e4:	59db      	ldr	r3, [r3, r7]
    a7e6:	4640      	mov	r0, r8
    a7e8:	4798      	blx	r3
D:\zhangqiang\DiplomaProject\experiment\UE\User_NB-IoT_Frame(KL36)(A.50)-190816\Debug/../07_NosPrg/main.c:225
            if(mflag)
    a7ea:	2800      	cmp	r0, #0
    a7ec:	d1f0      	bne.n	a7d0 <main+0x30c>
D:\zhangqiang\DiplomaProject\experiment\UE\User_NB-IoT_Frame(KL36)(A.50)-190816\Debug/../07_NosPrg/main.c:230
            ArrayCopy(mLBS,mRetdata+1,19);  //位置信息保存在mLBS中备用
    a7ee:	abff      	add	r3, sp, #1020	; 0x3fc
    a7f0:	3371      	adds	r3, #113	; 0x71
    a7f2:	469a      	mov	sl, r3
    a7f4:	2213      	movs	r2, #19
    a7f6:	0019      	movs	r1, r3
    a7f8:	a810      	add	r0, sp, #64	; 0x40
    a7fa:	f001 f961 	bl	bac0 <ArrayCopy>
D:\zhangqiang\DiplomaProject\experiment\UE\User_NB-IoT_Frame(KL36)(A.50)-190816\Debug/../07_NosPrg/main.c:231
            LCD_ShowString(60,131,BLUE,GRAY,mRetdata+1);  //基站位置
    a7fe:	4653      	mov	r3, sl
    a800:	9300      	str	r3, [sp, #0]
    a802:	4b18      	ldr	r3, [pc, #96]	; (a864 <main+0x3a0>)
    a804:	221f      	movs	r2, #31
    a806:	2183      	movs	r1, #131	; 0x83
    a808:	203c      	movs	r0, #60	; 0x3c
    a80a:	f001 fafb 	bl	be04 <LCD_ShowString>
D:\zhangqiang\DiplomaProject\experiment\UE\User_NB-IoT_Frame(KL36)(A.50)-190816\Debug/../07_NosPrg/main.c:233
                    (uint_8 *)IntConvertToStr(mRetdata[0],mString));
    a80e:	4643      	mov	r3, r8
    a810:	7818      	ldrb	r0, [r3, #0]
    a812:	a9ff      	add	r1, sp, #1020	; 0x3fc
    a814:	3150      	adds	r1, #80	; 0x50
    a816:	f001 f87f 	bl	b918 <IntConvertToStr>
D:\zhangqiang\DiplomaProject\experiment\UE\User_NB-IoT_Frame(KL36)(A.50)-190816\Debug/../07_NosPrg/main.c:232
            LCD_ShowString(170,150,BLUE,GRAY,
    a81a:	9000      	str	r0, [sp, #0]
    a81c:	4b11      	ldr	r3, [pc, #68]	; (a864 <main+0x3a0>)
    a81e:	221f      	movs	r2, #31
    a820:	2196      	movs	r1, #150	; 0x96
    a822:	20aa      	movs	r0, #170	; 0xaa
    a824:	f001 faee 	bl	be04 <LCD_ShowString>
    a828:	e7d6      	b.n	a7d8 <main+0x314>
    a82a:	46c0      	nop			; (mov r8, r8)
    a82c:	fffffb2c 	.word	0xfffffb2c
    a830:	20000560 	.word	0x20000560
    a834:	5eb326f2 	.word	0x5eb326f2
    a838:	20000568 	.word	0x20000568
    a83c:	20000698 	.word	0x20000698
    a840:	2000069a 	.word	0x2000069a
    a844:	00cc0011 	.word	0x00cc0011
    a848:	00000413 	.word	0x00000413
    a84c:	0000041d 	.word	0x0000041d
    a850:	00000201 	.word	0x00000201
    a854:	20000098 	.word	0x20000098
    a858:	2000056c 	.word	0x2000056c
    a85c:	4007f000 	.word	0x4007f000
    a860:	0000da4c 	.word	0x0000da4c
    a864:	00008430 	.word	0x00008430
    a868:	20000136 	.word	0x20000136
    a86c:	00001770 	.word	0x00001770
    a870:	0000da6c 	.word	0x0000da6c
    a874:	0000da8c 	.word	0x0000da8c
    a878:	0000daac 	.word	0x0000daac
    a87c:	0000dacc 	.word	0x0000dacc
    a880:	0000daec 	.word	0x0000daec
    a884:	0000db0c 	.word	0x0000db0c
D:\zhangqiang\DiplomaProject\experiment\UE\User_NB-IoT_Frame(KL36)(A.50)-190816\Debug/../07_NosPrg/main.c:236
        LCD_ShowString(6,300,BLUE,GRAY,"AHL Init ....               ");
    a888:	2196      	movs	r1, #150	; 0x96
    a88a:	4bd5      	ldr	r3, [pc, #852]	; (abe0 <main+0x71c>)
    a88c:	9300      	str	r3, [sp, #0]
    a88e:	4bd5      	ldr	r3, [pc, #852]	; (abe4 <main+0x720>)
    a890:	221f      	movs	r2, #31
    a892:	0049      	lsls	r1, r1, #1
    a894:	2006      	movs	r0, #6
    a896:	f001 fab5 	bl	be04 <LCD_ShowString>
D:\zhangqiang\DiplomaProject\experiment\UE\User_NB-IoT_Frame(KL36)(A.50)-190816\Debug/../07_NosPrg/main.c:237
        mflag =uecom_linkCS(gFlashData.serverIP,gFlashData.serverPort);
    a89a:	4bd3      	ldr	r3, [pc, #844]	; (abe8 <main+0x724>)
    a89c:	681a      	ldr	r2, [r3, #0]
    a89e:	23b6      	movs	r3, #182	; 0xb6
    a8a0:	005b      	lsls	r3, r3, #1
    a8a2:	58d3      	ldr	r3, [r2, r3]
    a8a4:	49d1      	ldr	r1, [pc, #836]	; (abec <main+0x728>)
    a8a6:	9805      	ldr	r0, [sp, #20]
    a8a8:	4798      	blx	r3
    a8aa:	900b      	str	r0, [sp, #44]	; 0x2c
D:\zhangqiang\DiplomaProject\experiment\UE\User_NB-IoT_Frame(KL36)(A.50)-190816\Debug/../07_NosPrg/main.c:238
        if(mflag)
    a8ac:	2800      	cmp	r0, #0
    a8ae:	d12a      	bne.n	a906 <main+0x442>
D:\zhangqiang\DiplomaProject\experiment\UE\User_NB-IoT_Frame(KL36)(A.50)-190816\Debug/../07_NosPrg/main.c:244
        LCD_ShowString(6,300,BLUE,GRAY,"AHL Init ..... Successfully ");
    a8b0:	2196      	movs	r1, #150	; 0x96
    a8b2:	4bcf      	ldr	r3, [pc, #828]	; (abf0 <main+0x72c>)
    a8b4:	9300      	str	r3, [sp, #0]
    a8b6:	4bcb      	ldr	r3, [pc, #812]	; (abe4 <main+0x720>)
    a8b8:	221f      	movs	r2, #31
    a8ba:	0049      	lsls	r1, r1, #1
    a8bc:	2006      	movs	r0, #6
    a8be:	f001 faa1 	bl	be04 <LCD_ShowString>
D:\zhangqiang\DiplomaProject\experiment\UE\User_NB-IoT_Frame(KL36)(A.50)-190816\Debug/../07_NosPrg/main.c:249
     vuint_8 a=uecom_gnssSwitch (3);
    a8c2:	4bc9      	ldr	r3, [pc, #804]	; (abe8 <main+0x724>)
    a8c4:	681a      	ldr	r2, [r3, #0]
    a8c6:	23c4      	movs	r3, #196	; 0xc4
    a8c8:	005b      	lsls	r3, r3, #1
    a8ca:	58d3      	ldr	r3, [r2, r3]
    a8cc:	2003      	movs	r0, #3
    a8ce:	4798      	blx	r3
    a8d0:	230f      	movs	r3, #15
    a8d2:	aa0c      	add	r2, sp, #48	; 0x30
    a8d4:	4694      	mov	ip, r2
    a8d6:	4463      	add	r3, ip
    a8d8:	7018      	strb	r0, [r3, #0]
D:\zhangqiang\DiplomaProject\experiment\UE\User_NB-IoT_Frame(KL36)(A.50)-190816\Debug/../07_NosPrg/main.c:95
    mLCDFlag = 0;                      //清零LCD更新标志位
    a8da:	9b0b      	ldr	r3, [sp, #44]	; 0x2c
    a8dc:	930c      	str	r3, [sp, #48]	; 0x30
D:\zhangqiang\DiplomaProject\experiment\UE\User_NB-IoT_Frame(KL36)(A.50)-190816\Debug/../07_NosPrg/main.c:94
    mRecvCount = 0;                    //清空接收次数
    a8de:	2300      	movs	r3, #0
    a8e0:	2400      	movs	r4, #0
    a8e2:	9308      	str	r3, [sp, #32]
    a8e4:	9409      	str	r4, [sp, #36]	; 0x24
D:\zhangqiang\DiplomaProject\experiment\UE\User_NB-IoT_Frame(KL36)(A.50)-190816\Debug/../07_NosPrg/main.c:89
    mSendFlag = 1;                     //默认终端发送数据
    a8e6:	3301      	adds	r3, #1
    a8e8:	9306      	str	r3, [sp, #24]
D:\zhangqiang\DiplomaProject\experiment\UE\User_NB-IoT_Frame(KL36)(A.50)-190816\Debug/../07_NosPrg/main.c:88
    mTsi=0;                            //清空触摸按键次数
    a8ea:	2300      	movs	r3, #0
    a8ec:	4699      	mov	r9, r3
D:\zhangqiang\DiplomaProject\experiment\UE\User_NB-IoT_Frame(KL36)(A.50)-190816\Debug/../07_NosPrg/main.c:262
        mTmp=sysTimeGet();              //获得当前系统时间
    a8ee:	4bbe      	ldr	r3, [pc, #760]	; (abe8 <main+0x724>)
    a8f0:	469a      	mov	sl, r3
D:\zhangqiang\DiplomaProject\experiment\UE\User_NB-IoT_Frame(KL36)(A.50)-190816\Debug/../07_NosPrg/main.c:264
        if (mTmp!=gTimeSec)             //1秒到
    a8f2:	4bc0      	ldr	r3, [pc, #768]	; (abf4 <main+0x730>)
    a8f4:	469b      	mov	fp, r3
D:\zhangqiang\DiplomaProject\experiment\UE\User_NB-IoT_Frame(KL36)(A.50)-190816\Debug/../07_NosPrg/main.c:361
            mflag = uecom_linkCS(gFlashData.serverIP,gFlashData.serverPort);
    a8f6:	4bbd      	ldr	r3, [pc, #756]	; (abec <main+0x728>)
    a8f8:	3b0f      	subs	r3, #15
    a8fa:	9305      	str	r3, [sp, #20]
D:\zhangqiang\DiplomaProject\experiment\UE\User_NB-IoT_Frame(KL36)(A.50)-190816\Debug/../07_NosPrg/main.c:318
				ArrayCopy(mSendData+17,(uint_8 *)&gUserData.currentTime,8);
    a8fc:	4bbe      	ldr	r3, [pc, #760]	; (abf8 <main+0x734>)
    a8fe:	3323      	adds	r3, #35	; 0x23
    a900:	930d      	str	r3, [sp, #52]	; 0x34
    a902:	46c8      	mov	r8, r9
    a904:	e1fa      	b.n	acfc <main+0x838>
D:\zhangqiang\DiplomaProject\experiment\UE\User_NB-IoT_Frame(KL36)(A.50)-190816\Debug/../07_NosPrg/main.c:240
            LCD_ShowString(6,300,BLUE,GRAY,"AHL....Link CS-Monitor Error");
    a906:	2196      	movs	r1, #150	; 0x96
    a908:	4bbc      	ldr	r3, [pc, #752]	; (abfc <main+0x738>)
    a90a:	9300      	str	r3, [sp, #0]
    a90c:	4bb5      	ldr	r3, [pc, #724]	; (abe4 <main+0x720>)
    a90e:	221f      	movs	r2, #31
    a910:	0049      	lsls	r1, r1, #1
    a912:	2006      	movs	r0, #6
    a914:	f001 fa76 	bl	be04 <LCD_ShowString>
D:\zhangqiang\DiplomaProject\experiment\UE\User_NB-IoT_Frame(KL36)(A.50)-190816\Debug/../07_NosPrg/main.c:241
            uecom_power(UECOM_REBOOT);  //通信模组重启
    a918:	4bb3      	ldr	r3, [pc, #716]	; (abe8 <main+0x724>)
    a91a:	681a      	ldr	r2, [r3, #0]
    a91c:	23b0      	movs	r3, #176	; 0xb0
    a91e:	005b      	lsls	r3, r3, #1
    a920:	58d3      	ldr	r3, [r2, r3]
    a922:	2002      	movs	r0, #2
    a924:	4798      	blx	r3
D:\zhangqiang\DiplomaProject\experiment\UE\User_NB-IoT_Frame(KL36)(A.50)-190816\Debug/../07_NosPrg/main.c:242
            continue;
    a926:	e690      	b.n	a64a <main+0x186>
D:\zhangqiang\DiplomaProject\experiment\UE\User_NB-IoT_Frame(KL36)(A.50)-190816\Debug/../07_NosPrg/main.c:264
        if (mTmp!=gTimeSec)             //1秒到
    a928:	465b      	mov	r3, fp
    a92a:	685b      	ldr	r3, [r3, #4]
    a92c:	428b      	cmp	r3, r1
    a92e:	d000      	beq.n	a932 <main+0x46e>
    a930:	e1ef      	b.n	ad12 <main+0x84e>
    a932:	e276      	b.n	ae22 <main+0x95e>
D:\zhangqiang\DiplomaProject\experiment\UE\User_NB-IoT_Frame(KL36)(A.50)-190816\Debug/../07_NosPrg/main.c:270 (discriminator 1)
        	if(gUserData.isAutoOpenFan==1&&human==1&&gUserData.pre_temp<=gUserData.temp){
    a934:	9b0a      	ldr	r3, [sp, #40]	; 0x28
    a936:	2b01      	cmp	r3, #1
    a938:	d013      	beq.n	a962 <main+0x49e>
D:\zhangqiang\DiplomaProject\experiment\UE\User_NB-IoT_Frame(KL36)(A.50)-190816\Debug/../07_NosPrg/main.c:274
        	if(gUserData.isAutoOpenFan==1&&human==0){
    a93a:	9b0a      	ldr	r3, [sp, #40]	; 0x28
    a93c:	2b00      	cmp	r3, #0
    a93e:	d000      	beq.n	a942 <main+0x47e>
    a940:	e216      	b.n	ad70 <main+0x8ac>
D:\zhangqiang\DiplomaProject\experiment\UE\User_NB-IoT_Frame(KL36)(A.50)-190816\Debug/../07_NosPrg/main.c:275
        		gpio_set(SWITCH_ELC,SWITCH_OFF);
    a942:	4eaf      	ldr	r6, [pc, #700]	; (ac00 <main+0x73c>)
    a944:	4fa8      	ldr	r7, [pc, #672]	; (abe8 <main+0x724>)
    a946:	683b      	ldr	r3, [r7, #0]
    a948:	6e1b      	ldr	r3, [r3, #96]	; 0x60
    a94a:	2101      	movs	r1, #1
    a94c:	0030      	movs	r0, r6
    a94e:	4798      	blx	r3
D:\zhangqiang\DiplomaProject\experiment\UE\User_NB-IoT_Frame(KL36)(A.50)-190816\Debug/../07_NosPrg/main.c:276
        	    printf("开关状态%d\n",gpio_get(SWITCH_ELC));
    a950:	683b      	ldr	r3, [r7, #0]
    a952:	6e5b      	ldr	r3, [r3, #100]	; 0x64
    a954:	0030      	movs	r0, r6
    a956:	4798      	blx	r3
    a958:	0001      	movs	r1, r0
    a95a:	48aa      	ldr	r0, [pc, #680]	; (ac04 <main+0x740>)
    a95c:	f001 ffe2 	bl	c924 <myprintf>
    a960:	e206      	b.n	ad70 <main+0x8ac>
D:\zhangqiang\DiplomaProject\experiment\UE\User_NB-IoT_Frame(KL36)(A.50)-190816\Debug/../07_NosPrg/main.c:270 (discriminator 2)
        	if(gUserData.isAutoOpenFan==1&&human==1&&gUserData.pre_temp<=gUserData.temp){
    a962:	4ba9      	ldr	r3, [pc, #676]	; (ac08 <main+0x744>)
    a964:	2224      	movs	r2, #36	; 0x24
    a966:	32ff      	adds	r2, #255	; 0xff
    a968:	5c98      	ldrb	r0, [r3, r2]
    a96a:	3201      	adds	r2, #1
    a96c:	5c9a      	ldrb	r2, [r3, r2]
    a96e:	0212      	lsls	r2, r2, #8
    a970:	4302      	orrs	r2, r0
    a972:	2126      	movs	r1, #38	; 0x26
    a974:	31ff      	adds	r1, #255	; 0xff
    a976:	5c58      	ldrb	r0, [r3, r1]
    a978:	0400      	lsls	r0, r0, #16
    a97a:	4302      	orrs	r2, r0
    a97c:	3101      	adds	r1, #1
    a97e:	5c58      	ldrb	r0, [r3, r1]
    a980:	0600      	lsls	r0, r0, #24
    a982:	4310      	orrs	r0, r2
    a984:	2218      	movs	r2, #24
    a986:	32ff      	adds	r2, #255	; 0xff
    a988:	5c9e      	ldrb	r6, [r3, r2]
    a98a:	3201      	adds	r2, #1
    a98c:	5c9a      	ldrb	r2, [r3, r2]
    a98e:	0212      	lsls	r2, r2, #8
    a990:	4316      	orrs	r6, r2
    a992:	221a      	movs	r2, #26
    a994:	32ff      	adds	r2, #255	; 0xff
    a996:	5c99      	ldrb	r1, [r3, r2]
    a998:	0409      	lsls	r1, r1, #16
    a99a:	430e      	orrs	r6, r1
    a99c:	218d      	movs	r1, #141	; 0x8d
    a99e:	0049      	lsls	r1, r1, #1
    a9a0:	5c59      	ldrb	r1, [r3, r1]
    a9a2:	0609      	lsls	r1, r1, #24
    a9a4:	4331      	orrs	r1, r6
    a9a6:	f7fc fb89 	bl	70bc <__aeabi_fcmple>
    a9aa:	2800      	cmp	r0, #0
    a9ac:	d100      	bne.n	a9b0 <main+0x4ec>
    a9ae:	e1df      	b.n	ad70 <main+0x8ac>
D:\zhangqiang\DiplomaProject\experiment\UE\User_NB-IoT_Frame(KL36)(A.50)-190816\Debug/../07_NosPrg/main.c:271
        		gpio_set(SWITCH_ELC,SWITCH_ON);
    a9b0:	4e93      	ldr	r6, [pc, #588]	; (ac00 <main+0x73c>)
    a9b2:	4f8d      	ldr	r7, [pc, #564]	; (abe8 <main+0x724>)
    a9b4:	683b      	ldr	r3, [r7, #0]
    a9b6:	6e1b      	ldr	r3, [r3, #96]	; 0x60
    a9b8:	2100      	movs	r1, #0
    a9ba:	0030      	movs	r0, r6
    a9bc:	4798      	blx	r3
D:\zhangqiang\DiplomaProject\experiment\UE\User_NB-IoT_Frame(KL36)(A.50)-190816\Debug/../07_NosPrg/main.c:272
        		printf("开关状态%d\n",gpio_get(SWITCH_ELC));
    a9be:	683b      	ldr	r3, [r7, #0]
    a9c0:	6e5b      	ldr	r3, [r3, #100]	; 0x64
    a9c2:	0030      	movs	r0, r6
    a9c4:	4798      	blx	r3
    a9c6:	0001      	movs	r1, r0
    a9c8:	488e      	ldr	r0, [pc, #568]	; (ac04 <main+0x740>)
    a9ca:	f001 ffab 	bl	c924 <myprintf>
    a9ce:	e1cf      	b.n	ad70 <main+0x8ac>
    a9d0:	4643      	mov	r3, r8
    a9d2:	9304      	str	r3, [sp, #16]
    a9d4:	f000 fc35 	bl	b242 <main+0xd7e>
D:\zhangqiang\DiplomaProject\experiment\UE\User_NB-IoT_Frame(KL36)(A.50)-190816\Debug/../07_NosPrg/main.c:308 (discriminator 1)
			if(gFlashData.frameCmd[0]=='U'&&gFlashData.frameCmd[1]=='0')
    a9d8:	3357      	adds	r3, #87	; 0x57
    a9da:	5cd3      	ldrb	r3, [r2, r3]
    a9dc:	2b30      	cmp	r3, #48	; 0x30
    a9de:	d044      	beq.n	aa6a <main+0x5a6>
D:\zhangqiang\DiplomaProject\experiment\UE\User_NB-IoT_Frame(KL36)(A.50)-190816\Debug/../07_NosPrg/main.c:314 (discriminator 1)
			else if(gFlashData.frameCmd[0]=='U'&&gFlashData.frameCmd[1]=='1')
    a9e0:	2b31      	cmp	r3, #49	; 0x31
    a9e2:	d001      	beq.n	a9e8 <main+0x524>
    a9e4:	f000 fc37 	bl	b256 <main+0xd92>
D:\zhangqiang\DiplomaProject\experiment\UE\User_NB-IoT_Frame(KL36)(A.50)-190816\Debug/../07_NosPrg/main.c:316
				ArrayCopy(mSendData,gFlashData.frameCmd,2);
    a9e8:	2202      	movs	r2, #2
    a9ea:	4988      	ldr	r1, [pc, #544]	; (ac0c <main+0x748>)
    a9ec:	a818      	add	r0, sp, #96	; 0x60
    a9ee:	f001 f867 	bl	bac0 <ArrayCopy>
D:\zhangqiang\DiplomaProject\experiment\UE\User_NB-IoT_Frame(KL36)(A.50)-190816\Debug/../07_NosPrg/main.c:317
				ArrayCopy(mSendData+2,gUserData.IMSI,15);
    a9f2:	220f      	movs	r2, #15
    a9f4:	4980      	ldr	r1, [pc, #512]	; (abf8 <main+0x734>)
    a9f6:	2032      	movs	r0, #50	; 0x32
    a9f8:	ab0c      	add	r3, sp, #48	; 0x30
    a9fa:	469c      	mov	ip, r3
    a9fc:	4460      	add	r0, ip
    a9fe:	f001 f85f 	bl	bac0 <ArrayCopy>
D:\zhangqiang\DiplomaProject\experiment\UE\User_NB-IoT_Frame(KL36)(A.50)-190816\Debug/../07_NosPrg/main.c:318
				ArrayCopy(mSendData+17,(uint_8 *)&gUserData.currentTime,8);
    aa02:	2208      	movs	r2, #8
    aa04:	990d      	ldr	r1, [sp, #52]	; 0x34
    aa06:	2041      	movs	r0, #65	; 0x41
    aa08:	ab0c      	add	r3, sp, #48	; 0x30
    aa0a:	469c      	mov	ip, r3
    aa0c:	4460      	add	r0, ip
    aa0e:	f001 f857 	bl	bac0 <ArrayCopy>
D:\zhangqiang\DiplomaProject\experiment\UE\User_NB-IoT_Frame(KL36)(A.50)-190816\Debug/../07_NosPrg/main.c:319
				ArrayCopy(mSendData+25,(uint_8 *)&gUserData.mcuTemp,4);
    aa12:	4979      	ldr	r1, [pc, #484]	; (abf8 <main+0x734>)
    aa14:	31af      	adds	r1, #175	; 0xaf
    aa16:	2204      	movs	r2, #4
    aa18:	2049      	movs	r0, #73	; 0x49
    aa1a:	ab0c      	add	r3, sp, #48	; 0x30
    aa1c:	469c      	mov	ip, r3
    aa1e:	4460      	add	r0, ip
    aa20:	f001 f84e 	bl	bac0 <ArrayCopy>
D:\zhangqiang\DiplomaProject\experiment\UE\User_NB-IoT_Frame(KL36)(A.50)-190816\Debug/../07_NosPrg/main.c:320
				ArrayCopy(mSendData+29,(uint_8 *)&gUserData.signalPower,1);
    aa24:	4974      	ldr	r1, [pc, #464]	; (abf8 <main+0x734>)
    aa26:	31e1      	adds	r1, #225	; 0xe1
    aa28:	2201      	movs	r2, #1
    aa2a:	204d      	movs	r0, #77	; 0x4d
    aa2c:	ab0c      	add	r3, sp, #48	; 0x30
    aa2e:	469c      	mov	ip, r3
    aa30:	4460      	add	r0, ip
    aa32:	f001 f845 	bl	bac0 <ArrayCopy>
D:\zhangqiang\DiplomaProject\experiment\UE\User_NB-IoT_Frame(KL36)(A.50)-190816\Debug/../07_NosPrg/main.c:321
				ArrayCopy(mSendData+30,(uint_8 *)&gUserData.bright,2);
    aa36:	4970      	ldr	r1, [pc, #448]	; (abf8 <main+0x734>)
    aa38:	31e2      	adds	r1, #226	; 0xe2
    aa3a:	2202      	movs	r2, #2
    aa3c:	204e      	movs	r0, #78	; 0x4e
    aa3e:	ab0c      	add	r3, sp, #48	; 0x30
    aa40:	469c      	mov	ip, r3
    aa42:	4460      	add	r0, ip
    aa44:	f001 f83c 	bl	bac0 <ArrayCopy>
D:\zhangqiang\DiplomaProject\experiment\UE\User_NB-IoT_Frame(KL36)(A.50)-190816\Debug/../07_NosPrg/main.c:322
				ArrayCopy(mSendData+32,(uint_8 *)&gUserData.touchNum,2);
    aa48:	496b      	ldr	r1, [pc, #428]	; (abf8 <main+0x734>)
    aa4a:	31e4      	adds	r1, #228	; 0xe4
    aa4c:	2202      	movs	r2, #2
    aa4e:	a820      	add	r0, sp, #128	; 0x80
    aa50:	f001 f836 	bl	bac0 <ArrayCopy>
D:\zhangqiang\DiplomaProject\experiment\UE\User_NB-IoT_Frame(KL36)(A.50)-190816\Debug/../07_NosPrg/main.c:323
				ArrayCopy(mSendData+34,gUserData.lbs_location,25);
    aa54:	4968      	ldr	r1, [pc, #416]	; (abf8 <main+0x734>)
    aa56:	31fa      	adds	r1, #250	; 0xfa
    aa58:	2219      	movs	r2, #25
    aa5a:	2052      	movs	r0, #82	; 0x52
    aa5c:	ab0c      	add	r3, sp, #48	; 0x30
    aa5e:	469c      	mov	ip, r3
    aa60:	4460      	add	r0, ip
    aa62:	f001 f82d 	bl	bac0 <ArrayCopy>
    aa66:	f000 fbf6 	bl	b256 <main+0xd92>
D:\zhangqiang\DiplomaProject\experiment\UE\User_NB-IoT_Frame(KL36)(A.50)-190816\Debug/../07_NosPrg/main.c:311
				ArrayCopy(gUserData.cmd,gFlashData.frameCmd,2);
    aa6a:	4d67      	ldr	r5, [pc, #412]	; (ac08 <main+0x744>)
    aa6c:	2202      	movs	r2, #2
    aa6e:	4967      	ldr	r1, [pc, #412]	; (ac0c <main+0x748>)
    aa70:	0028      	movs	r0, r5
    aa72:	f001 f825 	bl	bac0 <ArrayCopy>
D:\zhangqiang\DiplomaProject\experiment\UE\User_NB-IoT_Frame(KL36)(A.50)-190816\Debug/../07_NosPrg/main.c:312
				ArrayCopy(mSendData,(uint_8 *)&gUserData,mSendLen);
    aa76:	242c      	movs	r4, #44	; 0x2c
    aa78:	34ff      	adds	r4, #255	; 0xff
    aa7a:	0022      	movs	r2, r4
    aa7c:	0029      	movs	r1, r5
    aa7e:	a818      	add	r0, sp, #96	; 0x60
    aa80:	f001 f81e 	bl	bac0 <ArrayCopy>
D:\zhangqiang\DiplomaProject\experiment\UE\User_NB-IoT_Frame(KL36)(A.50)-190816\Debug/../07_NosPrg/main.c:310
				mSendLen = mUserLen;
    aa84:	9403      	str	r4, [sp, #12]
D:\zhangqiang\DiplomaProject\experiment\UE\User_NB-IoT_Frame(KL36)(A.50)-190816\Debug/../07_NosPrg/main.c:312
				ArrayCopy(mSendData,(uint_8 *)&gUserData,mSendLen);
    aa86:	e3e6      	b.n	b256 <main+0xd92>
D:\zhangqiang\DiplomaProject\experiment\UE\User_NB-IoT_Frame(KL36)(A.50)-190816\Debug/../07_NosPrg/main.c:345
                    LCD_ShowString(6,300,BLUE,GRAY,"Send Error:Send Not Start   ");
    aa88:	2196      	movs	r1, #150	; 0x96
    aa8a:	4b61      	ldr	r3, [pc, #388]	; (ac10 <main+0x74c>)
    aa8c:	9300      	str	r3, [sp, #0]
    aa8e:	4b55      	ldr	r3, [pc, #340]	; (abe4 <main+0x720>)
    aa90:	221f      	movs	r2, #31
    aa92:	0049      	lsls	r1, r1, #1
    aa94:	2006      	movs	r0, #6
    aa96:	f001 f9b5 	bl	be04 <LCD_ShowString>
D:\zhangqiang\DiplomaProject\experiment\UE\User_NB-IoT_Frame(KL36)(A.50)-190816\Debug/../07_NosPrg/main.c:352
            LCD_ShowString(6,300,BLUE,GRAY,"AHL Reinit .                ");
    aa9a:	2596      	movs	r5, #150	; 0x96
    aa9c:	006d      	lsls	r5, r5, #1
    aa9e:	4f5d      	ldr	r7, [pc, #372]	; (ac14 <main+0x750>)
    aaa0:	9700      	str	r7, [sp, #0]
    aaa2:	4b50      	ldr	r3, [pc, #320]	; (abe4 <main+0x720>)
    aaa4:	221f      	movs	r2, #31
    aaa6:	0029      	movs	r1, r5
    aaa8:	2006      	movs	r0, #6
    aaaa:	f001 f9ab 	bl	be04 <LCD_ShowString>
D:\zhangqiang\DiplomaProject\experiment\UE\User_NB-IoT_Frame(KL36)(A.50)-190816\Debug/../07_NosPrg/main.c:353
            uecom_init();
    aaae:	4c4e      	ldr	r4, [pc, #312]	; (abe8 <main+0x724>)
    aab0:	26b2      	movs	r6, #178	; 0xb2
    aab2:	0076      	lsls	r6, r6, #1
    aab4:	6823      	ldr	r3, [r4, #0]
    aab6:	599b      	ldr	r3, [r3, r6]
    aab8:	4798      	blx	r3
D:\zhangqiang\DiplomaProject\experiment\UE\User_NB-IoT_Frame(KL36)(A.50)-190816\Debug/../07_NosPrg/main.c:354
            Delay_ms(100);
    aaba:	2064      	movs	r0, #100	; 0x64
    aabc:	f000 fc38 	bl	b330 <Delay_ms>
D:\zhangqiang\DiplomaProject\experiment\UE\User_NB-IoT_Frame(KL36)(A.50)-190816\Debug/../07_NosPrg/main.c:356
            LCD_ShowString(6,300,BLUE,GRAY,"AHL Reinit .                ");
    aac0:	9700      	str	r7, [sp, #0]
    aac2:	4b48      	ldr	r3, [pc, #288]	; (abe4 <main+0x720>)
    aac4:	221f      	movs	r2, #31
    aac6:	0029      	movs	r1, r5
    aac8:	2006      	movs	r0, #6
    aaca:	f001 f99b 	bl	be04 <LCD_ShowString>
D:\zhangqiang\DiplomaProject\experiment\UE\User_NB-IoT_Frame(KL36)(A.50)-190816\Debug/../07_NosPrg/main.c:357
            uecom_init();
    aace:	6823      	ldr	r3, [r4, #0]
    aad0:	599b      	ldr	r3, [r3, r6]
    aad2:	4798      	blx	r3
D:\zhangqiang\DiplomaProject\experiment\UE\User_NB-IoT_Frame(KL36)(A.50)-190816\Debug/../07_NosPrg/main.c:358
            LCD_ShowString(6,300,BLUE,GRAY,"AHL Reinit ..               ");
    aad4:	4b50      	ldr	r3, [pc, #320]	; (ac18 <main+0x754>)
    aad6:	9300      	str	r3, [sp, #0]
    aad8:	4b42      	ldr	r3, [pc, #264]	; (abe4 <main+0x720>)
    aada:	221f      	movs	r2, #31
    aadc:	0029      	movs	r1, r5
    aade:	2006      	movs	r0, #6
    aae0:	f001 f990 	bl	be04 <LCD_ShowString>
D:\zhangqiang\DiplomaProject\experiment\UE\User_NB-IoT_Frame(KL36)(A.50)-190816\Debug/../07_NosPrg/main.c:359
            uecom_linkBase();
    aae4:	23b4      	movs	r3, #180	; 0xb4
    aae6:	005b      	lsls	r3, r3, #1
    aae8:	6822      	ldr	r2, [r4, #0]
    aaea:	58d3      	ldr	r3, [r2, r3]
    aaec:	4798      	blx	r3
D:\zhangqiang\DiplomaProject\experiment\UE\User_NB-IoT_Frame(KL36)(A.50)-190816\Debug/../07_NosPrg/main.c:360
            LCD_ShowString(6,300,BLUE,GRAY,"AHL Reinit ...               ");
    aaee:	4b4b      	ldr	r3, [pc, #300]	; (ac1c <main+0x758>)
    aaf0:	9300      	str	r3, [sp, #0]
    aaf2:	4b3c      	ldr	r3, [pc, #240]	; (abe4 <main+0x720>)
    aaf4:	221f      	movs	r2, #31
    aaf6:	0029      	movs	r1, r5
    aaf8:	2006      	movs	r0, #6
    aafa:	f001 f983 	bl	be04 <LCD_ShowString>
D:\zhangqiang\DiplomaProject\experiment\UE\User_NB-IoT_Frame(KL36)(A.50)-190816\Debug/../07_NosPrg/main.c:361
            mflag = uecom_linkCS(gFlashData.serverIP,gFlashData.serverPort);
    aafe:	6822      	ldr	r2, [r4, #0]
    ab00:	23b6      	movs	r3, #182	; 0xb6
    ab02:	005b      	lsls	r3, r3, #1
    ab04:	58d3      	ldr	r3, [r2, r3]
    ab06:	4939      	ldr	r1, [pc, #228]	; (abec <main+0x728>)
    ab08:	9805      	ldr	r0, [sp, #20]
    ab0a:	4798      	blx	r3
D:\zhangqiang\DiplomaProject\experiment\UE\User_NB-IoT_Frame(KL36)(A.50)-190816\Debug/../07_NosPrg/main.c:362
            if(mflag)
    ab0c:	2800      	cmp	r0, #0
    ab0e:	d132      	bne.n	ab76 <main+0x6b2>
D:\zhangqiang\DiplomaProject\experiment\UE\User_NB-IoT_Frame(KL36)(A.50)-190816\Debug/../07_NosPrg/main.c:366
                LCD_ShowString(6,300,BLUE,GRAY,"AHL Reinit .... Success     ");
    ab10:	2496      	movs	r4, #150	; 0x96
    ab12:	0064      	lsls	r4, r4, #1
    ab14:	4b42      	ldr	r3, [pc, #264]	; (ac20 <main+0x75c>)
    ab16:	9300      	str	r3, [sp, #0]
    ab18:	4b32      	ldr	r3, [pc, #200]	; (abe4 <main+0x720>)
    ab1a:	221f      	movs	r2, #31
    ab1c:	0021      	movs	r1, r4
    ab1e:	2006      	movs	r0, #6
    ab20:	f001 f970 	bl	be04 <LCD_ShowString>
D:\zhangqiang\DiplomaProject\experiment\UE\User_NB-IoT_Frame(KL36)(A.50)-190816\Debug/../07_NosPrg/main.c:368
                LCD_ShowString(6,300,BLUE,GRAY,"AHL Send .                  ");
    ab24:	4b3f      	ldr	r3, [pc, #252]	; (ac24 <main+0x760>)
    ab26:	9300      	str	r3, [sp, #0]
    ab28:	4b2e      	ldr	r3, [pc, #184]	; (abe4 <main+0x720>)
    ab2a:	221f      	movs	r2, #31
    ab2c:	0021      	movs	r1, r4
    ab2e:	2006      	movs	r0, #6
    ab30:	f001 f968 	bl	be04 <LCD_ShowString>
D:\zhangqiang\DiplomaProject\experiment\UE\User_NB-IoT_Frame(KL36)(A.50)-190816\Debug/../07_NosPrg/main.c:370
                mflag = uecom_send(mSendLen,mSendData);
    ab34:	4b2c      	ldr	r3, [pc, #176]	; (abe8 <main+0x724>)
    ab36:	681a      	ldr	r2, [r3, #0]
    ab38:	23b8      	movs	r3, #184	; 0xb8
    ab3a:	005b      	lsls	r3, r3, #1
    ab3c:	58d3      	ldr	r3, [r2, r3]
    ab3e:	a918      	add	r1, sp, #96	; 0x60
    ab40:	9803      	ldr	r0, [sp, #12]
    ab42:	4798      	blx	r3
    ab44:	0006      	movs	r6, r0
D:\zhangqiang\DiplomaProject\experiment\UE\User_NB-IoT_Frame(KL36)(A.50)-190816\Debug/../07_NosPrg/main.c:371
                LCD_ShowString(6,300,BLUE,GRAY,"AHL Send ..                 ");
    ab46:	4b38      	ldr	r3, [pc, #224]	; (ac28 <main+0x764>)
    ab48:	9300      	str	r3, [sp, #0]
    ab4a:	4b26      	ldr	r3, [pc, #152]	; (abe4 <main+0x720>)
    ab4c:	221f      	movs	r2, #31
    ab4e:	0021      	movs	r1, r4
    ab50:	2006      	movs	r0, #6
    ab52:	f001 f957 	bl	be04 <LCD_ShowString>
D:\zhangqiang\DiplomaProject\experiment\UE\User_NB-IoT_Frame(KL36)(A.50)-190816\Debug/../07_NosPrg/main.c:372
                if(mflag)  goto main_loop1;    //数据发送失败，LCD显示提示
    ab56:	2e00      	cmp	r6, #0
    ab58:	d019      	beq.n	ab8e <main+0x6ca>
D:\zhangqiang\DiplomaProject\experiment\UE\User_NB-IoT_Frame(KL36)(A.50)-190816\Debug/../07_NosPrg/main.c:342
            switch(mflag)
    ab5a:	2e01      	cmp	r6, #1
    ab5c:	d094      	beq.n	aa88 <main+0x5c4>
    ab5e:	2e02      	cmp	r6, #2
    ab60:	d19b      	bne.n	aa9a <main+0x5d6>
D:\zhangqiang\DiplomaProject\experiment\UE\User_NB-IoT_Frame(KL36)(A.50)-190816\Debug/../07_NosPrg/main.c:348
                    LCD_ShowString(6,300,BLUE,GRAY,"Send Error:Send Data Not OK ");
    ab62:	2196      	movs	r1, #150	; 0x96
    ab64:	4b31      	ldr	r3, [pc, #196]	; (ac2c <main+0x768>)
    ab66:	9300      	str	r3, [sp, #0]
    ab68:	4b1e      	ldr	r3, [pc, #120]	; (abe4 <main+0x720>)
    ab6a:	221f      	movs	r2, #31
    ab6c:	0049      	lsls	r1, r1, #1
    ab6e:	2006      	movs	r0, #6
    ab70:	f001 f948 	bl	be04 <LCD_ShowString>
D:\zhangqiang\DiplomaProject\experiment\UE\User_NB-IoT_Frame(KL36)(A.50)-190816\Debug/../07_NosPrg/main.c:349
                    break;
    ab74:	e791      	b.n	aa9a <main+0x5d6>
D:\zhangqiang\DiplomaProject\experiment\UE\User_NB-IoT_Frame(KL36)(A.50)-190816\Debug/../07_NosPrg/main.c:363
                LCD_ShowString(6,300,BLUE,GRAY,"AHL Reinit .... Fail        ");
    ab76:	2196      	movs	r1, #150	; 0x96
    ab78:	4b2d      	ldr	r3, [pc, #180]	; (ac30 <main+0x76c>)
    ab7a:	9300      	str	r3, [sp, #0]
    ab7c:	4b19      	ldr	r3, [pc, #100]	; (abe4 <main+0x720>)
    ab7e:	221f      	movs	r2, #31
    ab80:	0049      	lsls	r1, r1, #1
    ab82:	2006      	movs	r0, #6
    ab84:	f001 f93e 	bl	be04 <LCD_ShowString>
    ab88:	9b04      	ldr	r3, [sp, #16]
    ab8a:	4698      	mov	r8, r3
    ab8c:	e160      	b.n	ae50 <main+0x98c>
D:\zhangqiang\DiplomaProject\experiment\UE\User_NB-IoT_Frame(KL36)(A.50)-190816\Debug/../07_NosPrg/main.c:373
                LCD_ShowString(6,300,BLUE,GRAY,"AHL Send Successfully       ");
    ab8e:	2196      	movs	r1, #150	; 0x96
    ab90:	4b28      	ldr	r3, [pc, #160]	; (ac34 <main+0x770>)
    ab92:	9300      	str	r3, [sp, #0]
    ab94:	4b13      	ldr	r3, [pc, #76]	; (abe4 <main+0x720>)
    ab96:	221f      	movs	r2, #31
    ab98:	0049      	lsls	r1, r1, #1
    ab9a:	2006      	movs	r0, #6
    ab9c:	f001 f932 	bl	be04 <LCD_ShowString>
    aba0:	9b04      	ldr	r3, [sp, #16]
    aba2:	4698      	mov	r8, r3
    aba4:	e154      	b.n	ae50 <main+0x98c>
D:\zhangqiang\DiplomaProject\experiment\UE\User_NB-IoT_Frame(KL36)(A.50)-190816\Debug/../07_NosPrg/main.c:391 (discriminator 1)
            if(mCmd[0]=='A'&&mCmd[1]=='0')       //读取flash中的所有信息
    aba6:	abff      	add	r3, sp, #1020	; 0x3fc
    aba8:	334c      	adds	r3, #76	; 0x4c
    abaa:	785b      	ldrb	r3, [r3, #1]
    abac:	2b30      	cmp	r3, #48	; 0x30
    abae:	d047      	beq.n	ac40 <main+0x77c>
D:\zhangqiang\DiplomaProject\experiment\UE\User_NB-IoT_Frame(KL36)(A.50)-190816\Debug/../07_NosPrg/main.c:396 (discriminator 1)
            else if(mCmd[0]=='A'&&mCmd[1]=='1')  //读取flash中的产品信息
    abb0:	2b31      	cmp	r3, #49	; 0x31
    abb2:	d100      	bne.n	abb6 <main+0x6f2>
    abb4:	e1cd      	b.n	af52 <main+0xa8e>
D:\zhangqiang\DiplomaProject\experiment\UE\User_NB-IoT_Frame(KL36)(A.50)-190816\Debug/../07_NosPrg/main.c:401 (discriminator 1)
            else if(mCmd[0]=='A'&&mCmd[1]=='2')  //读取flash中的服务器信息
    abb6:	2b32      	cmp	r3, #50	; 0x32
    abb8:	d100      	bne.n	abbc <main+0x6f8>
    abba:	e1d5      	b.n	af68 <main+0xaa4>
D:\zhangqiang\DiplomaProject\experiment\UE\User_NB-IoT_Frame(KL36)(A.50)-190816\Debug/../07_NosPrg/main.c:406 (discriminator 1)
            else if(mCmd[0]=='A'&&mCmd[1]=='3')  //读取用户存入flash的信息
    abbc:	2b33      	cmp	r3, #51	; 0x33
    abbe:	d100      	bne.n	abc2 <main+0x6fe>
    abc0:	e1dd      	b.n	af7e <main+0xaba>
D:\zhangqiang\DiplomaProject\experiment\UE\User_NB-IoT_Frame(KL36)(A.50)-190816\Debug/../07_NosPrg/main.c:494
            gRecvLength = 0;                    //接收数据长度清零，表明已经读取
    abc2:	4b1d      	ldr	r3, [pc, #116]	; (ac38 <main+0x774>)
    abc4:	2200      	movs	r2, #0
    abc6:	801a      	strh	r2, [r3, #0]
    abc8:	2300      	movs	r3, #0
    abca:	9303      	str	r3, [sp, #12]
D:\zhangqiang\DiplomaProject\experiment\UE\User_NB-IoT_Frame(KL36)(A.50)-190816\Debug/../07_NosPrg/main.c:498
                LCD_ShowString(6,300,BLUE,GRAY,"AHL Recv Successfully       ");
    abcc:	2196      	movs	r1, #150	; 0x96
    abce:	4b1b      	ldr	r3, [pc, #108]	; (ac3c <main+0x778>)
    abd0:	9300      	str	r3, [sp, #0]
    abd2:	4b04      	ldr	r3, [pc, #16]	; (abe4 <main+0x720>)
    abd4:	221f      	movs	r2, #31
    abd6:	0049      	lsls	r1, r1, #1
    abd8:	2006      	movs	r0, #6
    abda:	f001 f913 	bl	be04 <LCD_ShowString>
    abde:	e052      	b.n	ac86 <main+0x7c2>
    abe0:	0000db2c 	.word	0x0000db2c
    abe4:	00008430 	.word	0x00008430
    abe8:	20000568 	.word	0x20000568
    abec:	20000136 	.word	0x20000136
    abf0:	0000db6c 	.word	0x0000db6c
    abf4:	20000560 	.word	0x20000560
    abf8:	20000570 	.word	0x20000570
    abfc:	0000db4c 	.word	0x0000db4c
    ac00:	00000201 	.word	0x00000201
    ac04:	0000dba4 	.word	0x0000dba4
    ac08:	2000056c 	.word	0x2000056c
    ac0c:	20000143 	.word	0x20000143
    ac10:	0000dc14 	.word	0x0000dc14
    ac14:	0000dc54 	.word	0x0000dc54
    ac18:	0000dc74 	.word	0x0000dc74
    ac1c:	0000dc94 	.word	0x0000dc94
    ac20:	0000dcd4 	.word	0x0000dcd4
    ac24:	0000dbb4 	.word	0x0000dbb4
    ac28:	0000dbd4 	.word	0x0000dbd4
    ac2c:	0000dc34 	.word	0x0000dc34
    ac30:	0000dcb4 	.word	0x0000dcb4
    ac34:	0000dbf4 	.word	0x0000dbf4
    ac38:	20000698 	.word	0x20000698
    ac3c:	0000dd3c 	.word	0x0000dd3c
D:\zhangqiang\DiplomaProject\experiment\UE\User_NB-IoT_Frame(KL36)(A.50)-190816\Debug/../07_NosPrg/main.c:394
                ArrayCopy(mSendData+2,(uint_8*)(&gFlashData),mFlashLen);
    ac40:	22ad      	movs	r2, #173	; 0xad
    ac42:	49eb      	ldr	r1, [pc, #940]	; (aff0 <main+0xb2c>)
    ac44:	2032      	movs	r0, #50	; 0x32
    ac46:	ab0c      	add	r3, sp, #48	; 0x30
    ac48:	469c      	mov	ip, r3
    ac4a:	4460      	add	r0, ip
    ac4c:	f000 ff38 	bl	bac0 <ArrayCopy>
D:\zhangqiang\DiplomaProject\experiment\UE\User_NB-IoT_Frame(KL36)(A.50)-190816\Debug/../07_NosPrg/main.c:393
                mSendLen = mFlashLen+2;
    ac50:	23af      	movs	r3, #175	; 0xaf
    ac52:	9303      	str	r3, [sp, #12]
D:\zhangqiang\DiplomaProject\experiment\UE\User_NB-IoT_Frame(KL36)(A.50)-190816\Debug/../07_NosPrg/main.c:492
                 mflag = uecom_send(mSendLen,mSendData); //数据发送
    ac54:	4be7      	ldr	r3, [pc, #924]	; (aff4 <main+0xb30>)
    ac56:	681a      	ldr	r2, [r3, #0]
    ac58:	23b8      	movs	r3, #184	; 0xb8
    ac5a:	005b      	lsls	r3, r3, #1
    ac5c:	58d3      	ldr	r3, [r2, r3]
    ac5e:	a918      	add	r1, sp, #96	; 0x60
    ac60:	9803      	ldr	r0, [sp, #12]
    ac62:	4798      	blx	r3
D:\zhangqiang\DiplomaProject\experiment\UE\User_NB-IoT_Frame(KL36)(A.50)-190816\Debug/../07_NosPrg/main.c:494
            gRecvLength = 0;                    //接收数据长度清零，表明已经读取
    ac64:	4be4      	ldr	r3, [pc, #912]	; (aff8 <main+0xb34>)
    ac66:	2200      	movs	r2, #0
    ac68:	801a      	strh	r2, [r3, #0]
D:\zhangqiang\DiplomaProject\experiment\UE\User_NB-IoT_Frame(KL36)(A.50)-190816\Debug/../07_NosPrg/main.c:495
            if(mflag==0)
    ac6a:	2800      	cmp	r0, #0
    ac6c:	d100      	bne.n	ac70 <main+0x7ac>
    ac6e:	e2ca      	b.n	b206 <main+0xd42>
D:\zhangqiang\DiplomaProject\experiment\UE\User_NB-IoT_Frame(KL36)(A.50)-190816\Debug/../07_NosPrg/main.c:497
            else if(mflag == 0xff)
    ac70:	28ff      	cmp	r0, #255	; 0xff
    ac72:	d0ab      	beq.n	abcc <main+0x708>
D:\zhangqiang\DiplomaProject\experiment\UE\User_NB-IoT_Frame(KL36)(A.50)-190816\Debug/../07_NosPrg/main.c:500
                LCD_ShowString(6,300,BLUE,GRAY,"Send Error:Send Data Not OK ");
    ac74:	2196      	movs	r1, #150	; 0x96
    ac76:	4be1      	ldr	r3, [pc, #900]	; (affc <main+0xb38>)
    ac78:	9300      	str	r3, [sp, #0]
    ac7a:	4be1      	ldr	r3, [pc, #900]	; (b000 <main+0xb3c>)
    ac7c:	221f      	movs	r2, #31
    ac7e:	0049      	lsls	r1, r1, #1
    ac80:	2006      	movs	r0, #6
    ac82:	f001 f8bf 	bl	be04 <LCD_ShowString>
D:\zhangqiang\DiplomaProject\experiment\UE\User_NB-IoT_Frame(KL36)(A.50)-190816\Debug/../07_NosPrg/main.c:502
             if(mFlashFlag == 1)
    ac86:	2d01      	cmp	r5, #1
    ac88:	d000      	beq.n	ac8c <main+0x7c8>
    ac8a:	e2c6      	b.n	b21a <main+0xd56>
D:\zhangqiang\DiplomaProject\experiment\UE\User_NB-IoT_Frame(KL36)(A.50)-190816\Debug/../07_NosPrg/main.c:504
                flash_erase(63);
    ac8c:	4cd9      	ldr	r4, [pc, #868]	; (aff4 <main+0xb30>)
    ac8e:	6823      	ldr	r3, [r4, #0]
    ac90:	6b9b      	ldr	r3, [r3, #56]	; 0x38
    ac92:	203f      	movs	r0, #63	; 0x3f
    ac94:	4798      	blx	r3
D:\zhangqiang\DiplomaProject\experiment\UE\User_NB-IoT_Frame(KL36)(A.50)-190816\Debug/../07_NosPrg/main.c:505
                flash_write(63,0,mFlashLen,(uint_8*)(&gFlashData));
    ac96:	6823      	ldr	r3, [r4, #0]
    ac98:	6bdc      	ldr	r4, [r3, #60]	; 0x3c
    ac9a:	4bd5      	ldr	r3, [pc, #852]	; (aff0 <main+0xb2c>)
    ac9c:	22ad      	movs	r2, #173	; 0xad
    ac9e:	2100      	movs	r1, #0
    aca0:	203f      	movs	r0, #63	; 0x3f
    aca2:	47a0      	blx	r4
D:\zhangqiang\DiplomaProject\experiment\UE\User_NB-IoT_Frame(KL36)(A.50)-190816\Debug/../07_NosPrg/main.c:511
                LCD_Showfirst();                //更新LCD上的显示
    aca4:	f7ff fa6e 	bl	a184 <LCD_Showfirst>
D:\zhangqiang\DiplomaProject\experiment\UE\User_NB-IoT_Frame(KL36)(A.50)-190816\Debug/../07_NosPrg/main.c:513
                uecom_modelInfo(mRetdata);      //获取通信模组信息
    aca8:	4bd2      	ldr	r3, [pc, #840]	; (aff4 <main+0xb30>)
    acaa:	681a      	ldr	r2, [r3, #0]
    acac:	23be      	movs	r3, #190	; 0xbe
    acae:	005b      	lsls	r3, r3, #1
    acb0:	58d3      	ldr	r3, [r2, r3]
    acb2:	a8ff      	add	r0, sp, #1020	; 0x3fc
    acb4:	3070      	adds	r0, #112	; 0x70
    acb6:	4798      	blx	r3
D:\zhangqiang\DiplomaProject\experiment\UE\User_NB-IoT_Frame(KL36)(A.50)-190816\Debug/../07_NosPrg/main.c:514
                LCD_ShowString(60,85,BLUE,GRAY,mRetdata+20);
    acb8:	4cd1      	ldr	r4, [pc, #836]	; (b000 <main+0xb3c>)
    acba:	abff      	add	r3, sp, #1020	; 0x3fc
    acbc:	3384      	adds	r3, #132	; 0x84
    acbe:	9300      	str	r3, [sp, #0]
    acc0:	0023      	movs	r3, r4
    acc2:	221f      	movs	r2, #31
    acc4:	2155      	movs	r1, #85	; 0x55
    acc6:	203c      	movs	r0, #60	; 0x3c
    acc8:	f001 f89c 	bl	be04 <LCD_ShowString>
D:\zhangqiang\DiplomaProject\experiment\UE\User_NB-IoT_Frame(KL36)(A.50)-190816\Debug/../07_NosPrg/main.c:515
                LCD_ShowString(60,131,BLUE,GRAY,mLBS);  //基站位置
    accc:	ab10      	add	r3, sp, #64	; 0x40
    acce:	9300      	str	r3, [sp, #0]
    acd0:	0023      	movs	r3, r4
    acd2:	221f      	movs	r2, #31
    acd4:	2183      	movs	r1, #131	; 0x83
    acd6:	203c      	movs	r0, #60	; 0x3c
    acd8:	f001 f894 	bl	be04 <LCD_ShowString>
D:\zhangqiang\DiplomaProject\experiment\UE\User_NB-IoT_Frame(KL36)(A.50)-190816\Debug/../07_NosPrg/main.c:516
                LCD_ShowString(90,251,BLUE,GRAY,IntConvertToStr(mRecvCount,mString));
    acdc:	a9ff      	add	r1, sp, #1020	; 0x3fc
    acde:	3150      	adds	r1, #80	; 0x50
    ace0:	9808      	ldr	r0, [sp, #32]
    ace2:	f000 fe19 	bl	b918 <IntConvertToStr>
    ace6:	9000      	str	r0, [sp, #0]
    ace8:	0023      	movs	r3, r4
    acea:	221f      	movs	r2, #31
    acec:	21fb      	movs	r1, #251	; 0xfb
    acee:	205a      	movs	r0, #90	; 0x5a
    acf0:	f001 f888 	bl	be04 <LCD_ShowString>
    acf4:	2301      	movs	r3, #1
    acf6:	930c      	str	r3, [sp, #48]	; 0x30
    acf8:	9b0b      	ldr	r3, [sp, #44]	; 0x2c
    acfa:	9306      	str	r3, [sp, #24]
D:\zhangqiang\DiplomaProject\experiment\UE\User_NB-IoT_Frame(KL36)(A.50)-190816\Debug/../07_NosPrg/main.c:262
        mTmp=sysTimeGet();              //获得当前系统时间
    acfc:	4653      	mov	r3, sl
    acfe:	681b      	ldr	r3, [r3, #0]
    ad00:	685b      	ldr	r3, [r3, #4]
    ad02:	4798      	blx	r3
    ad04:	0004      	movs	r4, r0
    ad06:	000d      	movs	r5, r1
D:\zhangqiang\DiplomaProject\experiment\UE\User_NB-IoT_Frame(KL36)(A.50)-190816\Debug/../07_NosPrg/main.c:264
        if (mTmp!=gTimeSec)             //1秒到
    ad08:	465b      	mov	r3, fp
    ad0a:	681b      	ldr	r3, [r3, #0]
    ad0c:	4283      	cmp	r3, r0
    ad0e:	d100      	bne.n	ad12 <main+0x84e>
    ad10:	e60a      	b.n	a928 <main+0x464>
D:\zhangqiang\DiplomaProject\experiment\UE\User_NB-IoT_Frame(KL36)(A.50)-190816\Debug/../07_NosPrg/main.c:267
        	human=gpio_get(GPIOC_4);
    ad12:	4eb8      	ldr	r6, [pc, #736]	; (aff4 <main+0xb30>)
    ad14:	6833      	ldr	r3, [r6, #0]
    ad16:	6e5b      	ldr	r3, [r3, #100]	; 0x64
    ad18:	48ba      	ldr	r0, [pc, #744]	; (b004 <main+0xb40>)
    ad1a:	4798      	blx	r3
    ad1c:	9004      	str	r0, [sp, #16]
    ad1e:	900a      	str	r0, [sp, #40]	; 0x28
D:\zhangqiang\DiplomaProject\experiment\UE\User_NB-IoT_Frame(KL36)(A.50)-190816\Debug/../07_NosPrg/main.c:268
        	printf("开关状态%d,%d,%d,%d\n",gpio_get(SWITCH_ELC),gUserData.isAutoOpenFan,human,gUserData.temp);
    ad20:	6833      	ldr	r3, [r6, #0]
    ad22:	6e5b      	ldr	r3, [r3, #100]	; 0x64
    ad24:	48b8      	ldr	r0, [pc, #736]	; (b008 <main+0xb44>)
    ad26:	4798      	blx	r3
    ad28:	9007      	str	r0, [sp, #28]
    ad2a:	4eb8      	ldr	r6, [pc, #736]	; (b00c <main+0xb48>)
    ad2c:	272a      	movs	r7, #42	; 0x2a
    ad2e:	37ff      	adds	r7, #255	; 0xff
    ad30:	5df2      	ldrb	r2, [r6, r7]
    ad32:	4691      	mov	r9, r2
    ad34:	2318      	movs	r3, #24
    ad36:	33ff      	adds	r3, #255	; 0xff
    ad38:	5cf0      	ldrb	r0, [r6, r3]
    ad3a:	3301      	adds	r3, #1
    ad3c:	5cf3      	ldrb	r3, [r6, r3]
    ad3e:	021b      	lsls	r3, r3, #8
    ad40:	4303      	orrs	r3, r0
    ad42:	221a      	movs	r2, #26
    ad44:	32ff      	adds	r2, #255	; 0xff
    ad46:	5cb0      	ldrb	r0, [r6, r2]
    ad48:	0400      	lsls	r0, r0, #16
    ad4a:	4303      	orrs	r3, r0
    ad4c:	3201      	adds	r2, #1
    ad4e:	5cb0      	ldrb	r0, [r6, r2]
    ad50:	0600      	lsls	r0, r0, #24
    ad52:	4318      	orrs	r0, r3
    ad54:	f7fe fe46 	bl	99e4 <__aeabi_f2d>
    ad58:	9000      	str	r0, [sp, #0]
    ad5a:	9101      	str	r1, [sp, #4]
    ad5c:	9b04      	ldr	r3, [sp, #16]
    ad5e:	464a      	mov	r2, r9
    ad60:	9907      	ldr	r1, [sp, #28]
    ad62:	48ab      	ldr	r0, [pc, #684]	; (b010 <main+0xb4c>)
    ad64:	f001 fdde 	bl	c924 <myprintf>
D:\zhangqiang\DiplomaProject\experiment\UE\User_NB-IoT_Frame(KL36)(A.50)-190816\Debug/../07_NosPrg/main.c:270
        	if(gUserData.isAutoOpenFan==1&&human==1&&gUserData.pre_temp<=gUserData.temp){
    ad68:	5df3      	ldrb	r3, [r6, r7]
    ad6a:	2b01      	cmp	r3, #1
    ad6c:	d100      	bne.n	ad70 <main+0x8ac>
    ad6e:	e5e1      	b.n	a934 <main+0x470>
D:\zhangqiang\DiplomaProject\experiment\UE\User_NB-IoT_Frame(KL36)(A.50)-190816\Debug/../07_NosPrg/main.c:280
            gTimeSec=mTmp;
    ad70:	4ba8      	ldr	r3, [pc, #672]	; (b014 <main+0xb50>)
    ad72:	601c      	str	r4, [r3, #0]
    ad74:	605d      	str	r5, [r3, #4]
D:\zhangqiang\DiplomaProject\experiment\UE\User_NB-IoT_Frame(KL36)(A.50)-190816\Debug/../07_NosPrg/main.c:281
            gUserData.currentTime = mTmp;
    ad76:	4ea5      	ldr	r6, [pc, #660]	; (b00c <main+0xb48>)
    ad78:	0033      	movs	r3, r6
    ad7a:	3327      	adds	r3, #39	; 0x27
    ad7c:	701c      	strb	r4, [r3, #0]
    ad7e:	0a22      	lsrs	r2, r4, #8
    ad80:	705a      	strb	r2, [r3, #1]
    ad82:	0c22      	lsrs	r2, r4, #16
    ad84:	709a      	strb	r2, [r3, #2]
    ad86:	0e22      	lsrs	r2, r4, #24
    ad88:	70da      	strb	r2, [r3, #3]
    ad8a:	711d      	strb	r5, [r3, #4]
    ad8c:	0a2a      	lsrs	r2, r5, #8
    ad8e:	715a      	strb	r2, [r3, #5]
    ad90:	022a      	lsls	r2, r5, #8
    ad92:	0e12      	lsrs	r2, r2, #24
    ad94:	719a      	strb	r2, [r3, #6]
    ad96:	0e2a      	lsrs	r2, r5, #24
    ad98:	71da      	strb	r2, [r3, #7]
D:\zhangqiang\DiplomaProject\experiment\UE\User_NB-IoT_Frame(KL36)(A.50)-190816\Debug/../07_NosPrg/main.c:283
            timeChange(gTimeSec,gTimeString);
    ad9a:	4f9f      	ldr	r7, [pc, #636]	; (b018 <main+0xb54>)
    ad9c:	003a      	movs	r2, r7
    ad9e:	0020      	movs	r0, r4
    ada0:	0029      	movs	r1, r5
    ada2:	f000 fda5 	bl	b8f0 <timeChange>
D:\zhangqiang\DiplomaProject\experiment\UE\User_NB-IoT_Frame(KL36)(A.50)-190816\Debug/../07_NosPrg/main.c:284
            printf(gTimeString);
    ada6:	0038      	movs	r0, r7
    ada8:	f001 fdbc 	bl	c924 <myprintf>
D:\zhangqiang\DiplomaProject\experiment\UE\User_NB-IoT_Frame(KL36)(A.50)-190816\Debug/../07_NosPrg/main.c:285
            printf("  \n");
    adac:	489b      	ldr	r0, [pc, #620]	; (b01c <main+0xb58>)
    adae:	f001 fdb9 	bl	c924 <myprintf>
D:\zhangqiang\DiplomaProject\experiment\UE\User_NB-IoT_Frame(KL36)(A.50)-190816\Debug/../07_NosPrg/main.c:286
            LCD_ShowString(49,209,BLUE,GRAY,gTimeString);//LCD上显示时间
    adb2:	9700      	str	r7, [sp, #0]
    adb4:	4b92      	ldr	r3, [pc, #584]	; (b000 <main+0xb3c>)
    adb6:	221f      	movs	r2, #31
    adb8:	21d1      	movs	r1, #209	; 0xd1
    adba:	2031      	movs	r0, #49	; 0x31
    adbc:	f001 f822 	bl	be04 <LCD_ShowString>
D:\zhangqiang\DiplomaProject\experiment\UE\User_NB-IoT_Frame(KL36)(A.50)-190816\Debug/../07_NosPrg/main.c:290
            if(gUserData.currentTime%gFlashData.sendFrequencySec == 0 )
    adc0:	2327      	movs	r3, #39	; 0x27
    adc2:	5cf0      	ldrb	r0, [r6, r3]
    adc4:	3301      	adds	r3, #1
    adc6:	5cf3      	ldrb	r3, [r6, r3]
    adc8:	021b      	lsls	r3, r3, #8
    adca:	4303      	orrs	r3, r0
    adcc:	2229      	movs	r2, #41	; 0x29
    adce:	5cb0      	ldrb	r0, [r6, r2]
    add0:	0400      	lsls	r0, r0, #16
    add2:	4303      	orrs	r3, r0
    add4:	3201      	adds	r2, #1
    add6:	5cb0      	ldrb	r0, [r6, r2]
    add8:	0600      	lsls	r0, r0, #24
    adda:	4318      	orrs	r0, r3
    addc:	232b      	movs	r3, #43	; 0x2b
    adde:	5cf1      	ldrb	r1, [r6, r3]
    ade0:	3301      	adds	r3, #1
    ade2:	5cf3      	ldrb	r3, [r6, r3]
    ade4:	021b      	lsls	r3, r3, #8
    ade6:	430b      	orrs	r3, r1
    ade8:	3203      	adds	r2, #3
    adea:	5cb1      	ldrb	r1, [r6, r2]
    adec:	0409      	lsls	r1, r1, #16
    adee:	430b      	orrs	r3, r1
    adf0:	3201      	adds	r2, #1
    adf2:	5cb1      	ldrb	r1, [r6, r2]
    adf4:	0609      	lsls	r1, r1, #24
    adf6:	4319      	orrs	r1, r3
    adf8:	4d7d      	ldr	r5, [pc, #500]	; (aff0 <main+0xb2c>)
    adfa:	23a3      	movs	r3, #163	; 0xa3
    adfc:	5cec      	ldrb	r4, [r5, r3]
    adfe:	3301      	adds	r3, #1
    ae00:	5ceb      	ldrb	r3, [r5, r3]
    ae02:	021b      	lsls	r3, r3, #8
    ae04:	431c      	orrs	r4, r3
    ae06:	23a5      	movs	r3, #165	; 0xa5
    ae08:	5cea      	ldrb	r2, [r5, r3]
    ae0a:	0412      	lsls	r2, r2, #16
    ae0c:	4314      	orrs	r4, r2
    ae0e:	22a6      	movs	r2, #166	; 0xa6
    ae10:	5caa      	ldrb	r2, [r5, r2]
    ae12:	0612      	lsls	r2, r2, #24
    ae14:	4322      	orrs	r2, r4
    ae16:	2300      	movs	r3, #0
    ae18:	f7fc f96e 	bl	70f8 <__aeabi_uldivmod>
    ae1c:	431a      	orrs	r2, r3
    ae1e:	d100      	bne.n	ae22 <main+0x95e>
    ae20:	e200      	b.n	b224 <main+0xd60>
D:\zhangqiang\DiplomaProject\experiment\UE\User_NB-IoT_Frame(KL36)(A.50)-190816\Debug/../07_NosPrg/main.c:296
        if (mTsi != gUserData.touchNum)   //触摸1次
    ae22:	4b7a      	ldr	r3, [pc, #488]	; (b00c <main+0xb48>)
    ae24:	22e8      	movs	r2, #232	; 0xe8
    ae26:	5c9a      	ldrb	r2, [r3, r2]
    ae28:	21e9      	movs	r1, #233	; 0xe9
    ae2a:	5c58      	ldrb	r0, [r3, r1]
    ae2c:	0200      	lsls	r0, r0, #8
    ae2e:	4310      	orrs	r0, r2
    ae30:	9004      	str	r0, [sp, #16]
    ae32:	4540      	cmp	r0, r8
    ae34:	d008      	beq.n	ae48 <main+0x984>
D:\zhangqiang\DiplomaProject\experiment\UE\User_NB-IoT_Frame(KL36)(A.50)-190816\Debug/../07_NosPrg/main.c:299
            if(gUserData.touchNum%3==0)   //若触摸达到3次，则发送一次数据
    ae36:	2103      	movs	r1, #3
    ae38:	f7fb fff6 	bl	6e28 <__aeabi_uidivmod>
    ae3c:	b289      	uxth	r1, r1
    ae3e:	2900      	cmp	r1, #0
    ae40:	d100      	bne.n	ae44 <main+0x980>
    ae42:	e1fe      	b.n	b242 <main+0xd7e>
    ae44:	9b04      	ldr	r3, [sp, #16]
    ae46:	4698      	mov	r8, r3
D:\zhangqiang\DiplomaProject\experiment\UE\User_NB-IoT_Frame(KL36)(A.50)-190816\Debug/../07_NosPrg/main.c:303
        if(mSendFlag == 1)
    ae48:	9b06      	ldr	r3, [sp, #24]
    ae4a:	2b01      	cmp	r3, #1
    ae4c:	d100      	bne.n	ae50 <main+0x98c>
    ae4e:	e5bf      	b.n	a9d0 <main+0x50c>
D:\zhangqiang\DiplomaProject\experiment\UE\User_NB-IoT_Frame(KL36)(A.50)-190816\Debug/../07_NosPrg/main.c:381
        if(uecom_info(gRecvBuf,&gRecvLength)==0)
    ae50:	4b68      	ldr	r3, [pc, #416]	; (aff4 <main+0xb30>)
    ae52:	681a      	ldr	r2, [r3, #0]
    ae54:	23ce      	movs	r3, #206	; 0xce
    ae56:	005b      	lsls	r3, r3, #1
    ae58:	58d3      	ldr	r3, [r2, r3]
    ae5a:	4967      	ldr	r1, [pc, #412]	; (aff8 <main+0xb34>)
    ae5c:	4870      	ldr	r0, [pc, #448]	; (b020 <main+0xb5c>)
    ae5e:	4798      	blx	r3
    ae60:	1e05      	subs	r5, r0, #0
    ae62:	d000      	beq.n	ae66 <main+0x9a2>
    ae64:	e748      	b.n	acf8 <main+0x834>
D:\zhangqiang\DiplomaProject\experiment\UE\User_NB-IoT_Frame(KL36)(A.50)-190816\Debug/../07_NosPrg/main.c:383
            mRecvCount++;                        //接收次数+1
    ae66:	2201      	movs	r2, #1
    ae68:	2300      	movs	r3, #0
    ae6a:	9808      	ldr	r0, [sp, #32]
    ae6c:	9909      	ldr	r1, [sp, #36]	; 0x24
    ae6e:	1880      	adds	r0, r0, r2
    ae70:	4159      	adcs	r1, r3
    ae72:	9008      	str	r0, [sp, #32]
    ae74:	9109      	str	r1, [sp, #36]	; 0x24
D:\zhangqiang\DiplomaProject\experiment\UE\User_NB-IoT_Frame(KL36)(A.50)-190816\Debug/../07_NosPrg/main.c:385
            LCD_ShowString(6,300,BLUE,GRAY,"AHL Recv one frame          ");
    ae76:	2196      	movs	r1, #150	; 0x96
    ae78:	4b6a      	ldr	r3, [pc, #424]	; (b024 <main+0xb60>)
    ae7a:	9300      	str	r3, [sp, #0]
    ae7c:	4b60      	ldr	r3, [pc, #384]	; (b000 <main+0xb3c>)
    ae7e:	321e      	adds	r2, #30
    ae80:	0049      	lsls	r1, r1, #1
    ae82:	2006      	movs	r0, #6
    ae84:	f000 ffbe 	bl	be04 <LCD_ShowString>
D:\zhangqiang\DiplomaProject\experiment\UE\User_NB-IoT_Frame(KL36)(A.50)-190816\Debug/../07_NosPrg/main.c:389
            ArrayCopy(mCmd,gRecvBuf,2);
    ae88:	4c65      	ldr	r4, [pc, #404]	; (b020 <main+0xb5c>)
    ae8a:	aeff      	add	r6, sp, #1020	; 0x3fc
    ae8c:	364c      	adds	r6, #76	; 0x4c
    ae8e:	2202      	movs	r2, #2
    ae90:	0021      	movs	r1, r4
    ae92:	0030      	movs	r0, r6
    ae94:	f000 fe14 	bl	bac0 <ArrayCopy>
D:\zhangqiang\DiplomaProject\experiment\UE\User_NB-IoT_Frame(KL36)(A.50)-190816\Debug/../07_NosPrg/main.c:390
            ArrayCopy(mSendData,gRecvBuf,2);
    ae98:	2202      	movs	r2, #2
    ae9a:	0021      	movs	r1, r4
    ae9c:	a818      	add	r0, sp, #96	; 0x60
    ae9e:	f000 fe0f 	bl	bac0 <ArrayCopy>
D:\zhangqiang\DiplomaProject\experiment\UE\User_NB-IoT_Frame(KL36)(A.50)-190816\Debug/../07_NosPrg/main.c:391
            if(mCmd[0]=='A'&&mCmd[1]=='0')       //读取flash中的所有信息
    aea2:	7833      	ldrb	r3, [r6, #0]
    aea4:	2b41      	cmp	r3, #65	; 0x41
    aea6:	d100      	bne.n	aeaa <main+0x9e6>
    aea8:	e67d      	b.n	aba6 <main+0x6e2>
D:\zhangqiang\DiplomaProject\experiment\UE\User_NB-IoT_Frame(KL36)(A.50)-190816\Debug/../07_NosPrg/main.c:411
            else if(mCmd[0]=='B'&&mCmd[1]=='0')   //更改flash中的所有信息
    aeaa:	2b42      	cmp	r3, #66	; 0x42
    aeac:	d072      	beq.n	af94 <main+0xad0>
D:\zhangqiang\DiplomaProject\experiment\UE\User_NB-IoT_Frame(KL36)(A.50)-190816\Debug/../07_NosPrg/main.c:439
            else if(mCmd[0]=='U'&&mCmd[1]=='0')   //获取“U0”命令要发送的数据
    aeae:	2b55      	cmp	r3, #85	; 0x55
    aeb0:	d000      	beq.n	aeb4 <main+0x9f0>
    aeb2:	e686      	b.n	abc2 <main+0x6fe>
D:\zhangqiang\DiplomaProject\experiment\UE\User_NB-IoT_Frame(KL36)(A.50)-190816\Debug/../07_NosPrg/main.c:439 (discriminator 1)
    aeb4:	abff      	add	r3, sp, #1020	; 0x3fc
    aeb6:	334c      	adds	r3, #76	; 0x4c
    aeb8:	785b      	ldrb	r3, [r3, #1]
    aeba:	2b30      	cmp	r3, #48	; 0x30
    aebc:	d100      	bne.n	aec0 <main+0x9fc>
    aebe:	e0df      	b.n	b080 <main+0xbbc>
D:\zhangqiang\DiplomaProject\experiment\UE\User_NB-IoT_Frame(KL36)(A.50)-190816\Debug/../07_NosPrg/main.c:471 (discriminator 1)
            else if(mCmd[0]=='U'&&mCmd[1]=='1')  //获取“U1”命令要发送的数据
    aec0:	2b31      	cmp	r3, #49	; 0x31
    aec2:	d000      	beq.n	aec6 <main+0xa02>
    aec4:	e67d      	b.n	abc2 <main+0x6fe>
D:\zhangqiang\DiplomaProject\experiment\UE\User_NB-IoT_Frame(KL36)(A.50)-190816\Debug/../07_NosPrg/main.c:473
            	ArrayCopy(gFlashData.frameCmd,mCmd,2);
    aec6:	2202      	movs	r2, #2
    aec8:	a9ff      	add	r1, sp, #1020	; 0x3fc
    aeca:	314c      	adds	r1, #76	; 0x4c
    aecc:	4856      	ldr	r0, [pc, #344]	; (b028 <main+0xb64>)
    aece:	f000 fdf7 	bl	bac0 <ArrayCopy>
D:\zhangqiang\DiplomaProject\experiment\UE\User_NB-IoT_Frame(KL36)(A.50)-190816\Debug/../07_NosPrg/main.c:474
                if(gRecvLength == 59)
    aed2:	4b49      	ldr	r3, [pc, #292]	; (aff8 <main+0xb34>)
    aed4:	881b      	ldrh	r3, [r3, #0]
D:\zhangqiang\DiplomaProject\experiment\UE\User_NB-IoT_Frame(KL36)(A.50)-190816\Debug/../07_NosPrg/main.c:485
                mLCDFlag=1;
    aed6:	2201      	movs	r2, #1
    aed8:	920c      	str	r2, [sp, #48]	; 0x30
D:\zhangqiang\DiplomaProject\experiment\UE\User_NB-IoT_Frame(KL36)(A.50)-190816\Debug/../07_NosPrg/main.c:474
                if(gRecvLength == 59)
    aeda:	2b3b      	cmp	r3, #59	; 0x3b
    aedc:	d000      	beq.n	aee0 <main+0xa1c>
    aede:	e670      	b.n	abc2 <main+0x6fe>
D:\zhangqiang\DiplomaProject\experiment\UE\User_NB-IoT_Frame(KL36)(A.50)-190816\Debug/../07_NosPrg/main.c:476
                	ArrayCopy(gUserData.cmd,gRecvBuf,2);
    aee0:	4c4f      	ldr	r4, [pc, #316]	; (b020 <main+0xb5c>)
    aee2:	4e4a      	ldr	r6, [pc, #296]	; (b00c <main+0xb48>)
    aee4:	3201      	adds	r2, #1
    aee6:	0021      	movs	r1, r4
    aee8:	0030      	movs	r0, r6
    aeea:	f000 fde9 	bl	bac0 <ArrayCopy>
D:\zhangqiang\DiplomaProject\experiment\UE\User_NB-IoT_Frame(KL36)(A.50)-190816\Debug/../07_NosPrg/main.c:477
                	ArrayCopy(gUserData.IMSI,gRecvBuf+2,15);
    aeee:	1ca1      	adds	r1, r4, #2
    aef0:	1d30      	adds	r0, r6, #4
    aef2:	220f      	movs	r2, #15
    aef4:	f000 fde4 	bl	bac0 <ArrayCopy>
D:\zhangqiang\DiplomaProject\experiment\UE\User_NB-IoT_Frame(KL36)(A.50)-190816\Debug/../07_NosPrg/main.c:478
                	ArrayCopy((uint_8 *)&gUserData.currentTime,gRecvBuf+17,8);
    aef8:	0021      	movs	r1, r4
    aefa:	3111      	adds	r1, #17
    aefc:	0030      	movs	r0, r6
    aefe:	3027      	adds	r0, #39	; 0x27
    af00:	2208      	movs	r2, #8
    af02:	f000 fddd 	bl	bac0 <ArrayCopy>
D:\zhangqiang\DiplomaProject\experiment\UE\User_NB-IoT_Frame(KL36)(A.50)-190816\Debug/../07_NosPrg/main.c:479
                	ArrayCopy((uint_8 *)&gUserData.mcuTemp,gRecvBuf+25,4);
    af06:	0021      	movs	r1, r4
    af08:	3119      	adds	r1, #25
    af0a:	0030      	movs	r0, r6
    af0c:	30b3      	adds	r0, #179	; 0xb3
    af0e:	2204      	movs	r2, #4
    af10:	f000 fdd6 	bl	bac0 <ArrayCopy>
D:\zhangqiang\DiplomaProject\experiment\UE\User_NB-IoT_Frame(KL36)(A.50)-190816\Debug/../07_NosPrg/main.c:480
                	ArrayCopy((uint_8 *)&gUserData.signalPower,gRecvBuf+29,1);
    af14:	0021      	movs	r1, r4
    af16:	311d      	adds	r1, #29
    af18:	0030      	movs	r0, r6
    af1a:	30e5      	adds	r0, #229	; 0xe5
    af1c:	2201      	movs	r2, #1
    af1e:	f000 fdcf 	bl	bac0 <ArrayCopy>
D:\zhangqiang\DiplomaProject\experiment\UE\User_NB-IoT_Frame(KL36)(A.50)-190816\Debug/../07_NosPrg/main.c:481
                	ArrayCopy((uint_8 *)&gUserData.bright,gRecvBuf+30,2);
    af22:	0021      	movs	r1, r4
    af24:	311e      	adds	r1, #30
    af26:	0030      	movs	r0, r6
    af28:	30e6      	adds	r0, #230	; 0xe6
    af2a:	2202      	movs	r2, #2
    af2c:	f000 fdc8 	bl	bac0 <ArrayCopy>
D:\zhangqiang\DiplomaProject\experiment\UE\User_NB-IoT_Frame(KL36)(A.50)-190816\Debug/../07_NosPrg/main.c:482
                	ArrayCopy((uint_8 *)&gUserData.touchNum,gRecvBuf+32,2);
    af30:	0021      	movs	r1, r4
    af32:	3120      	adds	r1, #32
    af34:	0030      	movs	r0, r6
    af36:	30e8      	adds	r0, #232	; 0xe8
    af38:	2202      	movs	r2, #2
    af3a:	f000 fdc1 	bl	bac0 <ArrayCopy>
D:\zhangqiang\DiplomaProject\experiment\UE\User_NB-IoT_Frame(KL36)(A.50)-190816\Debug/../07_NosPrg/main.c:483
                	ArrayCopy(gUserData.lbs_location,gRecvBuf+34,25);
    af3e:	0021      	movs	r1, r4
    af40:	3122      	adds	r1, #34	; 0x22
    af42:	0030      	movs	r0, r6
    af44:	30fe      	adds	r0, #254	; 0xfe
    af46:	2219      	movs	r2, #25
    af48:	f000 fdba 	bl	bac0 <ArrayCopy>
D:\zhangqiang\DiplomaProject\experiment\UE\User_NB-IoT_Frame(KL36)(A.50)-190816\Debug/../07_NosPrg/main.c:485
                mLCDFlag=1;
    af4c:	2301      	movs	r3, #1
    af4e:	930c      	str	r3, [sp, #48]	; 0x30
    af50:	e637      	b.n	abc2 <main+0x6fe>
D:\zhangqiang\DiplomaProject\experiment\UE\User_NB-IoT_Frame(KL36)(A.50)-190816\Debug/../07_NosPrg/main.c:399
                ArrayCopy(mSendData+2,gFlashData.equipName,mSendLen-2);
    af52:	228f      	movs	r2, #143	; 0x8f
    af54:	4926      	ldr	r1, [pc, #152]	; (aff0 <main+0xb2c>)
    af56:	2032      	movs	r0, #50	; 0x32
    af58:	ab0c      	add	r3, sp, #48	; 0x30
    af5a:	469c      	mov	ip, r3
    af5c:	4460      	add	r0, ip
    af5e:	f000 fdaf 	bl	bac0 <ArrayCopy>
D:\zhangqiang\DiplomaProject\experiment\UE\User_NB-IoT_Frame(KL36)(A.50)-190816\Debug/../07_NosPrg/main.c:398
                mSendLen = 145;
    af62:	2391      	movs	r3, #145	; 0x91
    af64:	9303      	str	r3, [sp, #12]
D:\zhangqiang\DiplomaProject\experiment\UE\User_NB-IoT_Frame(KL36)(A.50)-190816\Debug/../07_NosPrg/main.c:399
                ArrayCopy(mSendData+2,gFlashData.equipName,mSendLen-2);
    af66:	e675      	b.n	ac54 <main+0x790>
D:\zhangqiang\DiplomaProject\experiment\UE\User_NB-IoT_Frame(KL36)(A.50)-190816\Debug/../07_NosPrg/main.c:404
                ArrayCopy(mSendData+2,gFlashData.serverIP,mSendLen-2);
    af68:	2214      	movs	r2, #20
    af6a:	4930      	ldr	r1, [pc, #192]	; (b02c <main+0xb68>)
    af6c:	2032      	movs	r0, #50	; 0x32
    af6e:	ab0c      	add	r3, sp, #48	; 0x30
    af70:	469c      	mov	ip, r3
    af72:	4460      	add	r0, ip
    af74:	f000 fda4 	bl	bac0 <ArrayCopy>
D:\zhangqiang\DiplomaProject\experiment\UE\User_NB-IoT_Frame(KL36)(A.50)-190816\Debug/../07_NosPrg/main.c:403
                mSendLen = 22;
    af78:	2316      	movs	r3, #22
    af7a:	9303      	str	r3, [sp, #12]
D:\zhangqiang\DiplomaProject\experiment\UE\User_NB-IoT_Frame(KL36)(A.50)-190816\Debug/../07_NosPrg/main.c:404
                ArrayCopy(mSendData+2,gFlashData.serverIP,mSendLen-2);
    af7c:	e66a      	b.n	ac54 <main+0x790>
D:\zhangqiang\DiplomaProject\experiment\UE\User_NB-IoT_Frame(KL36)(A.50)-190816\Debug/../07_NosPrg/main.c:409
                ArrayCopy(mSendData+2,(uint_8*)(&gFlashData.sendFrequencySec),mSendLen-2);
    af7e:	2208      	movs	r2, #8
    af80:	492b      	ldr	r1, [pc, #172]	; (b030 <main+0xb6c>)
    af82:	2032      	movs	r0, #50	; 0x32
    af84:	ab0c      	add	r3, sp, #48	; 0x30
    af86:	469c      	mov	ip, r3
    af88:	4460      	add	r0, ip
    af8a:	f000 fd99 	bl	bac0 <ArrayCopy>
D:\zhangqiang\DiplomaProject\experiment\UE\User_NB-IoT_Frame(KL36)(A.50)-190816\Debug/../07_NosPrg/main.c:408
                mSendLen = 10;
    af8e:	230a      	movs	r3, #10
    af90:	9303      	str	r3, [sp, #12]
D:\zhangqiang\DiplomaProject\experiment\UE\User_NB-IoT_Frame(KL36)(A.50)-190816\Debug/../07_NosPrg/main.c:409
                ArrayCopy(mSendData+2,(uint_8*)(&gFlashData.sendFrequencySec),mSendLen-2);
    af92:	e65f      	b.n	ac54 <main+0x790>
D:\zhangqiang\DiplomaProject\experiment\UE\User_NB-IoT_Frame(KL36)(A.50)-190816\Debug/../07_NosPrg/main.c:411 (discriminator 1)
            else if(mCmd[0]=='B'&&mCmd[1]=='0')   //更改flash中的所有信息
    af94:	abff      	add	r3, sp, #1020	; 0x3fc
    af96:	334c      	adds	r3, #76	; 0x4c
    af98:	785b      	ldrb	r3, [r3, #1]
    af9a:	2b30      	cmp	r3, #48	; 0x30
    af9c:	d017      	beq.n	afce <main+0xb0a>
D:\zhangqiang\DiplomaProject\experiment\UE\User_NB-IoT_Frame(KL36)(A.50)-190816\Debug/../07_NosPrg/main.c:418 (discriminator 1)
            else if(mCmd[0]=='B'&&mCmd[1]=='1')   //更改flash中的产品信息
    af9e:	2b31      	cmp	r3, #49	; 0x31
    afa0:	d04c      	beq.n	b03c <main+0xb78>
D:\zhangqiang\DiplomaProject\experiment\UE\User_NB-IoT_Frame(KL36)(A.50)-190816\Debug/../07_NosPrg/main.c:425 (discriminator 1)
            else if(mCmd[0]=='B'&&mCmd[1]=='2')   //更改flash中的服务器信息
    afa2:	2b32      	cmp	r3, #50	; 0x32
    afa4:	d05b      	beq.n	b05e <main+0xb9a>
D:\zhangqiang\DiplomaProject\experiment\UE\User_NB-IoT_Frame(KL36)(A.50)-190816\Debug/../07_NosPrg/main.c:432 (discriminator 1)
            else if(mCmd[0]=='B'&&mCmd[1]=='3')   //更改用户存入flash的信息
    afa6:	2b33      	cmp	r3, #51	; 0x33
    afa8:	d000      	beq.n	afac <main+0xae8>
    afaa:	e60a      	b.n	abc2 <main+0x6fe>
D:\zhangqiang\DiplomaProject\experiment\UE\User_NB-IoT_Frame(KL36)(A.50)-190816\Debug/../07_NosPrg/main.c:434
            	ArrayCopy((uint_8 *)(&gFlashData.sendFrequencySec),(uint_8*)&(gRecvBuf[2]),8);
    afac:	2208      	movs	r2, #8
    afae:	4921      	ldr	r1, [pc, #132]	; (b034 <main+0xb70>)
    afb0:	481f      	ldr	r0, [pc, #124]	; (b030 <main+0xb6c>)
    afb2:	f000 fd85 	bl	bac0 <ArrayCopy>
D:\zhangqiang\DiplomaProject\experiment\UE\User_NB-IoT_Frame(KL36)(A.50)-190816\Debug/../07_NosPrg/main.c:437
                ArrayCopy(mSendData+2,"success",mSendLen-2);
    afb6:	2207      	movs	r2, #7
    afb8:	491f      	ldr	r1, [pc, #124]	; (b038 <main+0xb74>)
    afba:	2032      	movs	r0, #50	; 0x32
    afbc:	ab0c      	add	r3, sp, #48	; 0x30
    afbe:	469c      	mov	ip, r3
    afc0:	4460      	add	r0, ip
    afc2:	f000 fd7d 	bl	bac0 <ArrayCopy>
D:\zhangqiang\DiplomaProject\experiment\UE\User_NB-IoT_Frame(KL36)(A.50)-190816\Debug/../07_NosPrg/main.c:436
                mSendLen = 9;
    afc6:	2309      	movs	r3, #9
    afc8:	9303      	str	r3, [sp, #12]
D:\zhangqiang\DiplomaProject\experiment\UE\User_NB-IoT_Frame(KL36)(A.50)-190816\Debug/../07_NosPrg/main.c:435
                mFlashFlag = 1;
    afca:	2501      	movs	r5, #1
D:\zhangqiang\DiplomaProject\experiment\UE\User_NB-IoT_Frame(KL36)(A.50)-190816\Debug/../07_NosPrg/main.c:437
                ArrayCopy(mSendData+2,"success",mSendLen-2);
    afcc:	e642      	b.n	ac54 <main+0x790>
D:\zhangqiang\DiplomaProject\experiment\UE\User_NB-IoT_Frame(KL36)(A.50)-190816\Debug/../07_NosPrg/main.c:413
            	ArrayCopy((uint_8 *)(gFlashData.equipName),(uint_8*)&(gRecvBuf[2]),mFlashLen);
    afce:	22ad      	movs	r2, #173	; 0xad
    afd0:	4918      	ldr	r1, [pc, #96]	; (b034 <main+0xb70>)
    afd2:	4807      	ldr	r0, [pc, #28]	; (aff0 <main+0xb2c>)
    afd4:	f000 fd74 	bl	bac0 <ArrayCopy>
D:\zhangqiang\DiplomaProject\experiment\UE\User_NB-IoT_Frame(KL36)(A.50)-190816\Debug/../07_NosPrg/main.c:416
                ArrayCopy(mSendData+2,"success",mSendLen-2);
    afd8:	2207      	movs	r2, #7
    afda:	4917      	ldr	r1, [pc, #92]	; (b038 <main+0xb74>)
    afdc:	2032      	movs	r0, #50	; 0x32
    afde:	ab0c      	add	r3, sp, #48	; 0x30
    afe0:	469c      	mov	ip, r3
    afe2:	4460      	add	r0, ip
    afe4:	f000 fd6c 	bl	bac0 <ArrayCopy>
D:\zhangqiang\DiplomaProject\experiment\UE\User_NB-IoT_Frame(KL36)(A.50)-190816\Debug/../07_NosPrg/main.c:415
                mSendLen = 9;
    afe8:	2309      	movs	r3, #9
    afea:	9303      	str	r3, [sp, #12]
D:\zhangqiang\DiplomaProject\experiment\UE\User_NB-IoT_Frame(KL36)(A.50)-190816\Debug/../07_NosPrg/main.c:414
                mFlashFlag = 1;
    afec:	2501      	movs	r5, #1
D:\zhangqiang\DiplomaProject\experiment\UE\User_NB-IoT_Frame(KL36)(A.50)-190816\Debug/../07_NosPrg/main.c:416
                ArrayCopy(mSendData+2,"success",mSendLen-2);
    afee:	e631      	b.n	ac54 <main+0x790>
    aff0:	20000098 	.word	0x20000098
    aff4:	20000568 	.word	0x20000568
    aff8:	20000698 	.word	0x20000698
    affc:	0000dc34 	.word	0x0000dc34
    b000:	00008430 	.word	0x00008430
    b004:	0000041d 	.word	0x0000041d
    b008:	00000201 	.word	0x00000201
    b00c:	2000056c 	.word	0x2000056c
    b010:	0000db8c 	.word	0x0000db8c
    b014:	20000560 	.word	0x20000560
    b018:	20000548 	.word	0x20000548
    b01c:	0000dbb0 	.word	0x0000dbb0
    b020:	20000148 	.word	0x20000148
    b024:	0000dcf4 	.word	0x0000dcf4
    b028:	20000143 	.word	0x20000143
    b02c:	20000127 	.word	0x20000127
    b030:	2000013b 	.word	0x2000013b
    b034:	2000014a 	.word	0x2000014a
    b038:	0000dd14 	.word	0x0000dd14
D:\zhangqiang\DiplomaProject\experiment\UE\User_NB-IoT_Frame(KL36)(A.50)-190816\Debug/../07_NosPrg/main.c:420
            	ArrayCopy((uint_8 *)(gFlashData.equipName),(uint_8*)&(gRecvBuf[2]),124);
    b03c:	227c      	movs	r2, #124	; 0x7c
    b03e:	49a6      	ldr	r1, [pc, #664]	; (b2d8 <main+0xe14>)
    b040:	48a6      	ldr	r0, [pc, #664]	; (b2dc <main+0xe18>)
    b042:	f000 fd3d 	bl	bac0 <ArrayCopy>
D:\zhangqiang\DiplomaProject\experiment\UE\User_NB-IoT_Frame(KL36)(A.50)-190816\Debug/../07_NosPrg/main.c:423
                ArrayCopy(mSendData+2,"success",mSendLen-2);
    b046:	2207      	movs	r2, #7
    b048:	49a5      	ldr	r1, [pc, #660]	; (b2e0 <main+0xe1c>)
    b04a:	2032      	movs	r0, #50	; 0x32
    b04c:	ab0c      	add	r3, sp, #48	; 0x30
    b04e:	469c      	mov	ip, r3
    b050:	4460      	add	r0, ip
    b052:	f000 fd35 	bl	bac0 <ArrayCopy>
D:\zhangqiang\DiplomaProject\experiment\UE\User_NB-IoT_Frame(KL36)(A.50)-190816\Debug/../07_NosPrg/main.c:422
                mSendLen = 9;
    b056:	2309      	movs	r3, #9
    b058:	9303      	str	r3, [sp, #12]
D:\zhangqiang\DiplomaProject\experiment\UE\User_NB-IoT_Frame(KL36)(A.50)-190816\Debug/../07_NosPrg/main.c:421
                mFlashFlag = 1;
    b05a:	2501      	movs	r5, #1
D:\zhangqiang\DiplomaProject\experiment\UE\User_NB-IoT_Frame(KL36)(A.50)-190816\Debug/../07_NosPrg/main.c:423
                ArrayCopy(mSendData+2,"success",mSendLen-2);
    b05c:	e5fa      	b.n	ac54 <main+0x790>
D:\zhangqiang\DiplomaProject\experiment\UE\User_NB-IoT_Frame(KL36)(A.50)-190816\Debug/../07_NosPrg/main.c:427
            	ArrayCopy((uint_8 *)(gFlashData.serverIP),(uint_8*)&(gRecvBuf[2]),30);
    b05e:	221e      	movs	r2, #30
    b060:	499d      	ldr	r1, [pc, #628]	; (b2d8 <main+0xe14>)
    b062:	48a0      	ldr	r0, [pc, #640]	; (b2e4 <main+0xe20>)
    b064:	f000 fd2c 	bl	bac0 <ArrayCopy>
D:\zhangqiang\DiplomaProject\experiment\UE\User_NB-IoT_Frame(KL36)(A.50)-190816\Debug/../07_NosPrg/main.c:430
                ArrayCopy(mSendData+2,"success",mSendLen-2);
    b068:	2207      	movs	r2, #7
    b06a:	499d      	ldr	r1, [pc, #628]	; (b2e0 <main+0xe1c>)
    b06c:	2032      	movs	r0, #50	; 0x32
    b06e:	ab0c      	add	r3, sp, #48	; 0x30
    b070:	469c      	mov	ip, r3
    b072:	4460      	add	r0, ip
    b074:	f000 fd24 	bl	bac0 <ArrayCopy>
D:\zhangqiang\DiplomaProject\experiment\UE\User_NB-IoT_Frame(KL36)(A.50)-190816\Debug/../07_NosPrg/main.c:429
                mSendLen = 9;
    b078:	2309      	movs	r3, #9
    b07a:	9303      	str	r3, [sp, #12]
D:\zhangqiang\DiplomaProject\experiment\UE\User_NB-IoT_Frame(KL36)(A.50)-190816\Debug/../07_NosPrg/main.c:428
                mFlashFlag = 1;
    b07c:	2501      	movs	r5, #1
D:\zhangqiang\DiplomaProject\experiment\UE\User_NB-IoT_Frame(KL36)(A.50)-190816\Debug/../07_NosPrg/main.c:430
                ArrayCopy(mSendData+2,"success",mSendLen-2);
    b07e:	e5e9      	b.n	ac54 <main+0x790>
D:\zhangqiang\DiplomaProject\experiment\UE\User_NB-IoT_Frame(KL36)(A.50)-190816\Debug/../07_NosPrg/main.c:441
            	ArrayCopy(gFlashData.frameCmd,mCmd,2);
    b080:	2202      	movs	r2, #2
    b082:	a9ff      	add	r1, sp, #1020	; 0x3fc
    b084:	314c      	adds	r1, #76	; 0x4c
    b086:	4898      	ldr	r0, [pc, #608]	; (b2e8 <main+0xe24>)
    b088:	f000 fd1a 	bl	bac0 <ArrayCopy>
D:\zhangqiang\DiplomaProject\experiment\UE\User_NB-IoT_Frame(KL36)(A.50)-190816\Debug/../07_NosPrg/main.c:442
                if(gRecvLength == mUserLen)       //若为整帧数据
    b08c:	232c      	movs	r3, #44	; 0x2c
    b08e:	33ff      	adds	r3, #255	; 0xff
    b090:	4a96      	ldr	r2, [pc, #600]	; (b2ec <main+0xe28>)
    b092:	8812      	ldrh	r2, [r2, #0]
D:\zhangqiang\DiplomaProject\experiment\UE\User_NB-IoT_Frame(KL36)(A.50)-190816\Debug/../07_NosPrg/main.c:469
                mLCDFlag=1;
    b094:	2101      	movs	r1, #1
    b096:	910c      	str	r1, [sp, #48]	; 0x30
D:\zhangqiang\DiplomaProject\experiment\UE\User_NB-IoT_Frame(KL36)(A.50)-190816\Debug/../07_NosPrg/main.c:442
                if(gRecvLength == mUserLen)       //若为整帧数据
    b098:	429a      	cmp	r2, r3
    b09a:	d000      	beq.n	b09e <main+0xbda>
    b09c:	e591      	b.n	abc2 <main+0x6fe>
D:\zhangqiang\DiplomaProject\experiment\UE\User_NB-IoT_Frame(KL36)(A.50)-190816\Debug/../07_NosPrg/main.c:444
                	ArrayCopy((uint_8*)(&gUserData),gRecvBuf,mUserLen);
    b09e:	222c      	movs	r2, #44	; 0x2c
    b0a0:	4c93      	ldr	r4, [pc, #588]	; (b2f0 <main+0xe2c>)
    b0a2:	32ff      	adds	r2, #255	; 0xff
    b0a4:	4993      	ldr	r1, [pc, #588]	; (b2f4 <main+0xe30>)
    b0a6:	0020      	movs	r0, r4
    b0a8:	f000 fd0a 	bl	bac0 <ArrayCopy>
D:\zhangqiang\DiplomaProject\experiment\UE\User_NB-IoT_Frame(KL36)(A.50)-190816\Debug/../07_NosPrg/main.c:445
                	ArrayCopy(gFlashData.equipName,gUserData.equipName,30);
    b0ac:	0021      	movs	r1, r4
    b0ae:	314f      	adds	r1, #79	; 0x4f
    b0b0:	4e8a      	ldr	r6, [pc, #552]	; (b2dc <main+0xe18>)
    b0b2:	221e      	movs	r2, #30
    b0b4:	0030      	movs	r0, r6
    b0b6:	f000 fd03 	bl	bac0 <ArrayCopy>
D:\zhangqiang\DiplomaProject\experiment\UE\User_NB-IoT_Frame(KL36)(A.50)-190816\Debug/../07_NosPrg/main.c:446
                	ArrayCopy(gFlashData.equipID,gUserData.equipID,20);
    b0ba:	0021      	movs	r1, r4
    b0bc:	316d      	adds	r1, #109	; 0x6d
    b0be:	0030      	movs	r0, r6
    b0c0:	301e      	adds	r0, #30
    b0c2:	2214      	movs	r2, #20
    b0c4:	f000 fcfc 	bl	bac0 <ArrayCopy>
D:\zhangqiang\DiplomaProject\experiment\UE\User_NB-IoT_Frame(KL36)(A.50)-190816\Debug/../07_NosPrg/main.c:447
                	ArrayCopy(gFlashData.equipType,gUserData.equipType,20);
    b0c8:	0021      	movs	r1, r4
    b0ca:	3181      	adds	r1, #129	; 0x81
    b0cc:	0030      	movs	r0, r6
    b0ce:	3032      	adds	r0, #50	; 0x32
    b0d0:	2214      	movs	r2, #20
    b0d2:	f000 fcf5 	bl	bac0 <ArrayCopy>
D:\zhangqiang\DiplomaProject\experiment\UE\User_NB-IoT_Frame(KL36)(A.50)-190816\Debug/../07_NosPrg/main.c:448
                	ArrayCopy(gFlashData.vendor,gUserData.vendor,30);
    b0d6:	0021      	movs	r1, r4
    b0d8:	3195      	adds	r1, #149	; 0x95
    b0da:	0030      	movs	r0, r6
    b0dc:	3046      	adds	r0, #70	; 0x46
    b0de:	221e      	movs	r2, #30
    b0e0:	f000 fcee 	bl	bac0 <ArrayCopy>
D:\zhangqiang\DiplomaProject\experiment\UE\User_NB-IoT_Frame(KL36)(A.50)-190816\Debug/../07_NosPrg/main.c:450
                    bios_version(mString);
    b0e4:	4d84      	ldr	r5, [pc, #528]	; (b2f8 <main+0xe34>)
    b0e6:	682b      	ldr	r3, [r5, #0]
    b0e8:	691b      	ldr	r3, [r3, #16]
    b0ea:	a8ff      	add	r0, sp, #1020	; 0x3fc
    b0ec:	3050      	adds	r0, #80	; 0x50
    b0ee:	4798      	blx	r3
D:\zhangqiang\DiplomaProject\experiment\UE\User_NB-IoT_Frame(KL36)(A.50)-190816\Debug/../07_NosPrg/main.c:451
                    ArrayCopy(gUserData.softVer,mString,4);
    b0f0:	0020      	movs	r0, r4
    b0f2:	304b      	adds	r0, #75	; 0x4b
    b0f4:	2204      	movs	r2, #4
    b0f6:	a9ff      	add	r1, sp, #1020	; 0x3fc
    b0f8:	3150      	adds	r1, #80	; 0x50
    b0fa:	f000 fce1 	bl	bac0 <ArrayCopy>
D:\zhangqiang\DiplomaProject\experiment\UE\User_NB-IoT_Frame(KL36)(A.50)-190816\Debug/../07_NosPrg/main.c:452
                    sysTimeSet(gUserData.currentTime);
    b0fe:	2327      	movs	r3, #39	; 0x27
    b100:	5ce0      	ldrb	r0, [r4, r3]
    b102:	3301      	adds	r3, #1
    b104:	5ce3      	ldrb	r3, [r4, r3]
    b106:	021b      	lsls	r3, r3, #8
    b108:	4303      	orrs	r3, r0
    b10a:	2229      	movs	r2, #41	; 0x29
    b10c:	5ca0      	ldrb	r0, [r4, r2]
    b10e:	0400      	lsls	r0, r0, #16
    b110:	4303      	orrs	r3, r0
    b112:	3201      	adds	r2, #1
    b114:	5ca0      	ldrb	r0, [r4, r2]
    b116:	0600      	lsls	r0, r0, #24
    b118:	4318      	orrs	r0, r3
    b11a:	232b      	movs	r3, #43	; 0x2b
    b11c:	5ce1      	ldrb	r1, [r4, r3]
    b11e:	3301      	adds	r3, #1
    b120:	5ce3      	ldrb	r3, [r4, r3]
    b122:	021b      	lsls	r3, r3, #8
    b124:	430b      	orrs	r3, r1
    b126:	3203      	adds	r2, #3
    b128:	5ca1      	ldrb	r1, [r4, r2]
    b12a:	0409      	lsls	r1, r1, #16
    b12c:	430b      	orrs	r3, r1
    b12e:	3201      	adds	r2, #1
    b130:	5ca1      	ldrb	r1, [r4, r2]
    b132:	0609      	lsls	r1, r1, #24
    b134:	4319      	orrs	r1, r3
    b136:	682b      	ldr	r3, [r5, #0]
    b138:	689b      	ldr	r3, [r3, #8]
    b13a:	4798      	blx	r3
D:\zhangqiang\DiplomaProject\experiment\UE\User_NB-IoT_Frame(KL36)(A.50)-190816\Debug/../07_NosPrg/main.c:453
                    ArrayCopy(gFlashData.userName,gUserData.userName,20);
    b13c:	0021      	movs	r1, r4
    b13e:	3137      	adds	r1, #55	; 0x37
    b140:	0030      	movs	r0, r6
    b142:	3070      	adds	r0, #112	; 0x70
    b144:	2214      	movs	r2, #20
    b146:	f000 fcbb 	bl	bac0 <ArrayCopy>
D:\zhangqiang\DiplomaProject\experiment\UE\User_NB-IoT_Frame(KL36)(A.50)-190816\Debug/../07_NosPrg/main.c:454
                    ArrayCopy(gFlashData.phone,gUserData.phone,11);
    b14a:	0021      	movs	r1, r4
    b14c:	31cb      	adds	r1, #203	; 0xcb
    b14e:	0030      	movs	r0, r6
    b150:	3084      	adds	r0, #132	; 0x84
    b152:	220b      	movs	r2, #11
    b154:	f000 fcb4 	bl	bac0 <ArrayCopy>
D:\zhangqiang\DiplomaProject\experiment\UE\User_NB-IoT_Frame(KL36)(A.50)-190816\Debug/../07_NosPrg/main.c:455
                    ArrayCopy(gFlashData.serverIP,gUserData.serverIP,15);
    b158:	0021      	movs	r1, r4
    b15a:	3113      	adds	r1, #19
    b15c:	0030      	movs	r0, r6
    b15e:	308f      	adds	r0, #143	; 0x8f
    b160:	220f      	movs	r2, #15
    b162:	f000 fcad 	bl	bac0 <ArrayCopy>
D:\zhangqiang\DiplomaProject\experiment\UE\User_NB-IoT_Frame(KL36)(A.50)-190816\Debug/../07_NosPrg/main.c:456
                    ArrayCopy(gFlashData.serverPort,gUserData.serverPort,5);
    b166:	0021      	movs	r1, r4
    b168:	3122      	adds	r1, #34	; 0x22
    b16a:	0030      	movs	r0, r6
    b16c:	309e      	adds	r0, #158	; 0x9e
    b16e:	2205      	movs	r2, #5
    b170:	f000 fca6 	bl	bac0 <ArrayCopy>
D:\zhangqiang\DiplomaProject\experiment\UE\User_NB-IoT_Frame(KL36)(A.50)-190816\Debug/../07_NosPrg/main.c:457
                    gFlashData.sendFrequencySec = gUserData.sendFrequencySec;
    b174:	2333      	movs	r3, #51	; 0x33
    b176:	5ce3      	ldrb	r3, [r4, r3]
    b178:	2234      	movs	r2, #52	; 0x34
    b17a:	5ca2      	ldrb	r2, [r4, r2]
    b17c:	0212      	lsls	r2, r2, #8
    b17e:	431a      	orrs	r2, r3
    b180:	2335      	movs	r3, #53	; 0x35
    b182:	5ce3      	ldrb	r3, [r4, r3]
    b184:	041b      	lsls	r3, r3, #16
    b186:	431a      	orrs	r2, r3
    b188:	2336      	movs	r3, #54	; 0x36
    b18a:	5ce3      	ldrb	r3, [r4, r3]
    b18c:	061b      	lsls	r3, r3, #24
    b18e:	4313      	orrs	r3, r2
    b190:	22a3      	movs	r2, #163	; 0xa3
    b192:	54b3      	strb	r3, [r6, r2]
    b194:	0a19      	lsrs	r1, r3, #8
    b196:	0032      	movs	r2, r6
    b198:	32a3      	adds	r2, #163	; 0xa3
    b19a:	7051      	strb	r1, [r2, #1]
    b19c:	0c19      	lsrs	r1, r3, #16
    b19e:	7091      	strb	r1, [r2, #2]
    b1a0:	0e1b      	lsrs	r3, r3, #24
    b1a2:	70d3      	strb	r3, [r2, #3]
D:\zhangqiang\DiplomaProject\experiment\UE\User_NB-IoT_Frame(KL36)(A.50)-190816\Debug/../07_NosPrg/main.c:458
                    gFlashData.resetCount = gUserData.resetCount;
    b1a4:	232f      	movs	r3, #47	; 0x2f
    b1a6:	5ce3      	ldrb	r3, [r4, r3]
    b1a8:	2230      	movs	r2, #48	; 0x30
    b1aa:	5ca2      	ldrb	r2, [r4, r2]
    b1ac:	0212      	lsls	r2, r2, #8
    b1ae:	431a      	orrs	r2, r3
    b1b0:	2331      	movs	r3, #49	; 0x31
    b1b2:	5ce3      	ldrb	r3, [r4, r3]
    b1b4:	041b      	lsls	r3, r3, #16
    b1b6:	431a      	orrs	r2, r3
    b1b8:	2332      	movs	r3, #50	; 0x32
    b1ba:	5ce3      	ldrb	r3, [r4, r3]
    b1bc:	061b      	lsls	r3, r3, #24
    b1be:	4313      	orrs	r3, r2
    b1c0:	22a7      	movs	r2, #167	; 0xa7
    b1c2:	54b3      	strb	r3, [r6, r2]
    b1c4:	0a1a      	lsrs	r2, r3, #8
    b1c6:	0031      	movs	r1, r6
    b1c8:	31a7      	adds	r1, #167	; 0xa7
    b1ca:	704a      	strb	r2, [r1, #1]
    b1cc:	021a      	lsls	r2, r3, #8
    b1ce:	0e12      	lsrs	r2, r2, #24
    b1d0:	708a      	strb	r2, [r1, #2]
    b1d2:	0e1b      	lsrs	r3, r3, #24
    b1d4:	70cb      	strb	r3, [r1, #3]
D:\zhangqiang\DiplomaProject\experiment\UE\User_NB-IoT_Frame(KL36)(A.50)-190816\Debug/../07_NosPrg/main.c:459
                    ArrayCopy(gFlashData.frameCmd,gUserData.cmd,2);
    b1d6:	0030      	movs	r0, r6
    b1d8:	30ab      	adds	r0, #171	; 0xab
    b1da:	2202      	movs	r2, #2
    b1dc:	0021      	movs	r1, r4
    b1de:	f000 fc6f 	bl	bac0 <ArrayCopy>
D:\zhangqiang\DiplomaProject\experiment\UE\User_NB-IoT_Frame(KL36)(A.50)-190816\Debug/../07_NosPrg/main.c:462
                    gpio_set(LIGHT_BLUE,gUserData.led);
    b1e2:	2391      	movs	r3, #145	; 0x91
    b1e4:	005b      	lsls	r3, r3, #1
    b1e6:	5ce1      	ldrb	r1, [r4, r3]
    b1e8:	682b      	ldr	r3, [r5, #0]
    b1ea:	6e1b      	ldr	r3, [r3, #96]	; 0x60
    b1ec:	200d      	movs	r0, #13
    b1ee:	4798      	blx	r3
D:\zhangqiang\DiplomaProject\experiment\UE\User_NB-IoT_Frame(KL36)(A.50)-190816\Debug/../07_NosPrg/main.c:463
                    gpio_set(SWITCH_ELC,gUserData.engine);
    b1f0:	2322      	movs	r3, #34	; 0x22
    b1f2:	33ff      	adds	r3, #255	; 0xff
    b1f4:	5ce1      	ldrb	r1, [r4, r3]
    b1f6:	682b      	ldr	r3, [r5, #0]
    b1f8:	6e1b      	ldr	r3, [r3, #96]	; 0x60
    b1fa:	4840      	ldr	r0, [pc, #256]	; (b2fc <main+0xe38>)
    b1fc:	4798      	blx	r3
D:\zhangqiang\DiplomaProject\experiment\UE\User_NB-IoT_Frame(KL36)(A.50)-190816\Debug/../07_NosPrg/main.c:469
                mLCDFlag=1;
    b1fe:	2301      	movs	r3, #1
    b200:	930c      	str	r3, [sp, #48]	; 0x30
D:\zhangqiang\DiplomaProject\experiment\UE\User_NB-IoT_Frame(KL36)(A.50)-190816\Debug/../07_NosPrg/main.c:461
                    mFlashFlag  =1;
    b202:	2501      	movs	r5, #1
    b204:	e4dd      	b.n	abc2 <main+0x6fe>
D:\zhangqiang\DiplomaProject\experiment\UE\User_NB-IoT_Frame(KL36)(A.50)-190816\Debug/../07_NosPrg/main.c:496
                LCD_ShowString(6,300,BLUE,GRAY,"AHL Reply Successfully      ");
    b206:	2196      	movs	r1, #150	; 0x96
    b208:	4b3d      	ldr	r3, [pc, #244]	; (b300 <main+0xe3c>)
    b20a:	9300      	str	r3, [sp, #0]
    b20c:	4b3d      	ldr	r3, [pc, #244]	; (b304 <main+0xe40>)
    b20e:	221f      	movs	r2, #31
    b210:	0049      	lsls	r1, r1, #1
    b212:	2006      	movs	r0, #6
    b214:	f000 fdf6 	bl	be04 <LCD_ShowString>
    b218:	e535      	b.n	ac86 <main+0x7c2>
D:\zhangqiang\DiplomaProject\experiment\UE\User_NB-IoT_Frame(KL36)(A.50)-190816\Debug/../07_NosPrg/main.c:509
             if(mLCDFlag==1)
    b21a:	9b0c      	ldr	r3, [sp, #48]	; 0x30
    b21c:	2b01      	cmp	r3, #1
    b21e:	d000      	beq.n	b222 <main+0xd5e>
    b220:	e56a      	b.n	acf8 <main+0x834>
    b222:	e53f      	b.n	aca4 <main+0x7e0>
D:\zhangqiang\DiplomaProject\experiment\UE\User_NB-IoT_Frame(KL36)(A.50)-190816\Debug/../07_NosPrg/main.c:296
        if (mTsi != gUserData.touchNum)   //触摸1次
    b224:	4b32      	ldr	r3, [pc, #200]	; (b2f0 <main+0xe2c>)
    b226:	22e8      	movs	r2, #232	; 0xe8
    b228:	5c9a      	ldrb	r2, [r3, r2]
    b22a:	21e9      	movs	r1, #233	; 0xe9
    b22c:	5c58      	ldrb	r0, [r3, r1]
    b22e:	0200      	lsls	r0, r0, #8
    b230:	4310      	orrs	r0, r2
    b232:	9004      	str	r0, [sp, #16]
D:\zhangqiang\DiplomaProject\experiment\UE\User_NB-IoT_Frame(KL36)(A.50)-190816\Debug/../07_NosPrg/main.c:292
                mSendFlag = 1;                         //发送标志置1；
    b234:	2301      	movs	r3, #1
    b236:	9306      	str	r3, [sp, #24]
D:\zhangqiang\DiplomaProject\experiment\UE\User_NB-IoT_Frame(KL36)(A.50)-190816\Debug/../07_NosPrg/main.c:296
        if (mTsi != gUserData.touchNum)   //触摸1次
    b238:	4643      	mov	r3, r8
    b23a:	4283      	cmp	r3, r0
    b23c:	d000      	beq.n	b240 <main+0xd7c>
    b23e:	e5fa      	b.n	ae36 <main+0x972>
    b240:	9304      	str	r3, [sp, #16]
D:\zhangqiang\DiplomaProject\experiment\UE\User_NB-IoT_Frame(KL36)(A.50)-190816\Debug/../07_NosPrg/main.c:306
			userData_get(&gUserData);      //给用户帧结构体gUserData赋值
    b242:	482b      	ldr	r0, [pc, #172]	; (b2f0 <main+0xe2c>)
    b244:	f7fe fe0a 	bl	9e5c <userData_get>
D:\zhangqiang\DiplomaProject\experiment\UE\User_NB-IoT_Frame(KL36)(A.50)-190816\Debug/../07_NosPrg/main.c:308
			if(gFlashData.frameCmd[0]=='U'&&gFlashData.frameCmd[1]=='0')
    b248:	4a24      	ldr	r2, [pc, #144]	; (b2dc <main+0xe18>)
    b24a:	23ab      	movs	r3, #171	; 0xab
    b24c:	5cd3      	ldrb	r3, [r2, r3]
    b24e:	2b55      	cmp	r3, #85	; 0x55
    b250:	d101      	bne.n	b256 <main+0xd92>
    b252:	f7ff fbc1 	bl	a9d8 <main+0x514>
D:\zhangqiang\DiplomaProject\experiment\UE\User_NB-IoT_Frame(KL36)(A.50)-190816\Debug/../07_NosPrg/main.c:328
			LCD_ShowString(170,150,BLUE,GRAY,"     ");
    b256:	4c2b      	ldr	r4, [pc, #172]	; (b304 <main+0xe40>)
    b258:	4b2b      	ldr	r3, [pc, #172]	; (b308 <main+0xe44>)
    b25a:	9300      	str	r3, [sp, #0]
    b25c:	0023      	movs	r3, r4
    b25e:	221f      	movs	r2, #31
    b260:	2196      	movs	r1, #150	; 0x96
    b262:	20aa      	movs	r0, #170	; 0xaa
    b264:	f000 fdce 	bl	be04 <LCD_ShowString>
D:\zhangqiang\DiplomaProject\experiment\UE\User_NB-IoT_Frame(KL36)(A.50)-190816\Debug/../07_NosPrg/main.c:330
					(uint_8 *)IntConvertToStr(gUserData.signalPower,mString));
    b268:	4a21      	ldr	r2, [pc, #132]	; (b2f0 <main+0xe2c>)
    b26a:	23e5      	movs	r3, #229	; 0xe5
    b26c:	5cd0      	ldrb	r0, [r2, r3]
    b26e:	a9ff      	add	r1, sp, #1020	; 0x3fc
    b270:	3150      	adds	r1, #80	; 0x50
    b272:	f000 fb51 	bl	b918 <IntConvertToStr>
D:\zhangqiang\DiplomaProject\experiment\UE\User_NB-IoT_Frame(KL36)(A.50)-190816\Debug/../07_NosPrg/main.c:329
			LCD_ShowString(170,150,BLUE,GRAY,
    b276:	9000      	str	r0, [sp, #0]
    b278:	0023      	movs	r3, r4
    b27a:	221f      	movs	r2, #31
    b27c:	2196      	movs	r1, #150	; 0x96
    b27e:	20aa      	movs	r0, #170	; 0xaa
    b280:	f000 fdc0 	bl	be04 <LCD_ShowString>
D:\zhangqiang\DiplomaProject\experiment\UE\User_NB-IoT_Frame(KL36)(A.50)-190816\Debug/../07_NosPrg/main.c:332
			LCD_ShowString(6,300,BLUE,GRAY,"AHL Send .                  ");
    b284:	2596      	movs	r5, #150	; 0x96
    b286:	006d      	lsls	r5, r5, #1
    b288:	4b20      	ldr	r3, [pc, #128]	; (b30c <main+0xe48>)
    b28a:	9300      	str	r3, [sp, #0]
    b28c:	0023      	movs	r3, r4
    b28e:	221f      	movs	r2, #31
    b290:	0029      	movs	r1, r5
    b292:	2006      	movs	r0, #6
    b294:	f000 fdb6 	bl	be04 <LCD_ShowString>
D:\zhangqiang\DiplomaProject\experiment\UE\User_NB-IoT_Frame(KL36)(A.50)-190816\Debug/../07_NosPrg/main.c:335
            mflag = uecom_send(mSendLen,mSendData);
    b298:	4b17      	ldr	r3, [pc, #92]	; (b2f8 <main+0xe34>)
    b29a:	681a      	ldr	r2, [r3, #0]
    b29c:	23b8      	movs	r3, #184	; 0xb8
    b29e:	005b      	lsls	r3, r3, #1
    b2a0:	58d3      	ldr	r3, [r2, r3]
    b2a2:	a918      	add	r1, sp, #96	; 0x60
    b2a4:	9803      	ldr	r0, [sp, #12]
    b2a6:	4798      	blx	r3
    b2a8:	0006      	movs	r6, r0
D:\zhangqiang\DiplomaProject\experiment\UE\User_NB-IoT_Frame(KL36)(A.50)-190816\Debug/../07_NosPrg/main.c:336
            LCD_ShowString(6,300,BLUE,GRAY,"AHL Send ..                 ");
    b2aa:	4b19      	ldr	r3, [pc, #100]	; (b310 <main+0xe4c>)
    b2ac:	9300      	str	r3, [sp, #0]
    b2ae:	0023      	movs	r3, r4
    b2b0:	221f      	movs	r2, #31
    b2b2:	0029      	movs	r1, r5
    b2b4:	2006      	movs	r0, #6
    b2b6:	f000 fda5 	bl	be04 <LCD_ShowString>
D:\zhangqiang\DiplomaProject\experiment\UE\User_NB-IoT_Frame(KL36)(A.50)-190816\Debug/../07_NosPrg/main.c:337
            if(mflag)  goto main_loop1;    //数据发送失败，LCD显示提示
    b2ba:	2e00      	cmp	r6, #0
    b2bc:	d000      	beq.n	b2c0 <main+0xdfc>
    b2be:	e44c      	b.n	ab5a <main+0x696>
D:\zhangqiang\DiplomaProject\experiment\UE\User_NB-IoT_Frame(KL36)(A.50)-190816\Debug/../07_NosPrg/main.c:338
            LCD_ShowString(6,300,BLUE,GRAY,"AHL Send Successfully       ");
    b2c0:	2196      	movs	r1, #150	; 0x96
    b2c2:	4b14      	ldr	r3, [pc, #80]	; (b314 <main+0xe50>)
    b2c4:	9300      	str	r3, [sp, #0]
    b2c6:	0023      	movs	r3, r4
    b2c8:	221f      	movs	r2, #31
    b2ca:	0049      	lsls	r1, r1, #1
    b2cc:	2006      	movs	r0, #6
    b2ce:	f000 fd99 	bl	be04 <LCD_ShowString>
D:\zhangqiang\DiplomaProject\experiment\UE\User_NB-IoT_Frame(KL36)(A.50)-190816\Debug/../07_NosPrg/main.c:339
            goto main_loop;
    b2d2:	9b04      	ldr	r3, [sp, #16]
    b2d4:	4698      	mov	r8, r3
    b2d6:	e5bb      	b.n	ae50 <main+0x98c>
    b2d8:	2000014a 	.word	0x2000014a
    b2dc:	20000098 	.word	0x20000098
    b2e0:	0000dd14 	.word	0x0000dd14
    b2e4:	20000127 	.word	0x20000127
    b2e8:	20000143 	.word	0x20000143
    b2ec:	20000698 	.word	0x20000698
    b2f0:	2000056c 	.word	0x2000056c
    b2f4:	20000148 	.word	0x20000148
    b2f8:	20000568 	.word	0x20000568
    b2fc:	00000201 	.word	0x00000201
    b300:	0000dd1c 	.word	0x0000dd1c
    b304:	00008430 	.word	0x00008430
    b308:	0000dcac 	.word	0x0000dcac
    b30c:	0000dbb4 	.word	0x0000dbb4
    b310:	0000dbd4 	.word	0x0000dbd4
    b314:	0000dbf4 	.word	0x0000dbf4

0000b318 <enable_irq>:
enable_irq():
D:\zhangqiang\DiplomaProject\experiment\UE\User_NB-IoT_Frame(KL36)(A.50)-190816\Debug/../06_SoftComponent/common.c:74
//功能概要：使能irq中断 
//============================================================================
void enable_irq (IRQn_Type irq)
{
	//确定irq号为有效的irq号
	if (irq > IRQ_MAX)
    b318:	2820      	cmp	r0, #32
    b31a:	dc05      	bgt.n	b328 <enable_irq+0x10>
NVIC_EnableIRQ():
D:\zhangqiang\DiplomaProject\experiment\UE\User_NB-IoT_Frame(KL36)(A.50)-190816\02_Core/core_cm0plus.h:685

    \param [in]      IRQn  External interrupt number. Value cannot be negative.
 */
__STATIC_INLINE void NVIC_EnableIRQ(IRQn_Type IRQn)
{
  NVIC->ISER[0] = (uint32_t)(1UL << (((uint32_t)(int32_t)IRQn) & 0x1FUL));
    b31c:	231f      	movs	r3, #31
    b31e:	4018      	ands	r0, r3
    b320:	3b1e      	subs	r3, #30
    b322:	4083      	lsls	r3, r0
    b324:	4a01      	ldr	r2, [pc, #4]	; (b32c <enable_irq+0x14>)
    b326:	6013      	str	r3, [r2, #0]
enable_irq():
D:\zhangqiang\DiplomaProject\experiment\UE\User_NB-IoT_Frame(KL36)(A.50)-190816\Debug/../06_SoftComponent/common.c:77
		return;
	EnableIRQ(irq);
}
    b328:	4770      	bx	lr
    b32a:	46c0      	nop			; (mov r8, r8)
    b32c:	e000e100 	.word	0xe000e100

0000b330 <Delay_ms>:
Delay_ms():
D:\zhangqiang\DiplomaProject\experiment\UE\User_NB-IoT_Frame(KL36)(A.50)-190816\Debug/../06_SoftComponent/common.c:140
//函数返回：无
//参数说明：无
//功能概要：延时 - 毫秒级
//======================================================================
void Delay_ms(uint16_t u16ms)
{
    b330:	0003      	movs	r3, r0
D:\zhangqiang\DiplomaProject\experiment\UE\User_NB-IoT_Frame(KL36)(A.50)-190816\Debug/../06_SoftComponent/common.c:142
	uint_32 u32ctr;
	for(u32ctr = 0; u32ctr < (SYSTEM_CLK_MS*u16ms); u32ctr++)
    b332:	0080      	lsls	r0, r0, #2
    b334:	18c0      	adds	r0, r0, r3
    b336:	0103      	lsls	r3, r0, #4
    b338:	1a18      	subs	r0, r3, r0
    b33a:	0180      	lsls	r0, r0, #6
    b33c:	d004      	beq.n	b348 <Delay_ms+0x18>
    b33e:	2300      	movs	r3, #0
D:\zhangqiang\DiplomaProject\experiment\UE\User_NB-IoT_Frame(KL36)(A.50)-190816\Debug/../06_SoftComponent/common.c:144 (discriminator 3)
	{
		NOP;
    b340:	46c0      	nop			; (mov r8, r8)
D:\zhangqiang\DiplomaProject\experiment\UE\User_NB-IoT_Frame(KL36)(A.50)-190816\Debug/../06_SoftComponent/common.c:142 (discriminator 3)
	for(u32ctr = 0; u32ctr < (SYSTEM_CLK_MS*u16ms); u32ctr++)
    b342:	3301      	adds	r3, #1
    b344:	4283      	cmp	r3, r0
    b346:	d1fb      	bne.n	b340 <Delay_ms+0x10>
D:\zhangqiang\DiplomaProject\experiment\UE\User_NB-IoT_Frame(KL36)(A.50)-190816\Debug/../06_SoftComponent/common.c:146
	}
}
    b348:	4770      	bx	lr
	...

0000b34c <transformToDate>:
transformToDate():
D:\zhangqiang\毕设\experiment\UE\User_NB-IoT_Frame(KL36)(A.50)-190816\Debug/../06_SoftComponent/timeStamp.c:45
    b34c:	b5f0      	push	{r4, r5, r6, r7, lr}
    b34e:	46de      	mov	lr, fp
    b350:	4657      	mov	r7, sl
    b352:	464e      	mov	r6, r9
    b354:	4645      	mov	r5, r8
    b356:	b5e0      	push	{r5, r6, r7, lr}
    b358:	b0b3      	sub	sp, #204	; 0xcc
    b35a:	0005      	movs	r5, r0
    b35c:	000c      	movs	r4, r1
    b35e:	4691      	mov	r9, r2
D:\zhangqiang\毕设\experiment\UE\User_NB-IoT_Frame(KL36)(A.50)-190816\Debug/../06_SoftComponent/timeStamp.c:48
    b360:	2268      	movs	r2, #104	; 0x68
    b362:	49cf      	ldr	r1, [pc, #828]	; (b6a0 <transformToDate+0x354>)
    b364:	a818      	add	r0, sp, #96	; 0x60
    b366:	f002 f9b7 	bl	d6d8 <memcpy>
    b36a:	950c      	str	r5, [sp, #48]	; 0x30
    b36c:	940d      	str	r4, [sp, #52]	; 0x34
    b36e:	4bcd      	ldr	r3, [pc, #820]	; (b6a4 <transformToDate+0x358>)
    b370:	990c      	ldr	r1, [sp, #48]	; 0x30
    b372:	9a0d      	ldr	r2, [sp, #52]	; 0x34
    b374:	429a      	cmp	r2, r3
    b376:	d803      	bhi.n	b380 <transformToDate+0x34>
    b378:	d106      	bne.n	b388 <transformToDate+0x3c>
    b37a:	4bcb      	ldr	r3, [pc, #812]	; (b6a8 <transformToDate+0x35c>)
    b37c:	429d      	cmp	r5, r3
    b37e:	d903      	bls.n	b388 <transformToDate+0x3c>
    b380:	4bc9      	ldr	r3, [pc, #804]	; (b6a8 <transformToDate+0x35c>)
    b382:	4cc8      	ldr	r4, [pc, #800]	; (b6a4 <transformToDate+0x358>)
    b384:	930c      	str	r3, [sp, #48]	; 0x30
    b386:	940d      	str	r4, [sp, #52]	; 0x34
D:\zhangqiang\毕设\experiment\UE\User_NB-IoT_Frame(KL36)(A.50)-190816\Debug/../06_SoftComponent/timeStamp.c:58
    b388:	4bc8      	ldr	r3, [pc, #800]	; (b6ac <transformToDate+0x360>)
    b38a:	2400      	movs	r4, #0
    b38c:	9308      	str	r3, [sp, #32]
    b38e:	9409      	str	r4, [sp, #36]	; 0x24
D:\zhangqiang\毕设\experiment\UE\User_NB-IoT_Frame(KL36)(A.50)-190816\Debug/../06_SoftComponent/timeStamp.c:57
    b390:	2301      	movs	r3, #1
    b392:	2400      	movs	r4, #0
    b394:	930e      	str	r3, [sp, #56]	; 0x38
    b396:	940f      	str	r4, [sp, #60]	; 0x3c
D:\zhangqiang\毕设\experiment\UE\User_NB-IoT_Frame(KL36)(A.50)-190816\Debug/../06_SoftComponent/timeStamp.c:62
    b398:	9a08      	ldr	r2, [sp, #32]
    b39a:	9b09      	ldr	r3, [sp, #36]	; 0x24
    b39c:	980e      	ldr	r0, [sp, #56]	; 0x38
    b39e:	990f      	ldr	r1, [sp, #60]	; 0x3c
    b3a0:	1812      	adds	r2, r2, r0
    b3a2:	414b      	adcs	r3, r1
    b3a4:	07d9      	lsls	r1, r3, #31
    b3a6:	0856      	lsrs	r6, r2, #1
    b3a8:	430e      	orrs	r6, r1
    b3aa:	085f      	lsrs	r7, r3, #1
D:\zhangqiang\毕设\experiment\UE\User_NB-IoT_Frame(KL36)(A.50)-190816\Debug/../06_SoftComponent/timeStamp.c:63
    b3ac:	2001      	movs	r0, #1
    b3ae:	4240      	negs	r0, r0
    b3b0:	17c1      	asrs	r1, r0, #31
    b3b2:	1980      	adds	r0, r0, r6
    b3b4:	4179      	adcs	r1, r7
    b3b6:	900a      	str	r0, [sp, #40]	; 0x28
    b3b8:	910b      	str	r1, [sp, #44]	; 0x2c
    b3ba:	0f73      	lsrs	r3, r6, #29
    b3bc:	00fa      	lsls	r2, r7, #3
    b3be:	431a      	orrs	r2, r3
    b3c0:	9211      	str	r2, [sp, #68]	; 0x44
    b3c2:	00f3      	lsls	r3, r6, #3
    b3c4:	9310      	str	r3, [sp, #64]	; 0x40
    b3c6:	9a10      	ldr	r2, [sp, #64]	; 0x40
    b3c8:	9b11      	ldr	r3, [sp, #68]	; 0x44
    b3ca:	1992      	adds	r2, r2, r6
    b3cc:	417b      	adcs	r3, r7
    b3ce:	0f51      	lsrs	r1, r2, #29
    b3d0:	00dc      	lsls	r4, r3, #3
    b3d2:	430c      	orrs	r4, r1
    b3d4:	9413      	str	r4, [sp, #76]	; 0x4c
    b3d6:	00d3      	lsls	r3, r2, #3
    b3d8:	9312      	str	r3, [sp, #72]	; 0x48
    b3da:	9c12      	ldr	r4, [sp, #72]	; 0x48
    b3dc:	9d13      	ldr	r5, [sp, #76]	; 0x4c
    b3de:	19a4      	adds	r4, r4, r6
    b3e0:	417d      	adcs	r5, r7
    b3e2:	0fa3      	lsrs	r3, r4, #30
    b3e4:	00aa      	lsls	r2, r5, #2
    b3e6:	431a      	orrs	r2, r3
    b3e8:	9215      	str	r2, [sp, #84]	; 0x54
    b3ea:	00a3      	lsls	r3, r4, #2
    b3ec:	9314      	str	r3, [sp, #80]	; 0x50
    b3ee:	9a14      	ldr	r2, [sp, #80]	; 0x50
    b3f0:	9b15      	ldr	r3, [sp, #84]	; 0x54
    b3f2:	18a4      	adds	r4, r4, r2
    b3f4:	415d      	adcs	r5, r3
    b3f6:	4aae      	ldr	r2, [pc, #696]	; (b6b0 <transformToDate+0x364>)
    b3f8:	2301      	movs	r3, #1
    b3fa:	425b      	negs	r3, r3
    b3fc:	18a4      	adds	r4, r4, r2
    b3fe:	415d      	adcs	r5, r3
    b400:	980a      	ldr	r0, [sp, #40]	; 0x28
    b402:	990b      	ldr	r1, [sp, #44]	; 0x2c
    b404:	078b      	lsls	r3, r1, #30
    b406:	0882      	lsrs	r2, r0, #2
    b408:	431a      	orrs	r2, r3
    b40a:	9216      	str	r2, [sp, #88]	; 0x58
    b40c:	088b      	lsrs	r3, r1, #2
    b40e:	9317      	str	r3, [sp, #92]	; 0x5c
    b410:	9a16      	ldr	r2, [sp, #88]	; 0x58
    b412:	9b17      	ldr	r3, [sp, #92]	; 0x5c
    b414:	18a4      	adds	r4, r4, r2
    b416:	415d      	adcs	r5, r3
    b418:	22c8      	movs	r2, #200	; 0xc8
    b41a:	0052      	lsls	r2, r2, #1
    b41c:	2300      	movs	r3, #0
    b41e:	f7fb fe6b 	bl	70f8 <__aeabi_uldivmod>
    b422:	1824      	adds	r4, r4, r0
    b424:	414d      	adcs	r5, r1
    b426:	2264      	movs	r2, #100	; 0x64
    b428:	2300      	movs	r3, #0
    b42a:	980a      	ldr	r0, [sp, #40]	; 0x28
    b42c:	990b      	ldr	r1, [sp, #44]	; 0x2c
    b42e:	f7fb fe63 	bl	70f8 <__aeabi_uldivmod>
    b432:	1a24      	subs	r4, r4, r0
    b434:	418d      	sbcs	r5, r1
    b436:	0020      	movs	r0, r4
    b438:	0029      	movs	r1, r5
    b43a:	4a9e      	ldr	r2, [pc, #632]	; (b6b4 <transformToDate+0x368>)
    b43c:	2300      	movs	r3, #0
    b43e:	f7fb fe7b 	bl	7138 <__aeabi_lmul>
D:\zhangqiang\毕设\experiment\UE\User_NB-IoT_Frame(KL36)(A.50)-190816\Debug/../06_SoftComponent/timeStamp.c:65
    b442:	9b0c      	ldr	r3, [sp, #48]	; 0x30
    b444:	4283      	cmp	r3, r0
    b446:	d100      	bne.n	b44a <transformToDate+0xfe>
    b448:	e112      	b.n	b670 <transformToDate+0x324>
D:\zhangqiang\毕设\experiment\UE\User_NB-IoT_Frame(KL36)(A.50)-190816\Debug/../06_SoftComponent/timeStamp.c:70
    b44a:	9b0c      	ldr	r3, [sp, #48]	; 0x30
    b44c:	9c0d      	ldr	r4, [sp, #52]	; 0x34
    b44e:	428c      	cmp	r4, r1
    b450:	d900      	bls.n	b454 <transformToDate+0x108>
    b452:	e0f4      	b.n	b63e <transformToDate+0x2f2>
    b454:	d000      	beq.n	b458 <transformToDate+0x10c>
    b456:	e084      	b.n	b562 <transformToDate+0x216>
    b458:	9b0c      	ldr	r3, [sp, #48]	; 0x30
    b45a:	4283      	cmp	r3, r0
    b45c:	d800      	bhi.n	b460 <transformToDate+0x114>
    b45e:	e080      	b.n	b562 <transformToDate+0x216>
    b460:	e0ed      	b.n	b63e <transformToDate+0x2f2>
D:\zhangqiang\毕设\experiment\UE\User_NB-IoT_Frame(KL36)(A.50)-190816\Debug/../06_SoftComponent/timeStamp.c:65
    b462:	9b0d      	ldr	r3, [sp, #52]	; 0x34
    b464:	4299      	cmp	r1, r3
    b466:	d000      	beq.n	b46a <transformToDate+0x11e>
    b468:	e0dd      	b.n	b626 <transformToDate+0x2da>
D:\zhangqiang\毕设\experiment\UE\User_NB-IoT_Frame(KL36)(A.50)-190816\Debug/../06_SoftComponent/timeStamp.c:67
    b46a:	2201      	movs	r2, #1
    b46c:	2300      	movs	r3, #0
    b46e:	18b6      	adds	r6, r6, r2
    b470:	415f      	adcs	r7, r3
    b472:	960e      	str	r6, [sp, #56]	; 0x38
    b474:	970f      	str	r7, [sp, #60]	; 0x3c
D:\zhangqiang\毕设\experiment\UE\User_NB-IoT_Frame(KL36)(A.50)-190816\Debug/../06_SoftComponent/timeStamp.c:75
    b476:	2201      	movs	r2, #1
    b478:	4252      	negs	r2, r2
    b47a:	17d3      	asrs	r3, r2, #31
    b47c:	9c0e      	ldr	r4, [sp, #56]	; 0x38
    b47e:	9d0f      	ldr	r5, [sp, #60]	; 0x3c
    b480:	0020      	movs	r0, r4
    b482:	0029      	movs	r1, r5
    b484:	1880      	adds	r0, r0, r2
    b486:	4159      	adcs	r1, r3
D:\zhangqiang\毕设\experiment\UE\User_NB-IoT_Frame(KL36)(A.50)-190816\Debug/../06_SoftComponent/timeStamp.c:79
    b488:	2602      	movs	r6, #2
    b48a:	4276      	negs	r6, r6
    b48c:	17f7      	asrs	r7, r6, #31
    b48e:	0023      	movs	r3, r4
    b490:	002c      	movs	r4, r5
    b492:	199b      	adds	r3, r3, r6
    b494:	417c      	adcs	r4, r7
    b496:	001e      	movs	r6, r3
    b498:	0027      	movs	r7, r4
D:\zhangqiang\毕设\experiment\UE\User_NB-IoT_Frame(KL36)(A.50)-190816\Debug/../06_SoftComponent/timeStamp.c:78
    b49a:	0004      	movs	r4, r0
    b49c:	000d      	movs	r5, r1
    b49e:	0f41      	lsrs	r1, r0, #29
    b4a0:	00eb      	lsls	r3, r5, #3
    b4a2:	430b      	orrs	r3, r1
    b4a4:	0020      	movs	r0, r4
    b4a6:	0029      	movs	r1, r5
    b4a8:	00e2      	lsls	r2, r4, #3
    b4aa:	9002      	str	r0, [sp, #8]
    b4ac:	9103      	str	r1, [sp, #12]
    b4ae:	1812      	adds	r2, r2, r0
    b4b0:	414b      	adcs	r3, r1
    b4b2:	0f51      	lsrs	r1, r2, #29
    b4b4:	00dd      	lsls	r5, r3, #3
    b4b6:	430d      	orrs	r5, r1
    b4b8:	00d4      	lsls	r4, r2, #3
    b4ba:	9802      	ldr	r0, [sp, #8]
    b4bc:	9903      	ldr	r1, [sp, #12]
    b4be:	1824      	adds	r4, r4, r0
    b4c0:	414d      	adcs	r5, r1
    b4c2:	0fa3      	lsrs	r3, r4, #30
    b4c4:	00a9      	lsls	r1, r5, #2
    b4c6:	4319      	orrs	r1, r3
    b4c8:	00a0      	lsls	r0, r4, #2
    b4ca:	1824      	adds	r4, r4, r0
    b4cc:	414d      	adcs	r5, r1
D:\zhangqiang\毕设\experiment\UE\User_NB-IoT_Frame(KL36)(A.50)-190816\Debug/../06_SoftComponent/timeStamp.c:79
    b4ce:	07bb      	lsls	r3, r7, #30
    b4d0:	08b0      	lsrs	r0, r6, #2
    b4d2:	4318      	orrs	r0, r3
    b4d4:	08b9      	lsrs	r1, r7, #2
D:\zhangqiang\毕设\experiment\UE\User_NB-IoT_Frame(KL36)(A.50)-190816\Debug/../06_SoftComponent/timeStamp.c:84
    b4d6:	1824      	adds	r4, r4, r0
    b4d8:	414d      	adcs	r5, r1
    b4da:	4875      	ldr	r0, [pc, #468]	; (b6b0 <transformToDate+0x364>)
    b4dc:	2101      	movs	r1, #1
    b4de:	4249      	negs	r1, r1
    b4e0:	1824      	adds	r4, r4, r0
    b4e2:	414d      	adcs	r5, r1
D:\zhangqiang\毕设\experiment\UE\User_NB-IoT_Frame(KL36)(A.50)-190816\Debug/../06_SoftComponent/timeStamp.c:81
    b4e4:	22c8      	movs	r2, #200	; 0xc8
    b4e6:	0052      	lsls	r2, r2, #1
    b4e8:	2300      	movs	r3, #0
    b4ea:	0030      	movs	r0, r6
    b4ec:	0039      	movs	r1, r7
    b4ee:	f7fb fe03 	bl	70f8 <__aeabi_uldivmod>
D:\zhangqiang\毕设\experiment\UE\User_NB-IoT_Frame(KL36)(A.50)-190816\Debug/../06_SoftComponent/timeStamp.c:84
    b4f2:	1824      	adds	r4, r4, r0
    b4f4:	414d      	adcs	r5, r1
D:\zhangqiang\毕设\experiment\UE\User_NB-IoT_Frame(KL36)(A.50)-190816\Debug/../06_SoftComponent/timeStamp.c:80
    b4f6:	2264      	movs	r2, #100	; 0x64
    b4f8:	2300      	movs	r3, #0
    b4fa:	0030      	movs	r0, r6
    b4fc:	0039      	movs	r1, r7
    b4fe:	f7fb fdfb 	bl	70f8 <__aeabi_uldivmod>
D:\zhangqiang\毕设\experiment\UE\User_NB-IoT_Frame(KL36)(A.50)-190816\Debug/../06_SoftComponent/timeStamp.c:84
    b502:	1a24      	subs	r4, r4, r0
    b504:	418d      	sbcs	r5, r1
    b506:	0020      	movs	r0, r4
    b508:	0029      	movs	r1, r5
D:\zhangqiang\毕设\experiment\UE\User_NB-IoT_Frame(KL36)(A.50)-190816\Debug/../06_SoftComponent/timeStamp.c:86
    b50a:	4a6a      	ldr	r2, [pc, #424]	; (b6b4 <transformToDate+0x368>)
    b50c:	2300      	movs	r3, #0
    b50e:	f7fb fe13 	bl	7138 <__aeabi_lmul>
    b512:	9b0c      	ldr	r3, [sp, #48]	; 0x30
    b514:	9c0d      	ldr	r4, [sp, #52]	; 0x34
    b516:	1a1b      	subs	r3, r3, r0
    b518:	418c      	sbcs	r4, r1
    b51a:	9300      	str	r3, [sp, #0]
    b51c:	9401      	str	r4, [sp, #4]
D:\zhangqiang\毕设\experiment\UE\User_NB-IoT_Frame(KL36)(A.50)-190816\Debug/../06_SoftComponent/timeStamp.c:88
    b51e:	2303      	movs	r3, #3
    b520:	9802      	ldr	r0, [sp, #8]
    b522:	9903      	ldr	r1, [sp, #12]
    b524:	4203      	tst	r3, r0
    b526:	d108      	bne.n	b53a <transformToDate+0x1ee>
D:\zhangqiang\毕设\experiment\UE\User_NB-IoT_Frame(KL36)(A.50)-190816\Debug/../06_SoftComponent/timeStamp.c:88 (discriminator 1)
    b528:	2264      	movs	r2, #100	; 0x64
    b52a:	2300      	movs	r3, #0
    b52c:	f7fb fde4 	bl	70f8 <__aeabi_uldivmod>
    b530:	431a      	orrs	r2, r3
    b532:	2301      	movs	r3, #1
    b534:	469a      	mov	sl, r3
    b536:	2a00      	cmp	r2, #0
    b538:	d10a      	bne.n	b550 <transformToDate+0x204>
D:\zhangqiang\毕设\experiment\UE\User_NB-IoT_Frame(KL36)(A.50)-190816\Debug/../06_SoftComponent/timeStamp.c:88 (discriminator 4)
    b53a:	22c8      	movs	r2, #200	; 0xc8
    b53c:	0052      	lsls	r2, r2, #1
    b53e:	2300      	movs	r3, #0
    b540:	9802      	ldr	r0, [sp, #8]
    b542:	9903      	ldr	r1, [sp, #12]
    b544:	f7fb fdd8 	bl	70f8 <__aeabi_uldivmod>
    b548:	431a      	orrs	r2, r3
    b54a:	4253      	negs	r3, r2
    b54c:	4153      	adcs	r3, r2
    b54e:	469a      	mov	sl, r3
    b550:	ab1a      	add	r3, sp, #104	; 0x68
    b552:	4698      	mov	r8, r3
D:\zhangqiang\毕设\experiment\UE\User_NB-IoT_Frame(KL36)(A.50)-190816\Debug/../06_SoftComponent/timeStamp.c:90 (discriminator 8)
    b554:	2601      	movs	r6, #1
    b556:	2700      	movs	r7, #0
    b558:	e0c0      	b.n	b6dc <transformToDate+0x390>
D:\zhangqiang\毕设\experiment\UE\User_NB-IoT_Frame(KL36)(A.50)-190816\Debug/../06_SoftComponent/timeStamp.c:63
    b55a:	9b08      	ldr	r3, [sp, #32]
    b55c:	9c09      	ldr	r4, [sp, #36]	; 0x24
    b55e:	930a      	str	r3, [sp, #40]	; 0x28
    b560:	940b      	str	r4, [sp, #44]	; 0x2c
D:\zhangqiang\毕设\experiment\UE\User_NB-IoT_Frame(KL36)(A.50)-190816\Debug/../06_SoftComponent/timeStamp.c:60
    b562:	990e      	ldr	r1, [sp, #56]	; 0x38
    b564:	9a0f      	ldr	r2, [sp, #60]	; 0x3c
    b566:	9b0a      	ldr	r3, [sp, #40]	; 0x28
    b568:	9c0b      	ldr	r4, [sp, #44]	; 0x2c
    b56a:	42a2      	cmp	r2, r4
    b56c:	d900      	bls.n	b570 <transformToDate+0x224>
    b56e:	e782      	b.n	b476 <transformToDate+0x12a>
    b570:	d100      	bne.n	b574 <transformToDate+0x228>
    b572:	e077      	b.n	b664 <transformToDate+0x318>
D:\zhangqiang\毕设\experiment\UE\User_NB-IoT_Frame(KL36)(A.50)-190816\Debug/../06_SoftComponent/timeStamp.c:62
    b574:	9a0e      	ldr	r2, [sp, #56]	; 0x38
    b576:	9b0f      	ldr	r3, [sp, #60]	; 0x3c
    b578:	980a      	ldr	r0, [sp, #40]	; 0x28
    b57a:	990b      	ldr	r1, [sp, #44]	; 0x2c
    b57c:	1812      	adds	r2, r2, r0
    b57e:	414b      	adcs	r3, r1
    b580:	07d9      	lsls	r1, r3, #31
    b582:	0856      	lsrs	r6, r2, #1
    b584:	430e      	orrs	r6, r1
    b586:	085f      	lsrs	r7, r3, #1
D:\zhangqiang\毕设\experiment\UE\User_NB-IoT_Frame(KL36)(A.50)-190816\Debug/../06_SoftComponent/timeStamp.c:63
    b588:	2001      	movs	r0, #1
    b58a:	4240      	negs	r0, r0
    b58c:	17c1      	asrs	r1, r0, #31
    b58e:	1980      	adds	r0, r0, r6
    b590:	4179      	adcs	r1, r7
    b592:	9008      	str	r0, [sp, #32]
    b594:	9109      	str	r1, [sp, #36]	; 0x24
    b596:	0f73      	lsrs	r3, r6, #29
    b598:	00fa      	lsls	r2, r7, #3
    b59a:	431a      	orrs	r2, r3
    b59c:	9201      	str	r2, [sp, #4]
    b59e:	00f3      	lsls	r3, r6, #3
    b5a0:	9300      	str	r3, [sp, #0]
    b5a2:	9a00      	ldr	r2, [sp, #0]
    b5a4:	9b01      	ldr	r3, [sp, #4]
    b5a6:	1992      	adds	r2, r2, r6
    b5a8:	417b      	adcs	r3, r7
    b5aa:	0f51      	lsrs	r1, r2, #29
    b5ac:	00dc      	lsls	r4, r3, #3
    b5ae:	430c      	orrs	r4, r1
    b5b0:	9403      	str	r4, [sp, #12]
    b5b2:	00d3      	lsls	r3, r2, #3
    b5b4:	9302      	str	r3, [sp, #8]
    b5b6:	9c02      	ldr	r4, [sp, #8]
    b5b8:	9d03      	ldr	r5, [sp, #12]
    b5ba:	19a4      	adds	r4, r4, r6
    b5bc:	417d      	adcs	r5, r7
    b5be:	0fa3      	lsrs	r3, r4, #30
    b5c0:	00aa      	lsls	r2, r5, #2
    b5c2:	431a      	orrs	r2, r3
    b5c4:	9205      	str	r2, [sp, #20]
    b5c6:	00a3      	lsls	r3, r4, #2
    b5c8:	9304      	str	r3, [sp, #16]
    b5ca:	9a04      	ldr	r2, [sp, #16]
    b5cc:	9b05      	ldr	r3, [sp, #20]
    b5ce:	18a4      	adds	r4, r4, r2
    b5d0:	415d      	adcs	r5, r3
    b5d2:	4a37      	ldr	r2, [pc, #220]	; (b6b0 <transformToDate+0x364>)
    b5d4:	2301      	movs	r3, #1
    b5d6:	425b      	negs	r3, r3
    b5d8:	18a4      	adds	r4, r4, r2
    b5da:	415d      	adcs	r5, r3
    b5dc:	9808      	ldr	r0, [sp, #32]
    b5de:	9909      	ldr	r1, [sp, #36]	; 0x24
    b5e0:	078b      	lsls	r3, r1, #30
    b5e2:	0882      	lsrs	r2, r0, #2
    b5e4:	431a      	orrs	r2, r3
    b5e6:	9206      	str	r2, [sp, #24]
    b5e8:	088b      	lsrs	r3, r1, #2
    b5ea:	9307      	str	r3, [sp, #28]
    b5ec:	9a06      	ldr	r2, [sp, #24]
    b5ee:	9b07      	ldr	r3, [sp, #28]
    b5f0:	18a4      	adds	r4, r4, r2
    b5f2:	415d      	adcs	r5, r3
    b5f4:	22c8      	movs	r2, #200	; 0xc8
    b5f6:	0052      	lsls	r2, r2, #1
    b5f8:	2300      	movs	r3, #0
    b5fa:	f7fb fd7d 	bl	70f8 <__aeabi_uldivmod>
    b5fe:	1824      	adds	r4, r4, r0
    b600:	414d      	adcs	r5, r1
    b602:	2264      	movs	r2, #100	; 0x64
    b604:	2300      	movs	r3, #0
    b606:	9808      	ldr	r0, [sp, #32]
    b608:	9909      	ldr	r1, [sp, #36]	; 0x24
    b60a:	f7fb fd75 	bl	70f8 <__aeabi_uldivmod>
    b60e:	1a24      	subs	r4, r4, r0
    b610:	418d      	sbcs	r5, r1
    b612:	0020      	movs	r0, r4
    b614:	0029      	movs	r1, r5
    b616:	4a27      	ldr	r2, [pc, #156]	; (b6b4 <transformToDate+0x368>)
    b618:	2300      	movs	r3, #0
    b61a:	f7fb fd8d 	bl	7138 <__aeabi_lmul>
D:\zhangqiang\毕设\experiment\UE\User_NB-IoT_Frame(KL36)(A.50)-190816\Debug/../06_SoftComponent/timeStamp.c:65
    b61e:	9b0c      	ldr	r3, [sp, #48]	; 0x30
    b620:	4298      	cmp	r0, r3
    b622:	d100      	bne.n	b626 <transformToDate+0x2da>
    b624:	e71d      	b.n	b462 <transformToDate+0x116>
D:\zhangqiang\毕设\experiment\UE\User_NB-IoT_Frame(KL36)(A.50)-190816\Debug/../06_SoftComponent/timeStamp.c:70
    b626:	9b0c      	ldr	r3, [sp, #48]	; 0x30
    b628:	9c0d      	ldr	r4, [sp, #52]	; 0x34
    b62a:	428c      	cmp	r4, r1
    b62c:	d803      	bhi.n	b636 <transformToDate+0x2ea>
    b62e:	d194      	bne.n	b55a <transformToDate+0x20e>
    b630:	9b0c      	ldr	r3, [sp, #48]	; 0x30
    b632:	4283      	cmp	r3, r0
    b634:	d991      	bls.n	b55a <transformToDate+0x20e>
    b636:	9b0a      	ldr	r3, [sp, #40]	; 0x28
    b638:	9c0b      	ldr	r4, [sp, #44]	; 0x2c
    b63a:	9308      	str	r3, [sp, #32]
    b63c:	9409      	str	r4, [sp, #36]	; 0x24
D:\zhangqiang\毕设\experiment\UE\User_NB-IoT_Frame(KL36)(A.50)-190816\Debug/../06_SoftComponent/timeStamp.c:71
    b63e:	2301      	movs	r3, #1
    b640:	2400      	movs	r4, #0
    b642:	199b      	adds	r3, r3, r6
    b644:	417c      	adcs	r4, r7
    b646:	930e      	str	r3, [sp, #56]	; 0x38
    b648:	940f      	str	r4, [sp, #60]	; 0x3c
D:\zhangqiang\毕设\experiment\UE\User_NB-IoT_Frame(KL36)(A.50)-190816\Debug/../06_SoftComponent/timeStamp.c:60
    b64a:	9908      	ldr	r1, [sp, #32]
    b64c:	9a09      	ldr	r2, [sp, #36]	; 0x24
    b64e:	4294      	cmp	r4, r2
    b650:	d900      	bls.n	b654 <transformToDate+0x308>
    b652:	e710      	b.n	b476 <transformToDate+0x12a>
    b654:	d000      	beq.n	b658 <transformToDate+0x30c>
    b656:	e69f      	b.n	b398 <transformToDate+0x4c>
    b658:	9b0e      	ldr	r3, [sp, #56]	; 0x38
    b65a:	9a08      	ldr	r2, [sp, #32]
    b65c:	4293      	cmp	r3, r2
    b65e:	d800      	bhi.n	b662 <transformToDate+0x316>
    b660:	e69a      	b.n	b398 <transformToDate+0x4c>
    b662:	e708      	b.n	b476 <transformToDate+0x12a>
    b664:	9b0e      	ldr	r3, [sp, #56]	; 0x38
    b666:	9a0a      	ldr	r2, [sp, #40]	; 0x28
    b668:	4293      	cmp	r3, r2
    b66a:	d800      	bhi.n	b66e <transformToDate+0x322>
    b66c:	e782      	b.n	b574 <transformToDate+0x228>
    b66e:	e702      	b.n	b476 <transformToDate+0x12a>
D:\zhangqiang\毕设\experiment\UE\User_NB-IoT_Frame(KL36)(A.50)-190816\Debug/../06_SoftComponent/timeStamp.c:65
    b670:	9b0d      	ldr	r3, [sp, #52]	; 0x34
    b672:	428b      	cmp	r3, r1
    b674:	d000      	beq.n	b678 <transformToDate+0x32c>
    b676:	e6e8      	b.n	b44a <transformToDate+0xfe>
    b678:	e6f7      	b.n	b46a <transformToDate+0x11e>
D:\zhangqiang\毕设\experiment\UE\User_NB-IoT_Frame(KL36)(A.50)-190816\Debug/../06_SoftComponent/timeStamp.c:90 (discriminator 3)
    b67a:	2f00      	cmp	r7, #0
    b67c:	d101      	bne.n	b682 <transformToDate+0x336>
    b67e:	2e01      	cmp	r6, #1
    b680:	d835      	bhi.n	b6ee <transformToDate+0x3a2>
D:\zhangqiang\毕设\experiment\UE\User_NB-IoT_Frame(KL36)(A.50)-190816\Debug/../06_SoftComponent/timeStamp.c:90
    b682:	4a0c      	ldr	r2, [pc, #48]	; (b6b4 <transformToDate+0x368>)
    b684:	2300      	movs	r3, #0
    b686:	0020      	movs	r0, r4
    b688:	0029      	movs	r1, r5
    b68a:	f7fb fd55 	bl	7138 <__aeabi_lmul>
    b68e:	9b00      	ldr	r3, [sp, #0]
    b690:	9c01      	ldr	r4, [sp, #4]
    b692:	42a1      	cmp	r1, r4
    b694:	d849      	bhi.n	b72a <transformToDate+0x3de>
    b696:	d11a      	bne.n	b6ce <transformToDate+0x382>
    b698:	9b00      	ldr	r3, [sp, #0]
    b69a:	4298      	cmp	r0, r3
    b69c:	d917      	bls.n	b6ce <transformToDate+0x382>
    b69e:	e044      	b.n	b72a <transformToDate+0x3de>
    b6a0:	0000d700 	.word	0x0000d700
    b6a4:	00011efa 	.word	0x00011efa
    b6a8:	e44cb3ff 	.word	0xe44cb3ff
    b6ac:	0000270f 	.word	0x0000270f
    b6b0:	fffffe93 	.word	0xfffffe93
    b6b4:	05265c00 	.word	0x05265c00
    b6b8:	4a53      	ldr	r2, [pc, #332]	; (b808 <transformToDate+0x4bc>)
    b6ba:	2300      	movs	r3, #0
    b6bc:	0020      	movs	r0, r4
    b6be:	0029      	movs	r1, r5
    b6c0:	f7fb fd3a 	bl	7138 <__aeabi_lmul>
    b6c4:	9b00      	ldr	r3, [sp, #0]
    b6c6:	9c01      	ldr	r4, [sp, #4]
    b6c8:	42a1      	cmp	r1, r4
    b6ca:	d82e      	bhi.n	b72a <transformToDate+0x3de>
    b6cc:	d025      	beq.n	b71a <transformToDate+0x3ce>
D:\zhangqiang\毕设\experiment\UE\User_NB-IoT_Frame(KL36)(A.50)-190816\Debug/../06_SoftComponent/timeStamp.c:90 (discriminator 2)
    b6ce:	2301      	movs	r3, #1
    b6d0:	2400      	movs	r4, #0
    b6d2:	18f6      	adds	r6, r6, r3
    b6d4:	4167      	adcs	r7, r4
    b6d6:	3307      	adds	r3, #7
    b6d8:	469c      	mov	ip, r3
    b6da:	44e0      	add	r8, ip
    b6dc:	46c3      	mov	fp, r8
D:\zhangqiang\毕设\experiment\UE\User_NB-IoT_Frame(KL36)(A.50)-190816\Debug/../06_SoftComponent/timeStamp.c:90 (discriminator 1)
    b6de:	4643      	mov	r3, r8
    b6e0:	681c      	ldr	r4, [r3, #0]
    b6e2:	685d      	ldr	r5, [r3, #4]
    b6e4:	4653      	mov	r3, sl
    b6e6:	2b00      	cmp	r3, #0
    b6e8:	d0e6      	beq.n	b6b8 <transformToDate+0x36c>
D:\zhangqiang\毕设\experiment\UE\User_NB-IoT_Frame(KL36)(A.50)-190816\Debug/../06_SoftComponent/timeStamp.c:90 (discriminator 3)
    b6ea:	2f00      	cmp	r7, #0
    b6ec:	d0c5      	beq.n	b67a <transformToDate+0x32e>
D:\zhangqiang\毕设\experiment\UE\User_NB-IoT_Frame(KL36)(A.50)-190816\Debug/../06_SoftComponent/timeStamp.c:90
    b6ee:	2001      	movs	r0, #1
    b6f0:	2100      	movs	r1, #0
    b6f2:	1900      	adds	r0, r0, r4
    b6f4:	4169      	adcs	r1, r5
    b6f6:	4a44      	ldr	r2, [pc, #272]	; (b808 <transformToDate+0x4bc>)
    b6f8:	2300      	movs	r3, #0
    b6fa:	f7fb fd1d 	bl	7138 <__aeabi_lmul>
    b6fe:	9004      	str	r0, [sp, #16]
    b700:	9a00      	ldr	r2, [sp, #0]
    b702:	9b01      	ldr	r3, [sp, #4]
    b704:	4299      	cmp	r1, r3
    b706:	d810      	bhi.n	b72a <transformToDate+0x3de>
    b708:	d00b      	beq.n	b722 <transformToDate+0x3d6>
D:\zhangqiang\毕设\experiment\UE\User_NB-IoT_Frame(KL36)(A.50)-190816\Debug/../06_SoftComponent/timeStamp.c:92
    b70a:	2201      	movs	r2, #1
    b70c:	2300      	movs	r3, #0
    b70e:	18a4      	adds	r4, r4, r2
    b710:	415d      	adcs	r5, r3
    b712:	465b      	mov	r3, fp
    b714:	601c      	str	r4, [r3, #0]
    b716:	605d      	str	r5, [r3, #4]
    b718:	e7d9      	b.n	b6ce <transformToDate+0x382>
D:\zhangqiang\毕设\experiment\UE\User_NB-IoT_Frame(KL36)(A.50)-190816\Debug/../06_SoftComponent/timeStamp.c:90
    b71a:	9b00      	ldr	r3, [sp, #0]
    b71c:	4298      	cmp	r0, r3
    b71e:	d9d6      	bls.n	b6ce <transformToDate+0x382>
    b720:	e003      	b.n	b72a <transformToDate+0x3de>
    b722:	9b00      	ldr	r3, [sp, #0]
    b724:	9a04      	ldr	r2, [sp, #16]
    b726:	429a      	cmp	r2, r3
    b728:	d9ef      	bls.n	b70a <transformToDate+0x3be>
D:\zhangqiang\毕设\experiment\UE\User_NB-IoT_Frame(KL36)(A.50)-190816\Debug/../06_SoftComponent/timeStamp.c:94
    b72a:	00f1      	lsls	r1, r6, #3
    b72c:	ab32      	add	r3, sp, #200	; 0xc8
    b72e:	469c      	mov	ip, r3
    b730:	4461      	add	r1, ip
    b732:	3970      	subs	r1, #112	; 0x70
    b734:	4a34      	ldr	r2, [pc, #208]	; (b808 <transformToDate+0x4bc>)
    b736:	2300      	movs	r3, #0
    b738:	6808      	ldr	r0, [r1, #0]
    b73a:	6849      	ldr	r1, [r1, #4]
    b73c:	f7fb fcfc 	bl	7138 <__aeabi_lmul>
    b740:	9c00      	ldr	r4, [sp, #0]
    b742:	9d01      	ldr	r5, [sp, #4]
    b744:	1a24      	subs	r4, r4, r0
    b746:	418d      	sbcs	r5, r1
    b748:	4a2f      	ldr	r2, [pc, #188]	; (b808 <transformToDate+0x4bc>)
    b74a:	2300      	movs	r3, #0
    b74c:	0020      	movs	r0, r4
    b74e:	0029      	movs	r1, r5
    b750:	f7fb fcd2 	bl	70f8 <__aeabi_uldivmod>
    b754:	0010      	movs	r0, r2
    b756:	0019      	movs	r1, r3
    b758:	4a2c      	ldr	r2, [pc, #176]	; (b80c <transformToDate+0x4c0>)
    b75a:	2300      	movs	r3, #0
    b75c:	9000      	str	r0, [sp, #0]
    b75e:	9101      	str	r1, [sp, #4]
    b760:	f7fb fcca 	bl	70f8 <__aeabi_uldivmod>
    b764:	0010      	movs	r0, r2
    b766:	0019      	movs	r1, r3
    b768:	4a29      	ldr	r2, [pc, #164]	; (b810 <transformToDate+0x4c4>)
    b76a:	2300      	movs	r3, #0
    b76c:	9004      	str	r0, [sp, #16]
    b76e:	9105      	str	r1, [sp, #20]
    b770:	f7fb fcc2 	bl	70f8 <__aeabi_uldivmod>
    b774:	9206      	str	r2, [sp, #24]
    b776:	9307      	str	r3, [sp, #28]
D:\zhangqiang\毕设\experiment\UE\User_NB-IoT_Frame(KL36)(A.50)-190816\Debug/../06_SoftComponent/timeStamp.c:108
    b778:	464b      	mov	r3, r9
    b77a:	681b      	ldr	r3, [r3, #0]
    b77c:	9902      	ldr	r1, [sp, #8]
    b77e:	9a03      	ldr	r2, [sp, #12]
    b780:	6019      	str	r1, [r3, #0]
    b782:	605a      	str	r2, [r3, #4]
D:\zhangqiang\毕设\experiment\UE\User_NB-IoT_Frame(KL36)(A.50)-190816\Debug/../06_SoftComponent/timeStamp.c:109
    b784:	464b      	mov	r3, r9
    b786:	685b      	ldr	r3, [r3, #4]
    b788:	601e      	str	r6, [r3, #0]
    b78a:	605f      	str	r7, [r3, #4]
D:\zhangqiang\毕设\experiment\UE\User_NB-IoT_Frame(KL36)(A.50)-190816\Debug/../06_SoftComponent/timeStamp.c:110
    b78c:	464b      	mov	r3, r9
    b78e:	689e      	ldr	r6, [r3, #8]
D:\zhangqiang\毕设\experiment\UE\User_NB-IoT_Frame(KL36)(A.50)-190816\Debug/../06_SoftComponent/timeStamp.c:96
    b790:	4a1d      	ldr	r2, [pc, #116]	; (b808 <transformToDate+0x4bc>)
    b792:	2300      	movs	r3, #0
    b794:	0020      	movs	r0, r4
    b796:	0029      	movs	r1, r5
    b798:	f7fb fcae 	bl	70f8 <__aeabi_uldivmod>
D:\zhangqiang\毕设\experiment\UE\User_NB-IoT_Frame(KL36)(A.50)-190816\Debug/../06_SoftComponent/timeStamp.c:110
    b79c:	6030      	str	r0, [r6, #0]
    b79e:	6071      	str	r1, [r6, #4]
D:\zhangqiang\毕设\experiment\UE\User_NB-IoT_Frame(KL36)(A.50)-190816\Debug/../06_SoftComponent/timeStamp.c:111
    b7a0:	464b      	mov	r3, r9
    b7a2:	68de      	ldr	r6, [r3, #12]
D:\zhangqiang\毕设\experiment\UE\User_NB-IoT_Frame(KL36)(A.50)-190816\Debug/../06_SoftComponent/timeStamp.c:99
    b7a4:	4a19      	ldr	r2, [pc, #100]	; (b80c <transformToDate+0x4c0>)
    b7a6:	2300      	movs	r3, #0
    b7a8:	9800      	ldr	r0, [sp, #0]
    b7aa:	9901      	ldr	r1, [sp, #4]
    b7ac:	f7fb fca4 	bl	70f8 <__aeabi_uldivmod>
D:\zhangqiang\毕设\experiment\UE\User_NB-IoT_Frame(KL36)(A.50)-190816\Debug/../06_SoftComponent/timeStamp.c:111
    b7b0:	6030      	str	r0, [r6, #0]
    b7b2:	6071      	str	r1, [r6, #4]
D:\zhangqiang\毕设\experiment\UE\User_NB-IoT_Frame(KL36)(A.50)-190816\Debug/../06_SoftComponent/timeStamp.c:112
    b7b4:	464b      	mov	r3, r9
    b7b6:	691e      	ldr	r6, [r3, #16]
D:\zhangqiang\毕设\experiment\UE\User_NB-IoT_Frame(KL36)(A.50)-190816\Debug/../06_SoftComponent/timeStamp.c:102
    b7b8:	4a15      	ldr	r2, [pc, #84]	; (b810 <transformToDate+0x4c4>)
    b7ba:	2300      	movs	r3, #0
    b7bc:	9804      	ldr	r0, [sp, #16]
    b7be:	9905      	ldr	r1, [sp, #20]
    b7c0:	f7fb fc9a 	bl	70f8 <__aeabi_uldivmod>
D:\zhangqiang\毕设\experiment\UE\User_NB-IoT_Frame(KL36)(A.50)-190816\Debug/../06_SoftComponent/timeStamp.c:112
    b7c4:	6030      	str	r0, [r6, #0]
    b7c6:	6071      	str	r1, [r6, #4]
D:\zhangqiang\毕设\experiment\UE\User_NB-IoT_Frame(KL36)(A.50)-190816\Debug/../06_SoftComponent/timeStamp.c:113
    b7c8:	464b      	mov	r3, r9
    b7ca:	695e      	ldr	r6, [r3, #20]
D:\zhangqiang\毕设\experiment\UE\User_NB-IoT_Frame(KL36)(A.50)-190816\Debug/../06_SoftComponent/timeStamp.c:105
    b7cc:	22fa      	movs	r2, #250	; 0xfa
    b7ce:	0092      	lsls	r2, r2, #2
    b7d0:	2300      	movs	r3, #0
    b7d2:	9c06      	ldr	r4, [sp, #24]
    b7d4:	9d07      	ldr	r5, [sp, #28]
    b7d6:	0020      	movs	r0, r4
    b7d8:	0029      	movs	r1, r5
    b7da:	f7fb fc8d 	bl	70f8 <__aeabi_uldivmod>
D:\zhangqiang\毕设\experiment\UE\User_NB-IoT_Frame(KL36)(A.50)-190816\Debug/../06_SoftComponent/timeStamp.c:113
    b7de:	6030      	str	r0, [r6, #0]
    b7e0:	6071      	str	r1, [r6, #4]
D:\zhangqiang\毕设\experiment\UE\User_NB-IoT_Frame(KL36)(A.50)-190816\Debug/../06_SoftComponent/timeStamp.c:114
    b7e2:	464b      	mov	r3, r9
    b7e4:	699e      	ldr	r6, [r3, #24]
D:\zhangqiang\毕设\experiment\UE\User_NB-IoT_Frame(KL36)(A.50)-190816\Debug/../06_SoftComponent/timeStamp.c:106
    b7e6:	22fa      	movs	r2, #250	; 0xfa
    b7e8:	0092      	lsls	r2, r2, #2
    b7ea:	2300      	movs	r3, #0
    b7ec:	0020      	movs	r0, r4
    b7ee:	0029      	movs	r1, r5
    b7f0:	f7fb fc82 	bl	70f8 <__aeabi_uldivmod>
D:\zhangqiang\毕设\experiment\UE\User_NB-IoT_Frame(KL36)(A.50)-190816\Debug/../06_SoftComponent/timeStamp.c:114
    b7f4:	6032      	str	r2, [r6, #0]
    b7f6:	6073      	str	r3, [r6, #4]
D:\zhangqiang\毕设\experiment\UE\User_NB-IoT_Frame(KL36)(A.50)-190816\Debug/../06_SoftComponent/timeStamp.c:115
    b7f8:	b033      	add	sp, #204	; 0xcc
    b7fa:	bc3c      	pop	{r2, r3, r4, r5}
    b7fc:	4690      	mov	r8, r2
    b7fe:	4699      	mov	r9, r3
    b800:	46a2      	mov	sl, r4
    b802:	46ab      	mov	fp, r5
    b804:	bdf0      	pop	{r4, r5, r6, r7, pc}
    b806:	46c0      	nop			; (mov r8, r8)
    b808:	05265c00 	.word	0x05265c00
    b80c:	0036ee80 	.word	0x0036ee80
    b810:	0000ea60 	.word	0x0000ea60

0000b814 <intToString>:
intToString():
D:\zhangqiang\毕设\experiment\UE\User_NB-IoT_Frame(KL36)(A.50)-190816\Debug/../06_SoftComponent/timeStamp.c:119
    b814:	b570      	push	{r4, r5, r6, lr}
    b816:	b082      	sub	sp, #8
    b818:	9000      	str	r0, [sp, #0]
    b81a:	9101      	str	r1, [sp, #4]
D:\zhangqiang\毕设\experiment\UE\User_NB-IoT_Frame(KL36)(A.50)-190816\Debug/../06_SoftComponent/timeStamp.c:125
    b81c:	2b00      	cmp	r3, #0
    b81e:	d019      	beq.n	b854 <intToString+0x40>
    b820:	1e59      	subs	r1, r3, #1
    b822:	1855      	adds	r5, r2, r1
    b824:	3a02      	subs	r2, #2
    b826:	18d2      	adds	r2, r2, r3
    b828:	b2c9      	uxtb	r1, r1
    b82a:	1a56      	subs	r6, r2, r1
D:\zhangqiang\毕设\experiment\UE\User_NB-IoT_Frame(KL36)(A.50)-190816\Debug/../06_SoftComponent/timeStamp.c:127 (discriminator 3)
    b82c:	220a      	movs	r2, #10
    b82e:	2300      	movs	r3, #0
    b830:	9800      	ldr	r0, [sp, #0]
    b832:	9901      	ldr	r1, [sp, #4]
    b834:	f7fb fc60 	bl	70f8 <__aeabi_uldivmod>
    b838:	b2d4      	uxtb	r4, r2
D:\zhangqiang\毕设\experiment\UE\User_NB-IoT_Frame(KL36)(A.50)-190816\Debug/../06_SoftComponent/timeStamp.c:128 (discriminator 3)
    b83a:	220a      	movs	r2, #10
    b83c:	2300      	movs	r3, #0
    b83e:	9800      	ldr	r0, [sp, #0]
    b840:	9901      	ldr	r1, [sp, #4]
    b842:	f7fb fc59 	bl	70f8 <__aeabi_uldivmod>
    b846:	9000      	str	r0, [sp, #0]
    b848:	9101      	str	r1, [sp, #4]
D:\zhangqiang\毕设\experiment\UE\User_NB-IoT_Frame(KL36)(A.50)-190816\Debug/../06_SoftComponent/timeStamp.c:129 (discriminator 3)
    b84a:	3430      	adds	r4, #48	; 0x30
    b84c:	702c      	strb	r4, [r5, #0]
    b84e:	3d01      	subs	r5, #1
D:\zhangqiang\毕设\experiment\UE\User_NB-IoT_Frame(KL36)(A.50)-190816\Debug/../06_SoftComponent/timeStamp.c:125 (discriminator 3)
    b850:	42b5      	cmp	r5, r6
    b852:	d1eb      	bne.n	b82c <intToString+0x18>
D:\zhangqiang\毕设\experiment\UE\User_NB-IoT_Frame(KL36)(A.50)-190816\Debug/../06_SoftComponent/timeStamp.c:131
    b854:	b002      	add	sp, #8
    b856:	bd70      	pop	{r4, r5, r6, pc}

0000b858 <transformToDateString>:
transformToDateString():
D:\zhangqiang\毕设\experiment\UE\User_NB-IoT_Frame(KL36)(A.50)-190816\Debug/../06_SoftComponent/timeStamp.c:23
    b858:	b570      	push	{r4, r5, r6, lr}
    b85a:	b096      	sub	sp, #88	; 0x58
    b85c:	0014      	movs	r4, r2
D:\zhangqiang\毕设\experiment\UE\User_NB-IoT_Frame(KL36)(A.50)-190816\Debug/../06_SoftComponent/timeStamp.c:25
    b85e:	ab14      	add	r3, sp, #80	; 0x50
    b860:	9301      	str	r3, [sp, #4]
    b862:	ab12      	add	r3, sp, #72	; 0x48
    b864:	9302      	str	r3, [sp, #8]
    b866:	ab10      	add	r3, sp, #64	; 0x40
    b868:	9303      	str	r3, [sp, #12]
    b86a:	ab0e      	add	r3, sp, #56	; 0x38
    b86c:	9304      	str	r3, [sp, #16]
    b86e:	ab0c      	add	r3, sp, #48	; 0x30
    b870:	9305      	str	r3, [sp, #20]
    b872:	ab0a      	add	r3, sp, #40	; 0x28
    b874:	9306      	str	r3, [sp, #24]
    b876:	ab08      	add	r3, sp, #32
    b878:	9307      	str	r3, [sp, #28]
D:\zhangqiang\毕设\experiment\UE\User_NB-IoT_Frame(KL36)(A.50)-190816\Debug/../06_SoftComponent/timeStamp.c:27
    b87a:	aa01      	add	r2, sp, #4
    b87c:	f7ff fd66 	bl	b34c <transformToDate>
D:\zhangqiang\毕设\experiment\UE\User_NB-IoT_Frame(KL36)(A.50)-190816\Debug/../06_SoftComponent/timeStamp.c:29
    b880:	2304      	movs	r3, #4
    b882:	0022      	movs	r2, r4
    b884:	9814      	ldr	r0, [sp, #80]	; 0x50
    b886:	9915      	ldr	r1, [sp, #84]	; 0x54
    b888:	f7ff ffc4 	bl	b814 <intToString>
D:\zhangqiang\毕设\experiment\UE\User_NB-IoT_Frame(KL36)(A.50)-190816\Debug/../06_SoftComponent/timeStamp.c:30
    b88c:	252d      	movs	r5, #45	; 0x2d
    b88e:	7125      	strb	r5, [r4, #4]
D:\zhangqiang\毕设\experiment\UE\User_NB-IoT_Frame(KL36)(A.50)-190816\Debug/../06_SoftComponent/timeStamp.c:31
    b890:	1d62      	adds	r2, r4, #5
    b892:	2302      	movs	r3, #2
    b894:	9812      	ldr	r0, [sp, #72]	; 0x48
    b896:	9913      	ldr	r1, [sp, #76]	; 0x4c
    b898:	f7ff ffbc 	bl	b814 <intToString>
D:\zhangqiang\毕设\experiment\UE\User_NB-IoT_Frame(KL36)(A.50)-190816\Debug/../06_SoftComponent/timeStamp.c:32
    b89c:	71e5      	strb	r5, [r4, #7]
D:\zhangqiang\毕设\experiment\UE\User_NB-IoT_Frame(KL36)(A.50)-190816\Debug/../06_SoftComponent/timeStamp.c:33
    b89e:	0022      	movs	r2, r4
    b8a0:	3208      	adds	r2, #8
    b8a2:	2001      	movs	r0, #1
    b8a4:	2100      	movs	r1, #0
    b8a6:	9d10      	ldr	r5, [sp, #64]	; 0x40
    b8a8:	9e11      	ldr	r6, [sp, #68]	; 0x44
    b8aa:	1940      	adds	r0, r0, r5
    b8ac:	4171      	adcs	r1, r6
    b8ae:	2302      	movs	r3, #2
    b8b0:	f7ff ffb0 	bl	b814 <intToString>
D:\zhangqiang\毕设\experiment\UE\User_NB-IoT_Frame(KL36)(A.50)-190816\Debug/../06_SoftComponent/timeStamp.c:34
    b8b4:	2320      	movs	r3, #32
    b8b6:	72a3      	strb	r3, [r4, #10]
D:\zhangqiang\毕设\experiment\UE\User_NB-IoT_Frame(KL36)(A.50)-190816\Debug/../06_SoftComponent/timeStamp.c:35
    b8b8:	0022      	movs	r2, r4
    b8ba:	320b      	adds	r2, #11
    b8bc:	3b1e      	subs	r3, #30
    b8be:	980e      	ldr	r0, [sp, #56]	; 0x38
    b8c0:	990f      	ldr	r1, [sp, #60]	; 0x3c
    b8c2:	f7ff ffa7 	bl	b814 <intToString>
D:\zhangqiang\毕设\experiment\UE\User_NB-IoT_Frame(KL36)(A.50)-190816\Debug/../06_SoftComponent/timeStamp.c:36
    b8c6:	253a      	movs	r5, #58	; 0x3a
    b8c8:	7365      	strb	r5, [r4, #13]
D:\zhangqiang\毕设\experiment\UE\User_NB-IoT_Frame(KL36)(A.50)-190816\Debug/../06_SoftComponent/timeStamp.c:37
    b8ca:	0022      	movs	r2, r4
    b8cc:	320e      	adds	r2, #14
    b8ce:	2302      	movs	r3, #2
    b8d0:	980c      	ldr	r0, [sp, #48]	; 0x30
    b8d2:	990d      	ldr	r1, [sp, #52]	; 0x34
    b8d4:	f7ff ff9e 	bl	b814 <intToString>
D:\zhangqiang\毕设\experiment\UE\User_NB-IoT_Frame(KL36)(A.50)-190816\Debug/../06_SoftComponent/timeStamp.c:38
    b8d8:	7425      	strb	r5, [r4, #16]
D:\zhangqiang\毕设\experiment\UE\User_NB-IoT_Frame(KL36)(A.50)-190816\Debug/../06_SoftComponent/timeStamp.c:39
    b8da:	0022      	movs	r2, r4
    b8dc:	3211      	adds	r2, #17
    b8de:	2302      	movs	r3, #2
    b8e0:	980a      	ldr	r0, [sp, #40]	; 0x28
    b8e2:	990b      	ldr	r1, [sp, #44]	; 0x2c
    b8e4:	f7ff ff96 	bl	b814 <intToString>
D:\zhangqiang\毕设\experiment\UE\User_NB-IoT_Frame(KL36)(A.50)-190816\Debug/../06_SoftComponent/timeStamp.c:40
    b8e8:	2300      	movs	r3, #0
    b8ea:	74e3      	strb	r3, [r4, #19]
D:\zhangqiang\毕设\experiment\UE\User_NB-IoT_Frame(KL36)(A.50)-190816\Debug/../06_SoftComponent/timeStamp.c:41
    b8ec:	b016      	add	sp, #88	; 0x58
    b8ee:	bd70      	pop	{r4, r5, r6, pc}

0000b8f0 <timeChange>:
timeChange():
D:\zhangqiang\毕设\experiment\UE\User_NB-IoT_Frame(KL36)(A.50)-190816\Debug/../06_SoftComponent/timeStamp.c:16
    b8f0:	b510      	push	{r4, lr}
    b8f2:	0014      	movs	r4, r2
D:\zhangqiang\毕设\experiment\UE\User_NB-IoT_Frame(KL36)(A.50)-190816\Debug/../06_SoftComponent/timeStamp.c:18
    b8f4:	22fa      	movs	r2, #250	; 0xfa
    b8f6:	0092      	lsls	r2, r2, #2
    b8f8:	2300      	movs	r3, #0
    b8fa:	f7fb fc1d 	bl	7138 <__aeabi_lmul>
    b8fe:	4a04      	ldr	r2, [pc, #16]	; (b910 <timeChange+0x20>)
    b900:	4b04      	ldr	r3, [pc, #16]	; (b914 <timeChange+0x24>)
    b902:	1880      	adds	r0, r0, r2
    b904:	4159      	adcs	r1, r3
    b906:	0022      	movs	r2, r4
    b908:	f7ff ffa6 	bl	b858 <transformToDateString>
D:\zhangqiang\毕设\experiment\UE\User_NB-IoT_Frame(KL36)(A.50)-190816\Debug/../06_SoftComponent/timeStamp.c:19
    b90c:	bd10      	pop	{r4, pc}
    b90e:	46c0      	nop			; (mov r8, r8)
    b910:	122cd800 	.word	0x122cd800
    b914:	00003883 	.word	0x00003883

0000b918 <IntConvertToStr>:
IntConvertToStr():
D:\zhangqiang\毕设\experiment\UE\User_NB-IoT_Frame(KL36)(A.50)-190816\Debug/../06_SoftComponent/valueType.c:16
    b918:	b5f0      	push	{r4, r5, r6, r7, lr}
    b91a:	46c6      	mov	lr, r8
    b91c:	b500      	push	{lr}
    b91e:	0006      	movs	r6, r0
    b920:	000c      	movs	r4, r1
D:\zhangqiang\毕设\experiment\UE\User_NB-IoT_Frame(KL36)(A.50)-190816\Debug/../06_SoftComponent/valueType.c:19
    b922:	2300      	movs	r3, #0
    b924:	4698      	mov	r8, r3
D:\zhangqiang\毕设\experiment\UE\User_NB-IoT_Frame(KL36)(A.50)-190816\Debug/../06_SoftComponent/valueType.c:24
    b926:	2800      	cmp	r0, #0
    b928:	db01      	blt.n	b92e <IntConvertToStr+0x16>
D:\zhangqiang\毕设\experiment\UE\User_NB-IoT_Frame(KL36)(A.50)-190816\Debug/../06_SoftComponent/valueType.c:27 (discriminator 1)
    b92a:	0027      	movs	r7, r4
    b92c:	e004      	b.n	b938 <IntConvertToStr+0x20>
D:\zhangqiang\毕设\experiment\UE\User_NB-IoT_Frame(KL36)(A.50)-190816\Debug/../06_SoftComponent/valueType.c:26
    b92e:	4246      	negs	r6, r0
D:\zhangqiang\毕设\experiment\UE\User_NB-IoT_Frame(KL36)(A.50)-190816\Debug/../06_SoftComponent/valueType.c:27
    b930:	3301      	adds	r3, #1
    b932:	4698      	mov	r8, r3
    b934:	e7f9      	b.n	b92a <IntConvertToStr+0x12>
D:\zhangqiang\毕设\experiment\UE\User_NB-IoT_Frame(KL36)(A.50)-190816\Debug/../06_SoftComponent/valueType.c:34
    b936:	002f      	movs	r7, r5
D:\zhangqiang\毕设\experiment\UE\User_NB-IoT_Frame(KL36)(A.50)-190816\Debug/../06_SoftComponent/valueType.c:32 (discriminator 1)
    b938:	210a      	movs	r1, #10
    b93a:	0030      	movs	r0, r6
    b93c:	f7fb fb5e 	bl	6ffc <__aeabi_idivmod>
D:\zhangqiang\毕设\experiment\UE\User_NB-IoT_Frame(KL36)(A.50)-190816\Debug/../06_SoftComponent/valueType.c:33 (discriminator 1)
    b940:	3130      	adds	r1, #48	; 0x30
    b942:	7039      	strb	r1, [r7, #0]
D:\zhangqiang\毕设\experiment\UE\User_NB-IoT_Frame(KL36)(A.50)-190816\Debug/../06_SoftComponent/valueType.c:34 (discriminator 1)
    b944:	1c7d      	adds	r5, r7, #1
D:\zhangqiang\毕设\experiment\UE\User_NB-IoT_Frame(KL36)(A.50)-190816\Debug/../06_SoftComponent/valueType.c:35 (discriminator 1)
    b946:	210a      	movs	r1, #10
    b948:	0030      	movs	r0, r6
    b94a:	f7fb fa71 	bl	6e30 <__divsi3>
    b94e:	1e06      	subs	r6, r0, #0
    b950:	d1f1      	bne.n	b936 <IntConvertToStr+0x1e>
D:\zhangqiang\毕设\experiment\UE\User_NB-IoT_Frame(KL36)(A.50)-190816\Debug/../06_SoftComponent/valueType.c:37
    b952:	4643      	mov	r3, r8
    b954:	2b01      	cmp	r3, #1
    b956:	d019      	beq.n	b98c <IntConvertToStr+0x74>
D:\zhangqiang\毕设\experiment\UE\User_NB-IoT_Frame(KL36)(A.50)-190816\Debug/../06_SoftComponent/valueType.c:42
    b958:	2300      	movs	r3, #0
    b95a:	702b      	strb	r3, [r5, #0]
D:\zhangqiang\毕设\experiment\UE\User_NB-IoT_Frame(KL36)(A.50)-190816\Debug/../06_SoftComponent/valueType.c:43
    b95c:	3d01      	subs	r5, #1
D:\zhangqiang\毕设\experiment\UE\User_NB-IoT_Frame(KL36)(A.50)-190816\Debug/../06_SoftComponent/valueType.c:45
    b95e:	42ac      	cmp	r4, r5
    b960:	d210      	bcs.n	b984 <IntConvertToStr+0x6c>
D:\zhangqiang\毕设\experiment\UE\User_NB-IoT_Frame(KL36)(A.50)-190816\Debug/../06_SoftComponent/valueType.c:21
    b962:	0021      	movs	r1, r4
D:\zhangqiang\毕设\experiment\UE\User_NB-IoT_Frame(KL36)(A.50)-190816\Debug/../06_SoftComponent/valueType.c:47
    b964:	780b      	ldrb	r3, [r1, #0]
    b966:	7828      	ldrb	r0, [r5, #0]
    b968:	181b      	adds	r3, r3, r0
    b96a:	b2db      	uxtb	r3, r3
    b96c:	700b      	strb	r3, [r1, #0]
D:\zhangqiang\毕设\experiment\UE\User_NB-IoT_Frame(KL36)(A.50)-190816\Debug/../06_SoftComponent/valueType.c:48
    b96e:	7828      	ldrb	r0, [r5, #0]
    b970:	1a1b      	subs	r3, r3, r0
    b972:	b2db      	uxtb	r3, r3
    b974:	702b      	strb	r3, [r5, #0]
D:\zhangqiang\毕设\experiment\UE\User_NB-IoT_Frame(KL36)(A.50)-190816\Debug/../06_SoftComponent/valueType.c:49
    b976:	7808      	ldrb	r0, [r1, #0]
    b978:	1ac3      	subs	r3, r0, r3
    b97a:	700b      	strb	r3, [r1, #0]
D:\zhangqiang\毕设\experiment\UE\User_NB-IoT_Frame(KL36)(A.50)-190816\Debug/../06_SoftComponent/valueType.c:50
    b97c:	3101      	adds	r1, #1
D:\zhangqiang\毕设\experiment\UE\User_NB-IoT_Frame(KL36)(A.50)-190816\Debug/../06_SoftComponent/valueType.c:51
    b97e:	3d01      	subs	r5, #1
D:\zhangqiang\毕设\experiment\UE\User_NB-IoT_Frame(KL36)(A.50)-190816\Debug/../06_SoftComponent/valueType.c:45
    b980:	42a9      	cmp	r1, r5
    b982:	d3ef      	bcc.n	b964 <IntConvertToStr+0x4c>
D:\zhangqiang\毕设\experiment\UE\User_NB-IoT_Frame(KL36)(A.50)-190816\Debug/../06_SoftComponent/valueType.c:54
    b984:	0020      	movs	r0, r4
    b986:	bc04      	pop	{r2}
    b988:	4690      	mov	r8, r2
    b98a:	bdf0      	pop	{r4, r5, r6, r7, pc}
D:\zhangqiang\毕设\experiment\UE\User_NB-IoT_Frame(KL36)(A.50)-190816\Debug/../06_SoftComponent/valueType.c:39
    b98c:	332c      	adds	r3, #44	; 0x2c
    b98e:	702b      	strb	r3, [r5, #0]
    b990:	1cbd      	adds	r5, r7, #2
    b992:	e7e1      	b.n	b958 <IntConvertToStr+0x40>

0000b994 <DoubleConvertToStr>:
DoubleConvertToStr():
D:\zhangqiang\毕设\experiment\UE\User_NB-IoT_Frame(KL36)(A.50)-190816\Debug/../06_SoftComponent/valueType.c:63
    b994:	b5f0      	push	{r4, r5, r6, r7, lr}
    b996:	46ce      	mov	lr, r9
    b998:	4647      	mov	r7, r8
    b99a:	b580      	push	{r7, lr}
    b99c:	b085      	sub	sp, #20
    b99e:	0006      	movs	r6, r0
    b9a0:	000f      	movs	r7, r1
    b9a2:	4690      	mov	r8, r2
    b9a4:	9303      	str	r3, [sp, #12]
D:\zhangqiang\毕设\experiment\UE\User_NB-IoT_Frame(KL36)(A.50)-190816\Debug/../06_SoftComponent/valueType.c:74
    b9a6:	2200      	movs	r2, #0
    b9a8:	2300      	movs	r3, #0
    b9aa:	f7fb fb43 	bl	7034 <__aeabi_dcmplt>
    b9ae:	2800      	cmp	r0, #0
    b9b0:	d113      	bne.n	b9da <DoubleConvertToStr+0x46>
D:\zhangqiang\毕设\experiment\UE\User_NB-IoT_Frame(KL36)(A.50)-190816\Debug/../06_SoftComponent/valueType.c:66
    b9b2:	2300      	movs	r3, #0
    b9b4:	4699      	mov	r9, r3
D:\zhangqiang\毕设\experiment\UE\User_NB-IoT_Frame(KL36)(A.50)-190816\Debug/../06_SoftComponent/valueType.c:79
    b9b6:	0030      	movs	r0, r6
    b9b8:	0039      	movs	r1, r7
    b9ba:	f7fd ff71 	bl	98a0 <__aeabi_d2iz>
    b9be:	0004      	movs	r4, r0
D:\zhangqiang\毕设\experiment\UE\User_NB-IoT_Frame(KL36)(A.50)-190816\Debug/../06_SoftComponent/valueType.c:80
    b9c0:	f7fd ffa4 	bl	990c <__aeabi_i2d>
    b9c4:	0002      	movs	r2, r0
    b9c6:	000b      	movs	r3, r1
    b9c8:	0030      	movs	r0, r6
    b9ca:	0039      	movs	r1, r7
    b9cc:	f7fd fc04 	bl	91d8 <__aeabi_dsub>
    b9d0:	f7fe f85a 	bl	9a88 <__aeabi_d2f>
    b9d4:	1c05      	adds	r5, r0, #0
D:\zhangqiang\毕设\experiment\UE\User_NB-IoT_Frame(KL36)(A.50)-190816\Debug/../06_SoftComponent/valueType.c:72
    b9d6:	9f03      	ldr	r7, [sp, #12]
    b9d8:	e00b      	b.n	b9f2 <DoubleConvertToStr+0x5e>
D:\zhangqiang\毕设\experiment\UE\User_NB-IoT_Frame(KL36)(A.50)-190816\Debug/../06_SoftComponent/valueType.c:77
    b9da:	0032      	movs	r2, r6
    b9dc:	003b      	movs	r3, r7
    b9de:	2000      	movs	r0, #0
    b9e0:	2100      	movs	r1, #0
    b9e2:	f7fd fbf9 	bl	91d8 <__aeabi_dsub>
    b9e6:	0006      	movs	r6, r0
    b9e8:	000f      	movs	r7, r1
D:\zhangqiang\毕设\experiment\UE\User_NB-IoT_Frame(KL36)(A.50)-190816\Debug/../06_SoftComponent/valueType.c:76
    b9ea:	2301      	movs	r3, #1
    b9ec:	4699      	mov	r9, r3
    b9ee:	e7e2      	b.n	b9b6 <DoubleConvertToStr+0x22>
D:\zhangqiang\毕设\experiment\UE\User_NB-IoT_Frame(KL36)(A.50)-190816\Debug/../06_SoftComponent/valueType.c:84
    b9f0:	0037      	movs	r7, r6
D:\zhangqiang\毕设\experiment\UE\User_NB-IoT_Frame(KL36)(A.50)-190816\Debug/../06_SoftComponent/valueType.c:84 (discriminator 1)
    b9f2:	1c7e      	adds	r6, r7, #1
D:\zhangqiang\毕设\experiment\UE\User_NB-IoT_Frame(KL36)(A.50)-190816\Debug/../06_SoftComponent/valueType.c:83 (discriminator 1)
    b9f4:	210a      	movs	r1, #10
    b9f6:	0020      	movs	r0, r4
    b9f8:	f7fb fb00 	bl	6ffc <__aeabi_idivmod>
D:\zhangqiang\毕设\experiment\UE\User_NB-IoT_Frame(KL36)(A.50)-190816\Debug/../06_SoftComponent/valueType.c:84 (discriminator 1)
    b9fc:	3130      	adds	r1, #48	; 0x30
    b9fe:	7039      	strb	r1, [r7, #0]
D:\zhangqiang\毕设\experiment\UE\User_NB-IoT_Frame(KL36)(A.50)-190816\Debug/../06_SoftComponent/valueType.c:85 (discriminator 1)
    ba00:	210a      	movs	r1, #10
    ba02:	0020      	movs	r0, r4
    ba04:	f7fb fa14 	bl	6e30 <__divsi3>
    ba08:	1e04      	subs	r4, r0, #0
    ba0a:	d1f1      	bne.n	b9f0 <DoubleConvertToStr+0x5c>
D:\zhangqiang\毕设\experiment\UE\User_NB-IoT_Frame(KL36)(A.50)-190816\Debug/../06_SoftComponent/valueType.c:86
    ba0c:	464b      	mov	r3, r9
    ba0e:	2b01      	cmp	r3, #1
    ba10:	d01b      	beq.n	ba4a <DoubleConvertToStr+0xb6>
D:\zhangqiang\毕设\experiment\UE\User_NB-IoT_Frame(KL36)(A.50)-190816\Debug/../06_SoftComponent/valueType.c:91
    ba12:	1e70      	subs	r0, r6, #1
D:\zhangqiang\毕设\experiment\UE\User_NB-IoT_Frame(KL36)(A.50)-190816\Debug/../06_SoftComponent/valueType.c:92
    ba14:	9903      	ldr	r1, [sp, #12]
    ba16:	4281      	cmp	r1, r0
    ba18:	d20f      	bcs.n	ba3a <DoubleConvertToStr+0xa6>
D:\zhangqiang\毕设\experiment\UE\User_NB-IoT_Frame(KL36)(A.50)-190816\Debug/../06_SoftComponent/valueType.c:94
    ba1a:	780b      	ldrb	r3, [r1, #0]
    ba1c:	7802      	ldrb	r2, [r0, #0]
    ba1e:	189b      	adds	r3, r3, r2
    ba20:	b2db      	uxtb	r3, r3
    ba22:	700b      	strb	r3, [r1, #0]
D:\zhangqiang\毕设\experiment\UE\User_NB-IoT_Frame(KL36)(A.50)-190816\Debug/../06_SoftComponent/valueType.c:95
    ba24:	7802      	ldrb	r2, [r0, #0]
    ba26:	1a9b      	subs	r3, r3, r2
    ba28:	b2db      	uxtb	r3, r3
    ba2a:	7003      	strb	r3, [r0, #0]
D:\zhangqiang\毕设\experiment\UE\User_NB-IoT_Frame(KL36)(A.50)-190816\Debug/../06_SoftComponent/valueType.c:96
    ba2c:	780a      	ldrb	r2, [r1, #0]
    ba2e:	1ad3      	subs	r3, r2, r3
    ba30:	700b      	strb	r3, [r1, #0]
D:\zhangqiang\毕设\experiment\UE\User_NB-IoT_Frame(KL36)(A.50)-190816\Debug/../06_SoftComponent/valueType.c:97
    ba32:	3101      	adds	r1, #1
D:\zhangqiang\毕设\experiment\UE\User_NB-IoT_Frame(KL36)(A.50)-190816\Debug/../06_SoftComponent/valueType.c:98
    ba34:	3801      	subs	r0, #1
D:\zhangqiang\毕设\experiment\UE\User_NB-IoT_Frame(KL36)(A.50)-190816\Debug/../06_SoftComponent/valueType.c:92
    ba36:	4281      	cmp	r1, r0
    ba38:	d3ef      	bcc.n	ba1a <DoubleConvertToStr+0x86>
D:\zhangqiang\毕设\experiment\UE\User_NB-IoT_Frame(KL36)(A.50)-190816\Debug/../06_SoftComponent/valueType.c:100
    ba3a:	232e      	movs	r3, #46	; 0x2e
    ba3c:	7033      	strb	r3, [r6, #0]
    ba3e:	1c77      	adds	r7, r6, #1
    ba40:	0034      	movs	r4, r6
    ba42:	4444      	add	r4, r8
    ba44:	0026      	movs	r6, r4
    ba46:	003c      	movs	r4, r7
    ba48:	e004      	b.n	ba54 <DoubleConvertToStr+0xc0>
D:\zhangqiang\毕设\experiment\UE\User_NB-IoT_Frame(KL36)(A.50)-190816\Debug/../06_SoftComponent/valueType.c:88
    ba4a:	1cbe      	adds	r6, r7, #2
    ba4c:	332c      	adds	r3, #44	; 0x2c
    ba4e:	707b      	strb	r3, [r7, #1]
    ba50:	e7df      	b.n	ba12 <DoubleConvertToStr+0x7e>
    ba52:	3401      	adds	r4, #1
    ba54:	0027      	movs	r7, r4
D:\zhangqiang\毕设\experiment\UE\User_NB-IoT_Frame(KL36)(A.50)-190816\Debug/../06_SoftComponent/valueType.c:103
    ba56:	4916      	ldr	r1, [pc, #88]	; (bab0 <DoubleConvertToStr+0x11c>)
    ba58:	1c28      	adds	r0, r5, #0
    ba5a:	f7fb fe85 	bl	7768 <__aeabi_fmul>
    ba5e:	1c05      	adds	r5, r0, #0
    ba60:	f7fc f978 	bl	7d54 <__aeabi_f2iz>
D:\zhangqiang\毕设\experiment\UE\User_NB-IoT_Frame(KL36)(A.50)-190816\Debug/../06_SoftComponent/valueType.c:104
    ba64:	0003      	movs	r3, r0
    ba66:	3330      	adds	r3, #48	; 0x30
    ba68:	7023      	strb	r3, [r4, #0]
D:\zhangqiang\毕设\experiment\UE\User_NB-IoT_Frame(KL36)(A.50)-190816\Debug/../06_SoftComponent/valueType.c:106
    ba6a:	42b4      	cmp	r4, r6
    ba6c:	d018      	beq.n	baa0 <DoubleConvertToStr+0x10c>
D:\zhangqiang\毕设\experiment\UE\User_NB-IoT_Frame(KL36)(A.50)-190816\Debug/../06_SoftComponent/valueType.c:109
    ba6e:	f7fc f991 	bl	7d94 <__aeabi_i2f>
    ba72:	1c01      	adds	r1, r0, #0
    ba74:	1c28      	adds	r0, r5, #0
    ba76:	f7fb ffa9 	bl	79cc <__aeabi_fsub>
    ba7a:	1c05      	adds	r5, r0, #0
D:\zhangqiang\毕设\experiment\UE\User_NB-IoT_Frame(KL36)(A.50)-190816\Debug/../06_SoftComponent/valueType.c:111
    ba7c:	f7fd ffb2 	bl	99e4 <__aeabi_f2d>
    ba80:	4a0c      	ldr	r2, [pc, #48]	; (bab4 <DoubleConvertToStr+0x120>)
    ba82:	4b0d      	ldr	r3, [pc, #52]	; (bab8 <DoubleConvertToStr+0x124>)
    ba84:	9000      	str	r0, [sp, #0]
    ba86:	9101      	str	r1, [sp, #4]
    ba88:	f7fb fae8 	bl	705c <__aeabi_dcmpgt>
    ba8c:	2800      	cmp	r0, #0
    ba8e:	d0e0      	beq.n	ba52 <DoubleConvertToStr+0xbe>
D:\zhangqiang\毕设\experiment\UE\User_NB-IoT_Frame(KL36)(A.50)-190816\Debug/../06_SoftComponent/valueType.c:111 (discriminator 1)
    ba90:	4a08      	ldr	r2, [pc, #32]	; (bab4 <DoubleConvertToStr+0x120>)
    ba92:	4b0a      	ldr	r3, [pc, #40]	; (babc <DoubleConvertToStr+0x128>)
    ba94:	9800      	ldr	r0, [sp, #0]
    ba96:	9901      	ldr	r1, [sp, #4]
    ba98:	f7fb facc 	bl	7034 <__aeabi_dcmplt>
    ba9c:	2800      	cmp	r0, #0
    ba9e:	d0d8      	beq.n	ba52 <DoubleConvertToStr+0xbe>
D:\zhangqiang\毕设\experiment\UE\User_NB-IoT_Frame(KL36)(A.50)-190816\Debug/../06_SoftComponent/valueType.c:112
    baa0:	2300      	movs	r3, #0
    baa2:	707b      	strb	r3, [r7, #1]
D:\zhangqiang\毕设\experiment\UE\User_NB-IoT_Frame(KL36)(A.50)-190816\Debug/../06_SoftComponent/valueType.c:114
    baa4:	9803      	ldr	r0, [sp, #12]
    baa6:	b005      	add	sp, #20
    baa8:	bc0c      	pop	{r2, r3}
    baaa:	4690      	mov	r8, r2
    baac:	4699      	mov	r9, r3
    baae:	bdf0      	pop	{r4, r5, r6, r7, pc}
    bab0:	41200000 	.word	0x41200000
    bab4:	a0b5ed8d 	.word	0xa0b5ed8d
    bab8:	beb0c6f7 	.word	0xbeb0c6f7
    babc:	3eb0c6f7 	.word	0x3eb0c6f7

0000bac0 <ArrayCopy>:
ArrayCopy():
D:\zhangqiang\毕设\experiment\UE\User_NB-IoT_Frame(KL36)(A.50)-190816\Debug/../06_SoftComponent/valueType.c:123
    bac0:	b510      	push	{r4, lr}
D:\zhangqiang\毕设\experiment\UE\User_NB-IoT_Frame(KL36)(A.50)-190816\Debug/../06_SoftComponent/valueType.c:125
    bac2:	2a00      	cmp	r2, #0
    bac4:	d006      	beq.n	bad4 <ArrayCopy+0x14>
    bac6:	2300      	movs	r3, #0
D:\zhangqiang\毕设\experiment\UE\User_NB-IoT_Frame(KL36)(A.50)-190816\Debug/../06_SoftComponent/valueType.c:126 (discriminator 3)
    bac8:	5ccc      	ldrb	r4, [r1, r3]
    baca:	54c4      	strb	r4, [r0, r3]
    bacc:	3301      	adds	r3, #1
D:\zhangqiang\毕设\experiment\UE\User_NB-IoT_Frame(KL36)(A.50)-190816\Debug/../06_SoftComponent/valueType.c:125 (discriminator 3)
    bace:	b29c      	uxth	r4, r3
    bad0:	42a2      	cmp	r2, r4
    bad2:	d8f9      	bhi.n	bac8 <ArrayCopy+0x8>
D:\zhangqiang\毕设\experiment\UE\User_NB-IoT_Frame(KL36)(A.50)-190816\Debug/../06_SoftComponent/valueType.c:127
    bad4:	bd10      	pop	{r4, pc}
	...

0000bad8 <LCD_WR_DATA8>:
LCD_WR_DATA8():
D:\zhangqiang\毕设\experiment\UE\User_NB-IoT_Frame(KL36)(A.50)-190816\Debug/../05_UserBoard/lcd.c:495
    bad8:	b570      	push	{r4, r5, r6, lr}
    bada:	0006      	movs	r6, r0
D:\zhangqiang\毕设\experiment\UE\User_NB-IoT_Frame(KL36)(A.50)-190816\Debug/../05_UserBoard/lcd.c:496
    badc:	4c0c      	ldr	r4, [pc, #48]	; (bb10 <LCD_WR_DATA8+0x38>)
    bade:	6823      	ldr	r3, [r4, #0]
    bae0:	6e1b      	ldr	r3, [r3, #96]	; 0x60
    bae2:	2101      	movs	r1, #1
    bae4:	480b      	ldr	r0, [pc, #44]	; (bb14 <LCD_WR_DATA8+0x3c>)
    bae6:	4798      	blx	r3
D:\zhangqiang\毕设\experiment\UE\User_NB-IoT_Frame(KL36)(A.50)-190816\Debug/../05_UserBoard/lcd.c:497
    bae8:	25c0      	movs	r5, #192	; 0xc0
    baea:	00ad      	lsls	r5, r5, #2
    baec:	6823      	ldr	r3, [r4, #0]
    baee:	6ddb      	ldr	r3, [r3, #92]	; 0x5c
    baf0:	2200      	movs	r2, #0
    baf2:	2101      	movs	r1, #1
    baf4:	0028      	movs	r0, r5
    baf6:	4798      	blx	r3
D:\zhangqiang\毕设\experiment\UE\User_NB-IoT_Frame(KL36)(A.50)-190816\Debug/../05_UserBoard/lcd.c:498
    baf8:	0031      	movs	r1, r6
    bafa:	2000      	movs	r0, #0
    bafc:	f001 f994 	bl	ce28 <spi_send1>
D:\zhangqiang\毕设\experiment\UE\User_NB-IoT_Frame(KL36)(A.50)-190816\Debug/../05_UserBoard/lcd.c:499
    bb00:	6823      	ldr	r3, [r4, #0]
    bb02:	6ddb      	ldr	r3, [r3, #92]	; 0x5c
    bb04:	2201      	movs	r2, #1
    bb06:	2101      	movs	r1, #1
    bb08:	0028      	movs	r0, r5
    bb0a:	4798      	blx	r3
D:\zhangqiang\毕设\experiment\UE\User_NB-IoT_Frame(KL36)(A.50)-190816\Debug/../05_UserBoard/lcd.c:500
    bb0c:	bd70      	pop	{r4, r5, r6, pc}
    bb0e:	46c0      	nop			; (mov r8, r8)
    bb10:	20000568 	.word	0x20000568
    bb14:	00000301 	.word	0x00000301

0000bb18 <LCD_WR_DATA>:
LCD_WR_DATA():
D:\zhangqiang\毕设\experiment\UE\User_NB-IoT_Frame(KL36)(A.50)-190816\Debug/../05_UserBoard/lcd.c:502
    bb18:	b570      	push	{r4, r5, r6, lr}
    bb1a:	0004      	movs	r4, r0
D:\zhangqiang\毕设\experiment\UE\User_NB-IoT_Frame(KL36)(A.50)-190816\Debug/../05_UserBoard/lcd.c:503
    bb1c:	4d0e      	ldr	r5, [pc, #56]	; (bb58 <LCD_WR_DATA+0x40>)
    bb1e:	682b      	ldr	r3, [r5, #0]
    bb20:	6e1b      	ldr	r3, [r3, #96]	; 0x60
    bb22:	2101      	movs	r1, #1
    bb24:	480d      	ldr	r0, [pc, #52]	; (bb5c <LCD_WR_DATA+0x44>)
    bb26:	4798      	blx	r3
D:\zhangqiang\毕设\experiment\UE\User_NB-IoT_Frame(KL36)(A.50)-190816\Debug/../05_UserBoard/lcd.c:504
    bb28:	26c0      	movs	r6, #192	; 0xc0
    bb2a:	00b6      	lsls	r6, r6, #2
    bb2c:	682b      	ldr	r3, [r5, #0]
    bb2e:	6ddb      	ldr	r3, [r3, #92]	; 0x5c
    bb30:	2200      	movs	r2, #0
    bb32:	2101      	movs	r1, #1
    bb34:	0030      	movs	r0, r6
    bb36:	4798      	blx	r3
D:\zhangqiang\毕设\experiment\UE\User_NB-IoT_Frame(KL36)(A.50)-190816\Debug/../05_UserBoard/lcd.c:505
    bb38:	0a21      	lsrs	r1, r4, #8
    bb3a:	2000      	movs	r0, #0
    bb3c:	f001 f974 	bl	ce28 <spi_send1>
D:\zhangqiang\毕设\experiment\UE\User_NB-IoT_Frame(KL36)(A.50)-190816\Debug/../05_UserBoard/lcd.c:506
    bb40:	b2e1      	uxtb	r1, r4
    bb42:	2000      	movs	r0, #0
    bb44:	f001 f970 	bl	ce28 <spi_send1>
D:\zhangqiang\毕设\experiment\UE\User_NB-IoT_Frame(KL36)(A.50)-190816\Debug/../05_UserBoard/lcd.c:507
    bb48:	682b      	ldr	r3, [r5, #0]
    bb4a:	6ddb      	ldr	r3, [r3, #92]	; 0x5c
    bb4c:	2201      	movs	r2, #1
    bb4e:	2101      	movs	r1, #1
    bb50:	0030      	movs	r0, r6
    bb52:	4798      	blx	r3
D:\zhangqiang\毕设\experiment\UE\User_NB-IoT_Frame(KL36)(A.50)-190816\Debug/../05_UserBoard/lcd.c:508
    bb54:	bd70      	pop	{r4, r5, r6, pc}
    bb56:	46c0      	nop			; (mov r8, r8)
    bb58:	20000568 	.word	0x20000568
    bb5c:	00000301 	.word	0x00000301

0000bb60 <LCD_WR_REG>:
LCD_WR_REG():
D:\zhangqiang\毕设\experiment\UE\User_NB-IoT_Frame(KL36)(A.50)-190816\Debug/../05_UserBoard/lcd.c:510
    bb60:	b570      	push	{r4, r5, r6, lr}
    bb62:	0006      	movs	r6, r0
D:\zhangqiang\毕设\experiment\UE\User_NB-IoT_Frame(KL36)(A.50)-190816\Debug/../05_UserBoard/lcd.c:511
    bb64:	4c0c      	ldr	r4, [pc, #48]	; (bb98 <LCD_WR_REG+0x38>)
    bb66:	6823      	ldr	r3, [r4, #0]
    bb68:	6e1b      	ldr	r3, [r3, #96]	; 0x60
    bb6a:	2100      	movs	r1, #0
    bb6c:	480b      	ldr	r0, [pc, #44]	; (bb9c <LCD_WR_REG+0x3c>)
    bb6e:	4798      	blx	r3
D:\zhangqiang\毕设\experiment\UE\User_NB-IoT_Frame(KL36)(A.50)-190816\Debug/../05_UserBoard/lcd.c:512
    bb70:	25c0      	movs	r5, #192	; 0xc0
    bb72:	00ad      	lsls	r5, r5, #2
    bb74:	6823      	ldr	r3, [r4, #0]
    bb76:	6ddb      	ldr	r3, [r3, #92]	; 0x5c
    bb78:	2200      	movs	r2, #0
    bb7a:	2101      	movs	r1, #1
    bb7c:	0028      	movs	r0, r5
    bb7e:	4798      	blx	r3
D:\zhangqiang\毕设\experiment\UE\User_NB-IoT_Frame(KL36)(A.50)-190816\Debug/../05_UserBoard/lcd.c:513
    bb80:	0031      	movs	r1, r6
    bb82:	2000      	movs	r0, #0
    bb84:	f001 f950 	bl	ce28 <spi_send1>
D:\zhangqiang\毕设\experiment\UE\User_NB-IoT_Frame(KL36)(A.50)-190816\Debug/../05_UserBoard/lcd.c:514
    bb88:	6823      	ldr	r3, [r4, #0]
    bb8a:	6ddb      	ldr	r3, [r3, #92]	; 0x5c
    bb8c:	2201      	movs	r2, #1
    bb8e:	2101      	movs	r1, #1
    bb90:	0028      	movs	r0, r5
    bb92:	4798      	blx	r3
D:\zhangqiang\毕设\experiment\UE\User_NB-IoT_Frame(KL36)(A.50)-190816\Debug/../05_UserBoard/lcd.c:515
    bb94:	bd70      	pop	{r4, r5, r6, pc}
    bb96:	46c0      	nop			; (mov r8, r8)
    bb98:	20000568 	.word	0x20000568
    bb9c:	00000301 	.word	0x00000301

0000bba0 <LCD_WR_REG_DATA>:
LCD_WR_REG_DATA():
D:\zhangqiang\毕设\experiment\UE\User_NB-IoT_Frame(KL36)(A.50)-190816\Debug/../05_UserBoard/lcd.c:518
    bba0:	b510      	push	{r4, lr}
    bba2:	000c      	movs	r4, r1
D:\zhangqiang\毕设\experiment\UE\User_NB-IoT_Frame(KL36)(A.50)-190816\Debug/../05_UserBoard/lcd.c:519
    bba4:	f7ff ffdc 	bl	bb60 <LCD_WR_REG>
D:\zhangqiang\毕设\experiment\UE\User_NB-IoT_Frame(KL36)(A.50)-190816\Debug/../05_UserBoard/lcd.c:520
    bba8:	0020      	movs	r0, r4
    bbaa:	f7ff ffb5 	bl	bb18 <LCD_WR_DATA>
D:\zhangqiang\毕设\experiment\UE\User_NB-IoT_Frame(KL36)(A.50)-190816\Debug/../05_UserBoard/lcd.c:521
    bbae:	bd10      	pop	{r4, pc}

0000bbb0 <Address_set>:
Address_set():
D:\zhangqiang\毕设\experiment\UE\User_NB-IoT_Frame(KL36)(A.50)-190816\Debug/../05_UserBoard/lcd.c:523
    bbb0:	b5f8      	push	{r3, r4, r5, r6, r7, lr}
    bbb2:	0007      	movs	r7, r0
    bbb4:	000d      	movs	r5, r1
    bbb6:	0016      	movs	r6, r2
    bbb8:	001c      	movs	r4, r3
D:\zhangqiang\毕设\experiment\UE\User_NB-IoT_Frame(KL36)(A.50)-190816\Debug/../05_UserBoard/lcd.c:524
    bbba:	202a      	movs	r0, #42	; 0x2a
    bbbc:	f7ff ffd0 	bl	bb60 <LCD_WR_REG>
D:\zhangqiang\毕设\experiment\UE\User_NB-IoT_Frame(KL36)(A.50)-190816\Debug/../05_UserBoard/lcd.c:525
    bbc0:	0a38      	lsrs	r0, r7, #8
    bbc2:	f7ff ff89 	bl	bad8 <LCD_WR_DATA8>
D:\zhangqiang\毕设\experiment\UE\User_NB-IoT_Frame(KL36)(A.50)-190816\Debug/../05_UserBoard/lcd.c:526
    bbc6:	b2f8      	uxtb	r0, r7
    bbc8:	f7ff ff86 	bl	bad8 <LCD_WR_DATA8>
D:\zhangqiang\毕设\experiment\UE\User_NB-IoT_Frame(KL36)(A.50)-190816\Debug/../05_UserBoard/lcd.c:527
    bbcc:	0a30      	lsrs	r0, r6, #8
    bbce:	f7ff ff83 	bl	bad8 <LCD_WR_DATA8>
D:\zhangqiang\毕设\experiment\UE\User_NB-IoT_Frame(KL36)(A.50)-190816\Debug/../05_UserBoard/lcd.c:528
    bbd2:	b2f0      	uxtb	r0, r6
    bbd4:	f7ff ff80 	bl	bad8 <LCD_WR_DATA8>
D:\zhangqiang\毕设\experiment\UE\User_NB-IoT_Frame(KL36)(A.50)-190816\Debug/../05_UserBoard/lcd.c:530
    bbd8:	202b      	movs	r0, #43	; 0x2b
    bbda:	f7ff ffc1 	bl	bb60 <LCD_WR_REG>
D:\zhangqiang\毕设\experiment\UE\User_NB-IoT_Frame(KL36)(A.50)-190816\Debug/../05_UserBoard/lcd.c:531
    bbde:	0a28      	lsrs	r0, r5, #8
    bbe0:	f7ff ff7a 	bl	bad8 <LCD_WR_DATA8>
D:\zhangqiang\毕设\experiment\UE\User_NB-IoT_Frame(KL36)(A.50)-190816\Debug/../05_UserBoard/lcd.c:532
    bbe4:	b2e8      	uxtb	r0, r5
    bbe6:	f7ff ff77 	bl	bad8 <LCD_WR_DATA8>
D:\zhangqiang\毕设\experiment\UE\User_NB-IoT_Frame(KL36)(A.50)-190816\Debug/../05_UserBoard/lcd.c:533
    bbea:	0a20      	lsrs	r0, r4, #8
    bbec:	f7ff ff74 	bl	bad8 <LCD_WR_DATA8>
D:\zhangqiang\毕设\experiment\UE\User_NB-IoT_Frame(KL36)(A.50)-190816\Debug/../05_UserBoard/lcd.c:534
    bbf0:	b2e0      	uxtb	r0, r4
    bbf2:	f7ff ff71 	bl	bad8 <LCD_WR_DATA8>
D:\zhangqiang\毕设\experiment\UE\User_NB-IoT_Frame(KL36)(A.50)-190816\Debug/../05_UserBoard/lcd.c:536
    bbf6:	202c      	movs	r0, #44	; 0x2c
    bbf8:	f7ff ffb2 	bl	bb60 <LCD_WR_REG>
D:\zhangqiang\毕设\experiment\UE\User_NB-IoT_Frame(KL36)(A.50)-190816\Debug/../05_UserBoard/lcd.c:537
    bbfc:	bdf8      	pop	{r3, r4, r5, r6, r7, pc}

0000bbfe <LCD_Clear>:
LCD_Clear():
D:\zhangqiang\毕设\experiment\UE\User_NB-IoT_Frame(KL36)(A.50)-190816\Debug/../05_UserBoard/lcd.c:201
    bbfe:	b5f8      	push	{r3, r4, r5, r6, r7, lr}
    bc00:	0005      	movs	r5, r0
D:\zhangqiang\毕设\experiment\UE\User_NB-IoT_Frame(KL36)(A.50)-190816\Debug/../05_UserBoard/lcd.c:203
    bc02:	2340      	movs	r3, #64	; 0x40
    bc04:	33ff      	adds	r3, #255	; 0xff
    bc06:	22ef      	movs	r2, #239	; 0xef
    bc08:	2100      	movs	r1, #0
    bc0a:	2000      	movs	r0, #0
    bc0c:	f7ff ffd0 	bl	bbb0 <Address_set>
    bc10:	27f0      	movs	r7, #240	; 0xf0
D:\zhangqiang\毕设\experiment\UE\User_NB-IoT_Frame(KL36)(A.50)-190816\Debug/../05_UserBoard/lcd.c:201
    bc12:	26a0      	movs	r6, #160	; 0xa0
    bc14:	0076      	lsls	r6, r6, #1
    bc16:	0034      	movs	r4, r6
D:\zhangqiang\毕设\experiment\UE\User_NB-IoT_Frame(KL36)(A.50)-190816\Debug/../05_UserBoard/lcd.c:206 (discriminator 3)
    bc18:	0028      	movs	r0, r5
    bc1a:	f7ff ff7d 	bl	bb18 <LCD_WR_DATA>
    bc1e:	3c01      	subs	r4, #1
    bc20:	b2a4      	uxth	r4, r4
    bc22:	2c00      	cmp	r4, #0
    bc24:	d1f8      	bne.n	bc18 <LCD_Clear+0x1a>
    bc26:	3f01      	subs	r7, #1
    bc28:	b2bf      	uxth	r7, r7
D:\zhangqiang\毕设\experiment\UE\User_NB-IoT_Frame(KL36)(A.50)-190816\Debug/../05_UserBoard/lcd.c:204 (discriminator 2)
    bc2a:	2f00      	cmp	r7, #0
    bc2c:	d1f3      	bne.n	bc16 <LCD_Clear+0x18>
D:\zhangqiang\毕设\experiment\UE\User_NB-IoT_Frame(KL36)(A.50)-190816\Debug/../05_UserBoard/lcd.c:208
    bc2e:	bdf8      	pop	{r3, r4, r5, r6, r7, pc}

0000bc30 <LCD_Init>:
LCD_Init():
D:\zhangqiang\毕设\experiment\UE\User_NB-IoT_Frame(KL36)(A.50)-190816\Debug/../05_UserBoard/lcd.c:25
    bc30:	b530      	push	{r4, r5, lr}
    bc32:	b083      	sub	sp, #12
D:\zhangqiang\毕设\experiment\UE\User_NB-IoT_Frame(KL36)(A.50)-190816\Debug/../05_UserBoard/lcd.c:28
    bc34:	2300      	movs	r3, #0
    bc36:	9300      	str	r3, [sp, #0]
    bc38:	4a28      	ldr	r2, [pc, #160]	; (bcdc <LCD_Init+0xac>)
    bc3a:	2101      	movs	r1, #1
    bc3c:	2000      	movs	r0, #0
    bc3e:	f001 f807 	bl	cc50 <spi_init>
D:\zhangqiang\毕设\experiment\UE\User_NB-IoT_Frame(KL36)(A.50)-190816\Debug/../05_UserBoard/lcd.c:29
    bc42:	4d27      	ldr	r5, [pc, #156]	; (bce0 <LCD_Init+0xb0>)
    bc44:	4c27      	ldr	r4, [pc, #156]	; (bce4 <LCD_Init+0xb4>)
    bc46:	6823      	ldr	r3, [r4, #0]
    bc48:	6ddb      	ldr	r3, [r3, #92]	; 0x5c
    bc4a:	2200      	movs	r2, #0
    bc4c:	2101      	movs	r1, #1
    bc4e:	0028      	movs	r0, r5
    bc50:	4798      	blx	r3
D:\zhangqiang\毕设\experiment\UE\User_NB-IoT_Frame(KL36)(A.50)-190816\Debug/../05_UserBoard/lcd.c:30
    bc52:	6823      	ldr	r3, [r4, #0]
    bc54:	6ddb      	ldr	r3, [r3, #92]	; 0x5c
    bc56:	2200      	movs	r2, #0
    bc58:	2101      	movs	r1, #1
    bc5a:	4823      	ldr	r0, [pc, #140]	; (bce8 <LCD_Init+0xb8>)
    bc5c:	4798      	blx	r3
D:\zhangqiang\毕设\experiment\UE\User_NB-IoT_Frame(KL36)(A.50)-190816\Debug/../05_UserBoard/lcd.c:31
    bc5e:	20c0      	movs	r0, #192	; 0xc0
    bc60:	6823      	ldr	r3, [r4, #0]
    bc62:	6ddb      	ldr	r3, [r3, #92]	; 0x5c
    bc64:	2201      	movs	r2, #1
    bc66:	2101      	movs	r1, #1
    bc68:	0080      	lsls	r0, r0, #2
    bc6a:	4798      	blx	r3
D:\zhangqiang\毕设\experiment\UE\User_NB-IoT_Frame(KL36)(A.50)-190816\Debug/../05_UserBoard/lcd.c:33
    bc6c:	2100      	movs	r1, #0
    bc6e:	2000      	movs	r0, #0
    bc70:	f7ff ff96 	bl	bba0 <LCD_WR_REG_DATA>
D:\zhangqiang\毕设\experiment\UE\User_NB-IoT_Frame(KL36)(A.50)-190816\Debug/../05_UserBoard/lcd.c:35
    bc74:	6823      	ldr	r3, [r4, #0]
    bc76:	6e1b      	ldr	r3, [r3, #96]	; 0x60
    bc78:	2100      	movs	r1, #0
    bc7a:	0028      	movs	r0, r5
    bc7c:	4798      	blx	r3
D:\zhangqiang\毕设\experiment\UE\User_NB-IoT_Frame(KL36)(A.50)-190816\Debug/../05_UserBoard/lcd.c:36
    bc7e:	2014      	movs	r0, #20
    bc80:	f7ff fb56 	bl	b330 <Delay_ms>
D:\zhangqiang\毕设\experiment\UE\User_NB-IoT_Frame(KL36)(A.50)-190816\Debug/../05_UserBoard/lcd.c:37
    bc84:	6823      	ldr	r3, [r4, #0]
    bc86:	6e1b      	ldr	r3, [r3, #96]	; 0x60
    bc88:	2101      	movs	r1, #1
    bc8a:	0028      	movs	r0, r5
    bc8c:	4798      	blx	r3
D:\zhangqiang\毕设\experiment\UE\User_NB-IoT_Frame(KL36)(A.50)-190816\Debug/../05_UserBoard/lcd.c:38
    bc8e:	2014      	movs	r0, #20
    bc90:	f7ff fb4e 	bl	b330 <Delay_ms>
D:\zhangqiang\毕设\experiment\UE\User_NB-IoT_Frame(KL36)(A.50)-190816\Debug/../05_UserBoard/lcd.c:82
    bc94:	2036      	movs	r0, #54	; 0x36
    bc96:	f7ff ff63 	bl	bb60 <LCD_WR_REG>
D:\zhangqiang\毕设\experiment\UE\User_NB-IoT_Frame(KL36)(A.50)-190816\Debug/../05_UserBoard/lcd.c:83
    bc9a:	2000      	movs	r0, #0
    bc9c:	f7ff ff1c 	bl	bad8 <LCD_WR_DATA8>
D:\zhangqiang\毕设\experiment\UE\User_NB-IoT_Frame(KL36)(A.50)-190816\Debug/../05_UserBoard/lcd.c:93
    bca0:	20b6      	movs	r0, #182	; 0xb6
    bca2:	f7ff ff5d 	bl	bb60 <LCD_WR_REG>
D:\zhangqiang\毕设\experiment\UE\User_NB-IoT_Frame(KL36)(A.50)-190816\Debug/../05_UserBoard/lcd.c:94
    bca6:	200a      	movs	r0, #10
    bca8:	f7ff ff16 	bl	bad8 <LCD_WR_DATA8>
D:\zhangqiang\毕设\experiment\UE\User_NB-IoT_Frame(KL36)(A.50)-190816\Debug/../05_UserBoard/lcd.c:95
    bcac:	20a2      	movs	r0, #162	; 0xa2
    bcae:	f7ff ff13 	bl	bad8 <LCD_WR_DATA8>
D:\zhangqiang\毕设\experiment\UE\User_NB-IoT_Frame(KL36)(A.50)-190816\Debug/../05_UserBoard/lcd.c:120
    bcb2:	203a      	movs	r0, #58	; 0x3a
    bcb4:	f7ff ff54 	bl	bb60 <LCD_WR_REG>
D:\zhangqiang\毕设\experiment\UE\User_NB-IoT_Frame(KL36)(A.50)-190816\Debug/../05_UserBoard/lcd.c:121
    bcb8:	2005      	movs	r0, #5
    bcba:	f7ff ff0d 	bl	bad8 <LCD_WR_DATA8>
D:\zhangqiang\毕设\experiment\UE\User_NB-IoT_Frame(KL36)(A.50)-190816\Debug/../05_UserBoard/lcd.c:181
    bcbe:	2011      	movs	r0, #17
    bcc0:	f7ff ff4e 	bl	bb60 <LCD_WR_REG>
D:\zhangqiang\毕设\experiment\UE\User_NB-IoT_Frame(KL36)(A.50)-190816\Debug/../05_UserBoard/lcd.c:182
    bcc4:	2078      	movs	r0, #120	; 0x78
    bcc6:	f7ff fb33 	bl	b330 <Delay_ms>
D:\zhangqiang\毕设\experiment\UE\User_NB-IoT_Frame(KL36)(A.50)-190816\Debug/../05_UserBoard/lcd.c:183
    bcca:	4808      	ldr	r0, [pc, #32]	; (bcec <LCD_Init+0xbc>)
    bccc:	f7ff ff97 	bl	bbfe <LCD_Clear>
D:\zhangqiang\毕设\experiment\UE\User_NB-IoT_Frame(KL36)(A.50)-190816\Debug/../05_UserBoard/lcd.c:184
    bcd0:	2029      	movs	r0, #41	; 0x29
    bcd2:	f7ff ff45 	bl	bb60 <LCD_WR_REG>
D:\zhangqiang\毕设\experiment\UE\User_NB-IoT_Frame(KL36)(A.50)-190816\Debug/../05_UserBoard/lcd.c:192
    bcd6:	b003      	add	sp, #12
    bcd8:	bd30      	pop	{r4, r5, pc}
    bcda:	46c0      	nop			; (mov r8, r8)
    bcdc:	00001770 	.word	0x00001770
    bce0:	00000302 	.word	0x00000302
    bce4:	20000568 	.word	0x20000568
    bce8:	00000301 	.word	0x00000301
    bcec:	0000ffff 	.word	0x0000ffff

0000bcf0 <LCD_DrawPoint>:
LCD_DrawPoint():
D:\zhangqiang\毕设\experiment\UE\User_NB-IoT_Frame(KL36)(A.50)-190816\Debug/../05_UserBoard/lcd.c:219
    bcf0:	b510      	push	{r4, lr}
    bcf2:	0014      	movs	r4, r2
D:\zhangqiang\毕设\experiment\UE\User_NB-IoT_Frame(KL36)(A.50)-190816\Debug/../05_UserBoard/lcd.c:220
    bcf4:	000b      	movs	r3, r1
    bcf6:	0002      	movs	r2, r0
    bcf8:	f7ff ff5a 	bl	bbb0 <Address_set>
D:\zhangqiang\毕设\experiment\UE\User_NB-IoT_Frame(KL36)(A.50)-190816\Debug/../05_UserBoard/lcd.c:221
    bcfc:	0020      	movs	r0, r4
    bcfe:	f7ff ff0b 	bl	bb18 <LCD_WR_DATA>
D:\zhangqiang\毕设\experiment\UE\User_NB-IoT_Frame(KL36)(A.50)-190816\Debug/../05_UserBoard/lcd.c:222
    bd02:	bd10      	pop	{r4, pc}

0000bd04 <LCD_DrawLine>:
LCD_DrawLine():
D:\zhangqiang\毕设\experiment\UE\User_NB-IoT_Frame(KL36)(A.50)-190816\Debug/../05_UserBoard/lcd.c:425
    bd04:	b5f0      	push	{r4, r5, r6, r7, lr}
    bd06:	46de      	mov	lr, fp
    bd08:	4657      	mov	r7, sl
    bd0a:	464e      	mov	r6, r9
    bd0c:	4645      	mov	r5, r8
    bd0e:	b5e0      	push	{r5, r6, r7, lr}
    bd10:	b085      	sub	sp, #20
    bd12:	ac0e      	add	r4, sp, #56	; 0x38
    bd14:	8824      	ldrh	r4, [r4, #0]
    bd16:	9402      	str	r4, [sp, #8]
D:\zhangqiang\毕设\experiment\UE\User_NB-IoT_Frame(KL36)(A.50)-190816\Debug/../05_UserBoard/lcd.c:430
    bd18:	9000      	str	r0, [sp, #0]
    bd1a:	1a12      	subs	r2, r2, r0
    bd1c:	4690      	mov	r8, r2
D:\zhangqiang\毕设\experiment\UE\User_NB-IoT_Frame(KL36)(A.50)-190816\Debug/../05_UserBoard/lcd.c:431
    bd1e:	9101      	str	r1, [sp, #4]
    bd20:	1a5b      	subs	r3, r3, r1
    bd22:	469b      	mov	fp, r3
D:\zhangqiang\毕设\experiment\UE\User_NB-IoT_Frame(KL36)(A.50)-190816\Debug/../05_UserBoard/lcd.c:434
    bd24:	2301      	movs	r3, #1
    bd26:	9303      	str	r3, [sp, #12]
    bd28:	2a00      	cmp	r2, #0
    bd2a:	dd10      	ble.n	bd4e <LCD_DrawLine+0x4a>
D:\zhangqiang\毕设\experiment\UE\User_NB-IoT_Frame(KL36)(A.50)-190816\Debug/../05_UserBoard/lcd.c:437
    bd2c:	2301      	movs	r3, #1
    bd2e:	469a      	mov	sl, r3
    bd30:	465b      	mov	r3, fp
    bd32:	2b00      	cmp	r3, #0
    bd34:	dd14      	ble.n	bd60 <LCD_DrawLine+0x5c>
    bd36:	4647      	mov	r7, r8
    bd38:	45d8      	cmp	r8, fp
    bd3a:	da00      	bge.n	bd3e <LCD_DrawLine+0x3a>
    bd3c:	465f      	mov	r7, fp
D:\zhangqiang\毕设\experiment\UE\User_NB-IoT_Frame(KL36)(A.50)-190816\Debug/../05_UserBoard/lcd.c:442
    bd3e:	003b      	movs	r3, r7
    bd40:	3301      	adds	r3, #1
    bd42:	4699      	mov	r9, r3
    bd44:	d430      	bmi.n	bda8 <LCD_DrawLine+0xa4>
D:\zhangqiang\毕设\experiment\UE\User_NB-IoT_Frame(KL36)(A.50)-190816\Debug/../05_UserBoard/lcd.c:427
    bd46:	2600      	movs	r6, #0
    bd48:	2500      	movs	r5, #0
D:\zhangqiang\毕设\experiment\UE\User_NB-IoT_Frame(KL36)(A.50)-190816\Debug/../05_UserBoard/lcd.c:442
    bd4a:	2400      	movs	r4, #0
    bd4c:	e015      	b.n	bd7a <LCD_DrawLine+0x76>
D:\zhangqiang\毕设\experiment\UE\User_NB-IoT_Frame(KL36)(A.50)-190816\Debug/../05_UserBoard/lcd.c:435
    bd4e:	9203      	str	r2, [sp, #12]
    bd50:	2a00      	cmp	r2, #0
    bd52:	d0eb      	beq.n	bd2c <LCD_DrawLine+0x28>
D:\zhangqiang\毕设\experiment\UE\User_NB-IoT_Frame(KL36)(A.50)-190816\Debug/../05_UserBoard/lcd.c:436
    bd54:	4253      	negs	r3, r2
    bd56:	4698      	mov	r8, r3
    bd58:	2301      	movs	r3, #1
    bd5a:	425b      	negs	r3, r3
    bd5c:	9303      	str	r3, [sp, #12]
    bd5e:	e7e5      	b.n	bd2c <LCD_DrawLine+0x28>
D:\zhangqiang\毕设\experiment\UE\User_NB-IoT_Frame(KL36)(A.50)-190816\Debug/../05_UserBoard/lcd.c:438
    bd60:	46da      	mov	sl, fp
    bd62:	2b00      	cmp	r3, #0
    bd64:	d0e7      	beq.n	bd36 <LCD_DrawLine+0x32>
D:\zhangqiang\毕设\experiment\UE\User_NB-IoT_Frame(KL36)(A.50)-190816\Debug/../05_UserBoard/lcd.c:439
    bd66:	425b      	negs	r3, r3
    bd68:	469b      	mov	fp, r3
    bd6a:	2301      	movs	r3, #1
    bd6c:	425b      	negs	r3, r3
    bd6e:	469a      	mov	sl, r3
    bd70:	e7e1      	b.n	bd36 <LCD_DrawLine+0x32>
D:\zhangqiang\毕设\experiment\UE\User_NB-IoT_Frame(KL36)(A.50)-190816\Debug/../05_UserBoard/lcd.c:442 (discriminator 2)
    bd72:	3401      	adds	r4, #1
    bd74:	b2a4      	uxth	r4, r4
    bd76:	454c      	cmp	r4, r9
    bd78:	dc16      	bgt.n	bda8 <LCD_DrawLine+0xa4>
D:\zhangqiang\毕设\experiment\UE\User_NB-IoT_Frame(KL36)(A.50)-190816\Debug/../05_UserBoard/lcd.c:444
    bd7a:	466b      	mov	r3, sp
    bd7c:	8899      	ldrh	r1, [r3, #4]
    bd7e:	8818      	ldrh	r0, [r3, #0]
    bd80:	9a02      	ldr	r2, [sp, #8]
    bd82:	f7ff ffb5 	bl	bcf0 <LCD_DrawPoint>
D:\zhangqiang\毕设\experiment\UE\User_NB-IoT_Frame(KL36)(A.50)-190816\Debug/../05_UserBoard/lcd.c:445
    bd86:	4445      	add	r5, r8
D:\zhangqiang\毕设\experiment\UE\User_NB-IoT_Frame(KL36)(A.50)-190816\Debug/../05_UserBoard/lcd.c:446
    bd88:	445e      	add	r6, fp
D:\zhangqiang\毕设\experiment\UE\User_NB-IoT_Frame(KL36)(A.50)-190816\Debug/../05_UserBoard/lcd.c:447
    bd8a:	42bd      	cmp	r5, r7
    bd8c:	dd05      	ble.n	bd9a <LCD_DrawLine+0x96>
D:\zhangqiang\毕设\experiment\UE\User_NB-IoT_Frame(KL36)(A.50)-190816\Debug/../05_UserBoard/lcd.c:449
    bd8e:	1bed      	subs	r5, r5, r7
D:\zhangqiang\毕设\experiment\UE\User_NB-IoT_Frame(KL36)(A.50)-190816\Debug/../05_UserBoard/lcd.c:450
    bd90:	9b00      	ldr	r3, [sp, #0]
    bd92:	9a03      	ldr	r2, [sp, #12]
    bd94:	4694      	mov	ip, r2
    bd96:	4463      	add	r3, ip
    bd98:	9300      	str	r3, [sp, #0]
D:\zhangqiang\毕设\experiment\UE\User_NB-IoT_Frame(KL36)(A.50)-190816\Debug/../05_UserBoard/lcd.c:452
    bd9a:	42be      	cmp	r6, r7
    bd9c:	dde9      	ble.n	bd72 <LCD_DrawLine+0x6e>
D:\zhangqiang\毕设\experiment\UE\User_NB-IoT_Frame(KL36)(A.50)-190816\Debug/../05_UserBoard/lcd.c:454
    bd9e:	1bf6      	subs	r6, r6, r7
D:\zhangqiang\毕设\experiment\UE\User_NB-IoT_Frame(KL36)(A.50)-190816\Debug/../05_UserBoard/lcd.c:455
    bda0:	9b01      	ldr	r3, [sp, #4]
    bda2:	4453      	add	r3, sl
    bda4:	9301      	str	r3, [sp, #4]
    bda6:	e7e4      	b.n	bd72 <LCD_DrawLine+0x6e>
D:\zhangqiang\毕设\experiment\UE\User_NB-IoT_Frame(KL36)(A.50)-190816\Debug/../05_UserBoard/lcd.c:458
    bda8:	b005      	add	sp, #20
    bdaa:	bc3c      	pop	{r2, r3, r4, r5}
    bdac:	4690      	mov	r8, r2
    bdae:	4699      	mov	r9, r3
    bdb0:	46a2      	mov	sl, r4
    bdb2:	46ab      	mov	fp, r5
    bdb4:	bdf0      	pop	{r4, r5, r6, r7, pc}

0000bdb6 <LCD_ShowCharactor>:
LCD_ShowCharactor():
D:\zhangqiang\毕设\experiment\UE\User_NB-IoT_Frame(KL36)(A.50)-190816\Debug/../05_UserBoard/lcd.c:302
    bdb6:	b5f0      	push	{r4, r5, r6, r7, lr}
    bdb8:	b083      	sub	sp, #12
    bdba:	9200      	str	r2, [sp, #0]
    bdbc:	9301      	str	r3, [sp, #4]
    bdbe:	9f08      	ldr	r7, [sp, #32]
D:\zhangqiang\毕设\experiment\UE\User_NB-IoT_Frame(KL36)(A.50)-190816\Debug/../05_UserBoard/lcd.c:305
    bdc0:	000b      	movs	r3, r1
    bdc2:	330f      	adds	r3, #15
    bdc4:	b29b      	uxth	r3, r3
    bdc6:	0002      	movs	r2, r0
    bdc8:	320f      	adds	r2, #15
    bdca:	b292      	uxth	r2, r2
    bdcc:	f7ff fef0 	bl	bbb0 <Address_set>
    bdd0:	003e      	movs	r6, r7
    bdd2:	3620      	adds	r6, #32
D:\zhangqiang\毕设\experiment\UE\User_NB-IoT_Frame(KL36)(A.50)-190816\Debug/../05_UserBoard/lcd.c:310
    bdd4:	2501      	movs	r5, #1
    bdd6:	e010      	b.n	bdfa <LCD_ShowCharactor+0x44>
D:\zhangqiang\毕设\experiment\UE\User_NB-IoT_Frame(KL36)(A.50)-190816\Debug/../05_UserBoard/lcd.c:314
    bdd8:	9801      	ldr	r0, [sp, #4]
    bdda:	f7ff fe9d 	bl	bb18 <LCD_WR_DATA>
    bdde:	3401      	adds	r4, #1
D:\zhangqiang\毕设\experiment\UE\User_NB-IoT_Frame(KL36)(A.50)-190816\Debug/../05_UserBoard/lcd.c:308 (discriminator 2)
    bde0:	2c08      	cmp	r4, #8
    bde2:	d007      	beq.n	bdf4 <LCD_ShowCharactor+0x3e>
D:\zhangqiang\毕设\experiment\UE\User_NB-IoT_Frame(KL36)(A.50)-190816\Debug/../05_UserBoard/lcd.c:310
    bde4:	783b      	ldrb	r3, [r7, #0]
    bde6:	4123      	asrs	r3, r4
    bde8:	421d      	tst	r5, r3
    bdea:	d0f5      	beq.n	bdd8 <LCD_ShowCharactor+0x22>
D:\zhangqiang\毕设\experiment\UE\User_NB-IoT_Frame(KL36)(A.50)-190816\Debug/../05_UserBoard/lcd.c:311
    bdec:	9800      	ldr	r0, [sp, #0]
    bdee:	f7ff fe93 	bl	bb18 <LCD_WR_DATA>
    bdf2:	e7f4      	b.n	bdde <LCD_ShowCharactor+0x28>
D:\zhangqiang\毕设\experiment\UE\User_NB-IoT_Frame(KL36)(A.50)-190816\Debug/../05_UserBoard/lcd.c:316 (discriminator 2)
    bdf4:	3701      	adds	r7, #1
D:\zhangqiang\毕设\experiment\UE\User_NB-IoT_Frame(KL36)(A.50)-190816\Debug/../05_UserBoard/lcd.c:306 (discriminator 2)
    bdf6:	42be      	cmp	r6, r7
    bdf8:	d001      	beq.n	bdfe <LCD_ShowCharactor+0x48>
D:\zhangqiang\毕设\experiment\UE\User_NB-IoT_Frame(KL36)(A.50)-190816\Debug/../05_UserBoard/lcd.c:302
    bdfa:	2400      	movs	r4, #0
    bdfc:	e7f2      	b.n	bde4 <LCD_ShowCharactor+0x2e>
D:\zhangqiang\毕设\experiment\UE\User_NB-IoT_Frame(KL36)(A.50)-190816\Debug/../05_UserBoard/lcd.c:318
    bdfe:	b003      	add	sp, #12
    be00:	bdf0      	pop	{r4, r5, r6, r7, pc}
	...

0000be04 <LCD_ShowString>:
LCD_ShowString():
D:\zhangqiang\毕设\experiment\UE\User_NB-IoT_Frame(KL36)(A.50)-190816\Debug/../05_UserBoard/lcd.c:331
    be04:	b5f0      	push	{r4, r5, r6, r7, lr}
    be06:	46de      	mov	lr, fp
    be08:	4657      	mov	r7, sl
    be0a:	464e      	mov	r6, r9
    be0c:	4645      	mov	r5, r8
    be0e:	b5e0      	push	{r5, r6, r7, lr}
    be10:	b087      	sub	sp, #28
    be12:	4680      	mov	r8, r0
    be14:	9105      	str	r1, [sp, #20]
    be16:	9203      	str	r2, [sp, #12]
    be18:	9304      	str	r3, [sp, #16]
    be1a:	9e10      	ldr	r6, [sp, #64]	; 0x40
D:\zhangqiang\毕设\experiment\UE\User_NB-IoT_Frame(KL36)(A.50)-190816\Debug/../05_UserBoard/lcd.c:335
    be1c:	7833      	ldrb	r3, [r6, #0]
    be1e:	2b00      	cmp	r3, #0
    be20:	d067      	beq.n	bef2 <LCD_ShowString+0xee>
D:\zhangqiang\毕设\experiment\UE\User_NB-IoT_Frame(KL36)(A.50)-190816\Debug/../05_UserBoard/lcd.c:334
    be22:	2300      	movs	r3, #0
    be24:	469b      	mov	fp, r3
D:\zhangqiang\毕设\experiment\UE\User_NB-IoT_Frame(KL36)(A.50)-190816\Debug/../05_UserBoard/lcd.c:341
    be26:	000b      	movs	r3, r1
    be28:	330f      	adds	r3, #15
    be2a:	b29b      	uxth	r3, r3
    be2c:	4699      	mov	r9, r3
    be2e:	e036      	b.n	be9e <LCD_ShowString+0x9a>
    be30:	465b      	mov	r3, fp
    be32:	00d8      	lsls	r0, r3, #3
    be34:	4440      	add	r0, r8
    be36:	b280      	uxth	r0, r0
    be38:	1dc2      	adds	r2, r0, #7
    be3a:	b292      	uxth	r2, r2
    be3c:	464b      	mov	r3, r9
    be3e:	9905      	ldr	r1, [sp, #20]
    be40:	f7ff feb6 	bl	bbb0 <Address_set>
D:\zhangqiang\毕设\experiment\UE\User_NB-IoT_Frame(KL36)(A.50)-190816\Debug/../05_UserBoard/lcd.c:342
    be44:	7835      	ldrb	r5, [r6, #0]
    be46:	3d20      	subs	r5, #32
    be48:	012d      	lsls	r5, r5, #4
    be4a:	4b2d      	ldr	r3, [pc, #180]	; (bf00 <LCD_ShowString+0xfc>)
    be4c:	18ed      	adds	r5, r5, r3
    be4e:	2310      	movs	r3, #16
    be50:	469a      	mov	sl, r3
    be52:	44aa      	add	sl, r5
D:\zhangqiang\毕设\experiment\UE\User_NB-IoT_Frame(KL36)(A.50)-190816\Debug/../05_UserBoard/lcd.c:347
    be54:	2701      	movs	r7, #1
    be56:	e010      	b.n	be7a <LCD_ShowString+0x76>
D:\zhangqiang\毕设\experiment\UE\User_NB-IoT_Frame(KL36)(A.50)-190816\Debug/../05_UserBoard/lcd.c:353
    be58:	9804      	ldr	r0, [sp, #16]
    be5a:	f7ff fe5d 	bl	bb18 <LCD_WR_DATA>
    be5e:	3401      	adds	r4, #1
D:\zhangqiang\毕设\experiment\UE\User_NB-IoT_Frame(KL36)(A.50)-190816\Debug/../05_UserBoard/lcd.c:345 (discriminator 2)
    be60:	2c08      	cmp	r4, #8
    be62:	d007      	beq.n	be74 <LCD_ShowString+0x70>
D:\zhangqiang\毕设\experiment\UE\User_NB-IoT_Frame(KL36)(A.50)-190816\Debug/../05_UserBoard/lcd.c:347
    be64:	782b      	ldrb	r3, [r5, #0]
    be66:	4123      	asrs	r3, r4
    be68:	421f      	tst	r7, r3
    be6a:	d0f5      	beq.n	be58 <LCD_ShowString+0x54>
D:\zhangqiang\毕设\experiment\UE\User_NB-IoT_Frame(KL36)(A.50)-190816\Debug/../05_UserBoard/lcd.c:349
    be6c:	9803      	ldr	r0, [sp, #12]
    be6e:	f7ff fe53 	bl	bb18 <LCD_WR_DATA>
    be72:	e7f4      	b.n	be5e <LCD_ShowString+0x5a>
D:\zhangqiang\毕设\experiment\UE\User_NB-IoT_Frame(KL36)(A.50)-190816\Debug/../05_UserBoard/lcd.c:356 (discriminator 2)
    be74:	3501      	adds	r5, #1
D:\zhangqiang\毕设\experiment\UE\User_NB-IoT_Frame(KL36)(A.50)-190816\Debug/../05_UserBoard/lcd.c:343 (discriminator 2)
    be76:	4555      	cmp	r5, sl
    be78:	d001      	beq.n	be7e <LCD_ShowString+0x7a>
D:\zhangqiang\毕设\experiment\UE\User_NB-IoT_Frame(KL36)(A.50)-190816\Debug/../05_UserBoard/lcd.c:334
    be7a:	2400      	movs	r4, #0
    be7c:	e7f2      	b.n	be64 <LCD_ShowString+0x60>
D:\zhangqiang\毕设\experiment\UE\User_NB-IoT_Frame(KL36)(A.50)-190816\Debug/../05_UserBoard/lcd.c:358
    be7e:	465b      	mov	r3, fp
    be80:	3301      	adds	r3, #1
    be82:	b2db      	uxtb	r3, r3
    be84:	469b      	mov	fp, r3
    be86:	e005      	b.n	be94 <LCD_ShowString+0x90>
D:\zhangqiang\毕设\experiment\UE\User_NB-IoT_Frame(KL36)(A.50)-190816\Debug/../05_UserBoard/lcd.c:368
    be88:	2af0      	cmp	r2, #240	; 0xf0
    be8a:	d030      	beq.n	beee <LCD_ShowString+0xea>
D:\zhangqiang\毕设\experiment\UE\User_NB-IoT_Frame(KL36)(A.50)-190816\Debug/../05_UserBoard/lcd.c:374
    be8c:	465b      	mov	r3, fp
    be8e:	3301      	adds	r3, #1
    be90:	b2db      	uxtb	r3, r3
    be92:	469b      	mov	fp, r3
D:\zhangqiang\毕设\experiment\UE\User_NB-IoT_Frame(KL36)(A.50)-190816\Debug/../05_UserBoard/lcd.c:376
    be94:	3601      	adds	r6, #1
__enable_irq():
D:\zhangqiang\毕设\experiment\UE\User_NB-IoT_Frame(KL36)(A.50)-190816\02_Core/core_cmFunc.h:333
    be96:	b662      	cpsie	i
LCD_ShowString():
D:\zhangqiang\毕设\experiment\UE\User_NB-IoT_Frame(KL36)(A.50)-190816\Debug/../05_UserBoard/lcd.c:335
    be98:	7833      	ldrb	r3, [r6, #0]
    be9a:	2b00      	cmp	r3, #0
    be9c:	d029      	beq.n	bef2 <LCD_ShowString+0xee>
__disable_irq():
D:\zhangqiang\毕设\experiment\UE\User_NB-IoT_Frame(KL36)(A.50)-190816\02_Core/core_cmFunc.h:344
    be9e:	b672      	cpsid	i
LCD_ShowString():
D:\zhangqiang\毕设\experiment\UE\User_NB-IoT_Frame(KL36)(A.50)-190816\Debug/../05_UserBoard/lcd.c:338
    bea0:	7833      	ldrb	r3, [r6, #0]
    bea2:	001a      	movs	r2, r3
    bea4:	3a20      	subs	r2, #32
    bea6:	2a5e      	cmp	r2, #94	; 0x5e
    bea8:	d9c2      	bls.n	be30 <LCD_ShowString+0x2c>
D:\zhangqiang\毕设\experiment\UE\User_NB-IoT_Frame(KL36)(A.50)-190816\Debug/../05_UserBoard/lcd.c:360
    beaa:	2b7e      	cmp	r3, #126	; 0x7e
    beac:	d9f2      	bls.n	be94 <LCD_ShowString+0x90>
D:\zhangqiang\毕设\experiment\UE\User_NB-IoT_Frame(KL36)(A.50)-190816\Debug/../05_UserBoard/lcd.c:365
    beae:	7872      	ldrb	r2, [r6, #1]
D:\zhangqiang\毕设\experiment\UE\User_NB-IoT_Frame(KL36)(A.50)-190816\Debug/../05_UserBoard/lcd.c:368
    beb0:	2bbd      	cmp	r3, #189	; 0xbd
    beb2:	d0e9      	beq.n	be88 <LCD_ShowString+0x84>
    beb4:	2bba      	cmp	r3, #186	; 0xba
    beb6:	d103      	bne.n	bec0 <LCD_ShowString+0xbc>
    beb8:	2af9      	cmp	r2, #249	; 0xf9
    beba:	d1e7      	bne.n	be8c <LCD_ShowString+0x88>
D:\zhangqiang\毕设\experiment\UE\User_NB-IoT_Frame(KL36)(A.50)-190816\Debug/../05_UserBoard/lcd.c:366
    bebc:	2201      	movs	r2, #1
    bebe:	e004      	b.n	beca <LCD_ShowString+0xc6>
D:\zhangqiang\毕设\experiment\UE\User_NB-IoT_Frame(KL36)(A.50)-190816\Debug/../05_UserBoard/lcd.c:368
    bec0:	2bc2      	cmp	r3, #194	; 0xc2
    bec2:	d1e3      	bne.n	be8c <LCD_ShowString+0x88>
D:\zhangqiang\毕设\experiment\UE\User_NB-IoT_Frame(KL36)(A.50)-190816\Debug/../05_UserBoard/lcd.c:368 (discriminator 1)
    bec4:	2aab      	cmp	r2, #171	; 0xab
    bec6:	d1e1      	bne.n	be8c <LCD_ShowString+0x88>
D:\zhangqiang\毕设\experiment\UE\User_NB-IoT_Frame(KL36)(A.50)-190816\Debug/../05_UserBoard/lcd.c:366
    bec8:	3aa9      	subs	r2, #169	; 0xa9
D:\zhangqiang\毕设\experiment\UE\User_NB-IoT_Frame(KL36)(A.50)-190816\Debug/../05_UserBoard/lcd.c:370
    beca:	465b      	mov	r3, fp
    becc:	00d8      	lsls	r0, r3, #3
    bece:	4440      	add	r0, r8
    bed0:	b280      	uxth	r0, r0
    bed2:	0113      	lsls	r3, r2, #4
    bed4:	189b      	adds	r3, r3, r2
    bed6:	005b      	lsls	r3, r3, #1
    bed8:	3302      	adds	r3, #2
    beda:	4a0a      	ldr	r2, [pc, #40]	; (bf04 <LCD_ShowString+0x100>)
    bedc:	4694      	mov	ip, r2
    bede:	4463      	add	r3, ip
    bee0:	9300      	str	r3, [sp, #0]
    bee2:	9b04      	ldr	r3, [sp, #16]
    bee4:	9a03      	ldr	r2, [sp, #12]
    bee6:	9905      	ldr	r1, [sp, #20]
    bee8:	f7ff ff65 	bl	bdb6 <LCD_ShowCharactor>
D:\zhangqiang\毕设\experiment\UE\User_NB-IoT_Frame(KL36)(A.50)-190816\Debug/../05_UserBoard/lcd.c:371
    beec:	e7ce      	b.n	be8c <LCD_ShowString+0x88>
D:\zhangqiang\毕设\experiment\UE\User_NB-IoT_Frame(KL36)(A.50)-190816\Debug/../05_UserBoard/lcd.c:366
    beee:	2200      	movs	r2, #0
    bef0:	e7eb      	b.n	beca <LCD_ShowString+0xc6>
D:\zhangqiang\毕设\experiment\UE\User_NB-IoT_Frame(KL36)(A.50)-190816\Debug/../05_UserBoard/lcd.c:379
    bef2:	b007      	add	sp, #28
    bef4:	bc3c      	pop	{r2, r3, r4, r5}
    bef6:	4690      	mov	r8, r2
    bef8:	4699      	mov	r9, r3
    befa:	46a2      	mov	sl, r4
    befc:	46ab      	mov	fp, r5
    befe:	bdf0      	pop	{r4, r5, r6, r7, pc}
    bf00:	0000ddc8 	.word	0x0000ddc8
    bf04:	0000dd60 	.word	0x0000dd60

0000bf08 <LCD_DrawSurface>:
LCD_DrawSurface():
D:\zhangqiang\毕设\experiment\UE\User_NB-IoT_Frame(KL36)(A.50)-190816\Debug/../05_UserBoard/lcd.c:469
    bf08:	b5f0      	push	{r4, r5, r6, r7, lr}
    bf0a:	46d6      	mov	lr, sl
    bf0c:	b500      	push	{lr}
    bf0e:	b082      	sub	sp, #8
    bf10:	4682      	mov	sl, r0
    bf12:	000d      	movs	r5, r1
    bf14:	0017      	movs	r7, r2
    bf16:	001e      	movs	r6, r3
    bf18:	ab08      	add	r3, sp, #32
    bf1a:	881b      	ldrh	r3, [r3, #0]
    bf1c:	9300      	str	r3, [sp, #0]
D:\zhangqiang\毕设\experiment\UE\User_NB-IoT_Frame(KL36)(A.50)-190816\Debug/../05_UserBoard/lcd.c:471
    bf1e:	0033      	movs	r3, r6
    bf20:	f7ff fe46 	bl	bbb0 <Address_set>
D:\zhangqiang\毕设\experiment\UE\User_NB-IoT_Frame(KL36)(A.50)-190816\Debug/../05_UserBoard/lcd.c:474
    bf24:	4653      	mov	r3, sl
    bf26:	9301      	str	r3, [sp, #4]
D:\zhangqiang\毕设\experiment\UE\User_NB-IoT_Frame(KL36)(A.50)-190816\Debug/../05_UserBoard/lcd.c:472
    bf28:	42b5      	cmp	r5, r6
    bf2a:	d90e      	bls.n	bf4a <LCD_DrawSurface+0x42>
D:\zhangqiang\毕设\experiment\UE\User_NB-IoT_Frame(KL36)(A.50)-190816\Debug/../05_UserBoard/lcd.c:476
    bf2c:	b002      	add	sp, #8
    bf2e:	bc04      	pop	{r2}
    bf30:	4692      	mov	sl, r2
    bf32:	bdf0      	pop	{r4, r5, r6, r7, pc}
D:\zhangqiang\毕设\experiment\UE\User_NB-IoT_Frame(KL36)(A.50)-190816\Debug/../05_UserBoard/lcd.c:474 (discriminator 3)
    bf34:	9800      	ldr	r0, [sp, #0]
    bf36:	f7ff fdef 	bl	bb18 <LCD_WR_DATA>
    bf3a:	3401      	adds	r4, #1
    bf3c:	b2a4      	uxth	r4, r4
    bf3e:	42a7      	cmp	r7, r4
    bf40:	d2f8      	bcs.n	bf34 <LCD_DrawSurface+0x2c>
D:\zhangqiang\毕设\experiment\UE\User_NB-IoT_Frame(KL36)(A.50)-190816\Debug/../05_UserBoard/lcd.c:472 (discriminator 2)
    bf42:	3501      	adds	r5, #1
    bf44:	b2ad      	uxth	r5, r5
    bf46:	42ae      	cmp	r6, r5
    bf48:	d3f0      	bcc.n	bf2c <LCD_DrawSurface+0x24>
D:\zhangqiang\毕设\experiment\UE\User_NB-IoT_Frame(KL36)(A.50)-190816\Debug/../05_UserBoard/lcd.c:474
    bf4a:	9c01      	ldr	r4, [sp, #4]
    bf4c:	45ba      	cmp	sl, r7
    bf4e:	d9f1      	bls.n	bf34 <LCD_DrawSurface+0x2c>
    bf50:	e7f7      	b.n	bf42 <LCD_DrawSurface+0x3a>
	...

0000bf54 <LCD_aotu>:
LCD_aotu():
D:\zhangqiang\毕设\experiment\UE\User_NB-IoT_Frame(KL36)(A.50)-190816\Debug/../05_UserBoard/lcd.c:388
    bf54:	b5f0      	push	{r4, r5, r6, r7, lr}
    bf56:	46ce      	mov	lr, r9
    bf58:	4647      	mov	r7, r8
    bf5a:	b580      	push	{r7, lr}
    bf5c:	b085      	sub	sp, #20
    bf5e:	000f      	movs	r7, r1
    bf60:	0016      	movs	r6, r2
    bf62:	001d      	movs	r5, r3
    bf64:	ab0c      	add	r3, sp, #48	; 0x30
    bf66:	781b      	ldrb	r3, [r3, #0]
    bf68:	4698      	mov	r8, r3
D:\zhangqiang\毕设\experiment\UE\User_NB-IoT_Frame(KL36)(A.50)-190816\Debug/../05_UserBoard/lcd.c:392
    bf6a:	4b2d      	ldr	r3, [pc, #180]	; (c020 <LCD_aotu+0xcc>)
    bf6c:	9300      	str	r3, [sp, #0]
    bf6e:	002b      	movs	r3, r5
    bf70:	9003      	str	r0, [sp, #12]
    bf72:	f7ff ffc9 	bl	bf08 <LCD_DrawSurface>
D:\zhangqiang\毕设\experiment\UE\User_NB-IoT_Frame(KL36)(A.50)-190816\Debug/../05_UserBoard/lcd.c:395
    bf76:	2400      	movs	r4, #0
    bf78:	9400      	str	r4, [sp, #0]
    bf7a:	003b      	movs	r3, r7
    bf7c:	0032      	movs	r2, r6
    bf7e:	0039      	movs	r1, r7
    bf80:	9803      	ldr	r0, [sp, #12]
    bf82:	f7ff febf 	bl	bd04 <LCD_DrawLine>
D:\zhangqiang\毕设\experiment\UE\User_NB-IoT_Frame(KL36)(A.50)-190816\Debug/../05_UserBoard/lcd.c:396
    bf86:	9400      	str	r4, [sp, #0]
    bf88:	002b      	movs	r3, r5
    bf8a:	9803      	ldr	r0, [sp, #12]
    bf8c:	0002      	movs	r2, r0
    bf8e:	0039      	movs	r1, r7
    bf90:	f7ff feb8 	bl	bd04 <LCD_DrawLine>
D:\zhangqiang\毕设\experiment\UE\User_NB-IoT_Frame(KL36)(A.50)-190816\Debug/../05_UserBoard/lcd.c:398
    bf94:	9400      	str	r4, [sp, #0]
    bf96:	002b      	movs	r3, r5
    bf98:	0032      	movs	r2, r6
    bf9a:	0039      	movs	r1, r7
    bf9c:	0030      	movs	r0, r6
    bf9e:	f7ff feb1 	bl	bd04 <LCD_DrawLine>
D:\zhangqiang\毕设\experiment\UE\User_NB-IoT_Frame(KL36)(A.50)-190816\Debug/../05_UserBoard/lcd.c:399
    bfa2:	9400      	str	r4, [sp, #0]
    bfa4:	002b      	movs	r3, r5
    bfa6:	0032      	movs	r2, r6
    bfa8:	0029      	movs	r1, r5
    bfaa:	9c03      	ldr	r4, [sp, #12]
    bfac:	0020      	movs	r0, r4
    bfae:	f7ff fea9 	bl	bd04 <LCD_DrawLine>
D:\zhangqiang\毕设\experiment\UE\User_NB-IoT_Frame(KL36)(A.50)-190816\Debug/../05_UserBoard/lcd.c:404
    bfb2:	4643      	mov	r3, r8
    bfb4:	1e5a      	subs	r2, r3, #1
    bfb6:	4193      	sbcs	r3, r2
    bfb8:	425b      	negs	r3, r3
    bfba:	b29b      	uxth	r3, r3
    bfbc:	4699      	mov	r9, r3
D:\zhangqiang\毕设\experiment\UE\User_NB-IoT_Frame(KL36)(A.50)-190816\Debug/../05_UserBoard/lcd.c:406
    bfbe:	3401      	adds	r4, #1
    bfc0:	b2a4      	uxth	r4, r4
    bfc2:	3701      	adds	r7, #1
    bfc4:	b2bf      	uxth	r7, r7
    bfc6:	3e01      	subs	r6, #1
    bfc8:	b2b6      	uxth	r6, r6
    bfca:	9300      	str	r3, [sp, #0]
    bfcc:	003b      	movs	r3, r7
    bfce:	0032      	movs	r2, r6
    bfd0:	0039      	movs	r1, r7
    bfd2:	0020      	movs	r0, r4
    bfd4:	f7ff fe96 	bl	bd04 <LCD_DrawLine>
D:\zhangqiang\毕设\experiment\UE\User_NB-IoT_Frame(KL36)(A.50)-190816\Debug/../05_UserBoard/lcd.c:407
    bfd8:	3d01      	subs	r5, #1
    bfda:	b2ad      	uxth	r5, r5
    bfdc:	464b      	mov	r3, r9
    bfde:	9300      	str	r3, [sp, #0]
    bfe0:	002b      	movs	r3, r5
    bfe2:	0022      	movs	r2, r4
    bfe4:	0039      	movs	r1, r7
    bfe6:	0020      	movs	r0, r4
    bfe8:	f7ff fe8c 	bl	bd04 <LCD_DrawLine>
D:\zhangqiang\毕设\experiment\UE\User_NB-IoT_Frame(KL36)(A.50)-190816\Debug/../05_UserBoard/lcd.c:409
    bfec:	4643      	mov	r3, r8
    bfee:	425a      	negs	r2, r3
    bff0:	4153      	adcs	r3, r2
    bff2:	425b      	negs	r3, r3
    bff4:	b29b      	uxth	r3, r3
    bff6:	4698      	mov	r8, r3
D:\zhangqiang\毕设\experiment\UE\User_NB-IoT_Frame(KL36)(A.50)-190816\Debug/../05_UserBoard/lcd.c:411
    bff8:	9300      	str	r3, [sp, #0]
    bffa:	002b      	movs	r3, r5
    bffc:	0032      	movs	r2, r6
    bffe:	0039      	movs	r1, r7
    c000:	0030      	movs	r0, r6
    c002:	f7ff fe7f 	bl	bd04 <LCD_DrawLine>
D:\zhangqiang\毕设\experiment\UE\User_NB-IoT_Frame(KL36)(A.50)-190816\Debug/../05_UserBoard/lcd.c:412
    c006:	4643      	mov	r3, r8
    c008:	9300      	str	r3, [sp, #0]
    c00a:	002b      	movs	r3, r5
    c00c:	0032      	movs	r2, r6
    c00e:	0029      	movs	r1, r5
    c010:	0020      	movs	r0, r4
    c012:	f7ff fe77 	bl	bd04 <LCD_DrawLine>
D:\zhangqiang\毕设\experiment\UE\User_NB-IoT_Frame(KL36)(A.50)-190816\Debug/../05_UserBoard/lcd.c:414
    c016:	b005      	add	sp, #20
    c018:	bc0c      	pop	{r2, r3}
    c01a:	4690      	mov	r8, r2
    c01c:	4699      	mov	r9, r3
    c01e:	bdf0      	pop	{r4, r5, r6, r7, pc}
    c020:	00008430 	.word	0x00008430

0000c024 <out_char>:
out_char():
D:\zhangqiang\毕设\experiment\UE\User_NB-IoT_Frame(KL36)(A.50)-190816\Debug/../05_UserBoard/printf.c:13
    c024:	b510      	push	{r4, lr}
D:\zhangqiang\毕设\experiment\UE\User_NB-IoT_Frame(KL36)(A.50)-190816\Debug/../05_UserBoard/printf.c:14
    c026:	b2c1      	uxtb	r1, r0
    c028:	4b03      	ldr	r3, [pc, #12]	; (c038 <out_char+0x14>)
    c02a:	681a      	ldr	r2, [r3, #0]
    c02c:	2398      	movs	r3, #152	; 0x98
    c02e:	005b      	lsls	r3, r3, #1
    c030:	58d3      	ldr	r3, [r2, r3]
    c032:	2002      	movs	r0, #2
    c034:	4798      	blx	r3
D:\zhangqiang\毕设\experiment\UE\User_NB-IoT_Frame(KL36)(A.50)-190816\Debug/../05_UserBoard/printf.c:15
    c036:	bd10      	pop	{r4, pc}
    c038:	20000568 	.word	0x20000568

0000c03c <printk_putc>:
printk_putc():
D:\zhangqiang\毕设\experiment\UE\User_NB-IoT_Frame(KL36)(A.50)-190816\Debug/../05_UserBoard/printf.c:23
    c03c:	b510      	push	{r4, lr}
    c03e:	000c      	movs	r4, r1
D:\zhangqiang\毕设\experiment\UE\User_NB-IoT_Frame(KL36)(A.50)-190816\Debug/../05_UserBoard/printf.c:24
    c040:	6813      	ldr	r3, [r2, #0]
    c042:	2b01      	cmp	r3, #1
    c044:	d005      	beq.n	c052 <printk_putc+0x16>
    c046:	2b02      	cmp	r3, #2
    c048:	d007      	beq.n	c05a <printk_putc+0x1e>
D:\zhangqiang\毕设\experiment\UE\User_NB-IoT_Frame(KL36)(A.50)-190816\Debug/../05_UserBoard/printf.c:35
    c04a:	6823      	ldr	r3, [r4, #0]
    c04c:	3301      	adds	r3, #1
    c04e:	6023      	str	r3, [r4, #0]
D:\zhangqiang\毕设\experiment\UE\User_NB-IoT_Frame(KL36)(A.50)-190816\Debug/../05_UserBoard/printf.c:36
    c050:	bd10      	pop	{r4, pc}
D:\zhangqiang\毕设\experiment\UE\User_NB-IoT_Frame(KL36)(A.50)-190816\Debug/../05_UserBoard/printf.c:26
    c052:	b240      	sxtb	r0, r0
    c054:	6853      	ldr	r3, [r2, #4]
    c056:	4798      	blx	r3
D:\zhangqiang\毕设\experiment\UE\User_NB-IoT_Frame(KL36)(A.50)-190816\Debug/../05_UserBoard/printf.c:27
    c058:	e7f7      	b.n	c04a <printk_putc+0xe>
D:\zhangqiang\毕设\experiment\UE\User_NB-IoT_Frame(KL36)(A.50)-190816\Debug/../05_UserBoard/printf.c:29
    c05a:	6893      	ldr	r3, [r2, #8]
    c05c:	7018      	strb	r0, [r3, #0]
D:\zhangqiang\毕设\experiment\UE\User_NB-IoT_Frame(KL36)(A.50)-190816\Debug/../05_UserBoard/printf.c:30
    c05e:	6893      	ldr	r3, [r2, #8]
    c060:	3301      	adds	r3, #1
    c062:	6093      	str	r3, [r2, #8]
D:\zhangqiang\毕设\experiment\UE\User_NB-IoT_Frame(KL36)(A.50)-190816\Debug/../05_UserBoard/printf.c:31
    c064:	e7f1      	b.n	c04a <printk_putc+0xe>

0000c066 <printk_mknumstr>:
printk_mknumstr():
D:\zhangqiang\毕设\experiment\UE\User_NB-IoT_Frame(KL36)(A.50)-190816\Debug/../05_UserBoard/printf.c:125
    c066:	b5f0      	push	{r4, r5, r6, r7, lr}
    c068:	46ce      	mov	lr, r9
    c06a:	b500      	push	{lr}
    c06c:	b082      	sub	sp, #8
    c06e:	0007      	movs	r7, r0
    c070:	001c      	movs	r4, r3
D:\zhangqiang\毕设\experiment\UE\User_NB-IoT_Frame(KL36)(A.50)-190816\Debug/../05_UserBoard/printf.c:134
    c072:	2300      	movs	r3, #0
    c074:	7003      	strb	r3, [r0, #0]
D:\zhangqiang\毕设\experiment\UE\User_NB-IoT_Frame(KL36)(A.50)-190816\Debug/../05_UserBoard/printf.c:136
    c076:	2a00      	cmp	r2, #0
    c078:	d021      	beq.n	c0be <printk_mknumstr+0x58>
D:\zhangqiang\毕设\experiment\UE\User_NB-IoT_Frame(KL36)(A.50)-190816\Debug/../05_UserBoard/printf.c:137
    c07a:	680d      	ldr	r5, [r1, #0]
    c07c:	2601      	movs	r6, #1
D:\zhangqiang\毕设\experiment\UE\User_NB-IoT_Frame(KL36)(A.50)-190816\Debug/../05_UserBoard/printf.c:147
    c07e:	3330      	adds	r3, #48	; 0x30
    c080:	4699      	mov	r9, r3
D:\zhangqiang\毕设\experiment\UE\User_NB-IoT_Frame(KL36)(A.50)-190816\Debug/../05_UserBoard/printf.c:138
    c082:	2d00      	cmp	r5, #0
    c084:	d10b      	bne.n	c09e <printk_mknumstr+0x38>
D:\zhangqiang\毕设\experiment\UE\User_NB-IoT_Frame(KL36)(A.50)-190816\Debug/../05_UserBoard/printf.c:139
    c086:	7043      	strb	r3, [r0, #1]
D:\zhangqiang\毕设\experiment\UE\User_NB-IoT_Frame(KL36)(A.50)-190816\Debug/../05_UserBoard/printf.c:140
    c088:	2001      	movs	r0, #1
D:\zhangqiang\毕设\experiment\UE\User_NB-IoT_Frame(KL36)(A.50)-190816\Debug/../05_UserBoard/printf.c:176
    c08a:	b002      	add	sp, #8
    c08c:	bc04      	pop	{r2}
    c08e:	4691      	mov	r9, r2
    c090:	bdf0      	pop	{r4, r5, r6, r7, pc}
D:\zhangqiang\毕设\experiment\UE\User_NB-IoT_Frame(KL36)(A.50)-190816\Debug/../05_UserBoard/printf.c:152
    c092:	55bb      	strb	r3, [r7, r6]
D:\zhangqiang\毕设\experiment\UE\User_NB-IoT_Frame(KL36)(A.50)-190816\Debug/../05_UserBoard/printf.c:153
    c094:	0030      	movs	r0, r6
    c096:	3601      	adds	r6, #1
D:\zhangqiang\毕设\experiment\UE\User_NB-IoT_Frame(KL36)(A.50)-190816\Debug/../05_UserBoard/printf.c:151
    c098:	9d01      	ldr	r5, [sp, #4]
D:\zhangqiang\毕设\experiment\UE\User_NB-IoT_Frame(KL36)(A.50)-190816\Debug/../05_UserBoard/printf.c:143
    c09a:	2d00      	cmp	r5, #0
    c09c:	d0f5      	beq.n	c08a <printk_mknumstr+0x24>
D:\zhangqiang\毕设\experiment\UE\User_NB-IoT_Frame(KL36)(A.50)-190816\Debug/../05_UserBoard/printf.c:144
    c09e:	0021      	movs	r1, r4
    c0a0:	0028      	movs	r0, r5
    c0a2:	f7fa fec5 	bl	6e30 <__divsi3>
    c0a6:	9001      	str	r0, [sp, #4]
    c0a8:	0021      	movs	r1, r4
    c0aa:	0028      	movs	r0, r5
    c0ac:	f7fa ffa6 	bl	6ffc <__aeabi_idivmod>
D:\zhangqiang\毕设\experiment\UE\User_NB-IoT_Frame(KL36)(A.50)-190816\Debug/../05_UserBoard/printf.c:149
    c0b0:	000b      	movs	r3, r1
    c0b2:	3330      	adds	r3, #48	; 0x30
D:\zhangqiang\毕设\experiment\UE\User_NB-IoT_Frame(KL36)(A.50)-190816\Debug/../05_UserBoard/printf.c:146
    c0b4:	2900      	cmp	r1, #0
    c0b6:	daec      	bge.n	c092 <printk_mknumstr+0x2c>
D:\zhangqiang\毕设\experiment\UE\User_NB-IoT_Frame(KL36)(A.50)-190816\Debug/../05_UserBoard/printf.c:147
    c0b8:	464b      	mov	r3, r9
    c0ba:	1a5b      	subs	r3, r3, r1
    c0bc:	e7e9      	b.n	c092 <printk_mknumstr+0x2c>
D:\zhangqiang\毕设\experiment\UE\User_NB-IoT_Frame(KL36)(A.50)-190816\Debug/../05_UserBoard/printf.c:156
    c0be:	680d      	ldr	r5, [r1, #0]
    c0c0:	2601      	movs	r6, #1
D:\zhangqiang\毕设\experiment\UE\User_NB-IoT_Frame(KL36)(A.50)-190816\Debug/../05_UserBoard/printf.c:157
    c0c2:	2d00      	cmp	r5, #0
    c0c4:	d109      	bne.n	c0da <printk_mknumstr+0x74>
D:\zhangqiang\毕设\experiment\UE\User_NB-IoT_Frame(KL36)(A.50)-190816\Debug/../05_UserBoard/printf.c:158
    c0c6:	2330      	movs	r3, #48	; 0x30
    c0c8:	7043      	strb	r3, [r0, #1]
D:\zhangqiang\毕设\experiment\UE\User_NB-IoT_Frame(KL36)(A.50)-190816\Debug/../05_UserBoard/printf.c:159
    c0ca:	2001      	movs	r0, #1
D:\zhangqiang\毕设\experiment\UE\User_NB-IoT_Frame(KL36)(A.50)-190816\Debug/../05_UserBoard/printf.c:160
    c0cc:	e7dd      	b.n	c08a <printk_mknumstr+0x24>
D:\zhangqiang\毕设\experiment\UE\User_NB-IoT_Frame(KL36)(A.50)-190816\Debug/../05_UserBoard/printf.c:171
    c0ce:	55bb      	strb	r3, [r7, r6]
D:\zhangqiang\毕设\experiment\UE\User_NB-IoT_Frame(KL36)(A.50)-190816\Debug/../05_UserBoard/printf.c:172
    c0d0:	0030      	movs	r0, r6
    c0d2:	3601      	adds	r6, #1
D:\zhangqiang\毕设\experiment\UE\User_NB-IoT_Frame(KL36)(A.50)-190816\Debug/../05_UserBoard/printf.c:170
    c0d4:	9d01      	ldr	r5, [sp, #4]
D:\zhangqiang\毕设\experiment\UE\User_NB-IoT_Frame(KL36)(A.50)-190816\Debug/../05_UserBoard/printf.c:162
    c0d6:	2d00      	cmp	r5, #0
    c0d8:	d0d7      	beq.n	c08a <printk_mknumstr+0x24>
D:\zhangqiang\毕设\experiment\UE\User_NB-IoT_Frame(KL36)(A.50)-190816\Debug/../05_UserBoard/printf.c:163
    c0da:	0021      	movs	r1, r4
    c0dc:	0028      	movs	r0, r5
    c0de:	f7fa fe1d 	bl	6d1c <__udivsi3>
    c0e2:	9001      	str	r0, [sp, #4]
    c0e4:	0021      	movs	r1, r4
    c0e6:	0028      	movs	r0, r5
    c0e8:	f7fa fe9e 	bl	6e28 <__aeabi_uidivmod>
D:\zhangqiang\毕设\experiment\UE\User_NB-IoT_Frame(KL36)(A.50)-190816\Debug/../05_UserBoard/printf.c:168
    c0ec:	000b      	movs	r3, r1
    c0ee:	3337      	adds	r3, #55	; 0x37
D:\zhangqiang\毕设\experiment\UE\User_NB-IoT_Frame(KL36)(A.50)-190816\Debug/../05_UserBoard/printf.c:165
    c0f0:	2909      	cmp	r1, #9
    c0f2:	d8ec      	bhi.n	c0ce <printk_mknumstr+0x68>
D:\zhangqiang\毕设\experiment\UE\User_NB-IoT_Frame(KL36)(A.50)-190816\Debug/../05_UserBoard/printf.c:166
    c0f4:	3b07      	subs	r3, #7
    c0f6:	e7ea      	b.n	c0ce <printk_mknumstr+0x68>

0000c0f8 <printk_pad_space>:
printk_pad_space():
D:\zhangqiang\毕设\experiment\UE\User_NB-IoT_Frame(KL36)(A.50)-190816\Debug/../05_UserBoard/printf.c:189
    c0f8:	b5f8      	push	{r3, r4, r5, r6, r7, lr}
    c0fa:	0004      	movs	r4, r0
    c0fc:	000d      	movs	r5, r1
    c0fe:	0017      	movs	r7, r2
    c100:	001e      	movs	r6, r3
D:\zhangqiang\毕设\experiment\UE\User_NB-IoT_Frame(KL36)(A.50)-190816\Debug/../05_UserBoard/printf.c:192
    c102:	4288      	cmp	r0, r1
    c104:	da07      	bge.n	c116 <printk_pad_space+0x1e>
D:\zhangqiang\毕设\experiment\UE\User_NB-IoT_Frame(KL36)(A.50)-190816\Debug/../05_UserBoard/printf.c:193 (discriminator 3)
    c106:	0032      	movs	r2, r6
    c108:	0039      	movs	r1, r7
    c10a:	2020      	movs	r0, #32
    c10c:	f7ff ff96 	bl	c03c <printk_putc>
D:\zhangqiang\毕设\experiment\UE\User_NB-IoT_Frame(KL36)(A.50)-190816\Debug/../05_UserBoard/printf.c:192 (discriminator 3)
    c110:	3401      	adds	r4, #1
    c112:	42a5      	cmp	r5, r4
    c114:	d1f7      	bne.n	c106 <printk_pad_space+0xe>
D:\zhangqiang\毕设\experiment\UE\User_NB-IoT_Frame(KL36)(A.50)-190816\Debug/../05_UserBoard/printf.c:195
    c116:	bdf8      	pop	{r3, r4, r5, r6, r7, pc}

0000c118 <printk_mkfloatstr>:
printk_mkfloatstr():
D:\zhangqiang\毕设\experiment\UE\User_NB-IoT_Frame(KL36)(A.50)-190816\Debug/../05_UserBoard/printf.c:45
    c118:	b5f0      	push	{r4, r5, r6, r7, lr}
    c11a:	46de      	mov	lr, fp
    c11c:	4657      	mov	r7, sl
    c11e:	464e      	mov	r6, r9
    c120:	4645      	mov	r5, r8
    c122:	b5e0      	push	{r5, r6, r7, lr}
    c124:	b09b      	sub	sp, #108	; 0x6c
    c126:	0004      	movs	r4, r0
    c128:	4688      	mov	r8, r1
    c12a:	0017      	movs	r7, r2
D:\zhangqiang\毕设\experiment\UE\User_NB-IoT_Frame(KL36)(A.50)-190816\Debug/../05_UserBoard/printf.c:46
    c12c:	2214      	movs	r2, #20
    c12e:	2100      	movs	r1, #0
    c130:	a815      	add	r0, sp, #84	; 0x54
    c132:	f001 fada 	bl	d6ea <memset>
    c136:	224c      	movs	r2, #76	; 0x4c
    c138:	2100      	movs	r1, #0
    c13a:	a802      	add	r0, sp, #8
    c13c:	f001 fad5 	bl	d6ea <memset>
D:\zhangqiang\毕设\experiment\UE\User_NB-IoT_Frame(KL36)(A.50)-190816\Debug/../05_UserBoard/printf.c:53
    c140:	6865      	ldr	r5, [r4, #4]
    c142:	6824      	ldr	r4, [r4, #0]
    c144:	0020      	movs	r0, r4
    c146:	0029      	movs	r1, r5
    c148:	f7fb f838 	bl	71bc <__aeabi_d2uiz>
    c14c:	0006      	movs	r6, r0
D:\zhangqiang\毕设\experiment\UE\User_NB-IoT_Frame(KL36)(A.50)-190816\Debug/../05_UserBoard/printf.c:54
    c14e:	f7fd fc17 	bl	9980 <__aeabi_ui2d>
    c152:	0002      	movs	r2, r0
    c154:	000b      	movs	r3, r1
    c156:	0020      	movs	r0, r4
    c158:	0029      	movs	r1, r5
    c15a:	f7fd f83d 	bl	91d8 <__aeabi_dsub>
    c15e:	0004      	movs	r4, r0
    c160:	000d      	movs	r5, r1
D:\zhangqiang\毕设\experiment\UE\User_NB-IoT_Frame(KL36)(A.50)-190816\Debug/../05_UserBoard/printf.c:55
    c162:	2f00      	cmp	r7, #0
    c164:	d00b      	beq.n	c17e <printk_mkfloatstr+0x66>
D:\zhangqiang\毕设\experiment\UE\User_NB-IoT_Frame(KL36)(A.50)-190816\Debug/../05_UserBoard/printf.c:59
    c166:	3f01      	subs	r7, #1
D:\zhangqiang\毕设\experiment\UE\User_NB-IoT_Frame(KL36)(A.50)-190816\Debug/../05_UserBoard/printf.c:60
    c168:	2200      	movs	r2, #0
    c16a:	4b57      	ldr	r3, [pc, #348]	; (c2c8 <printk_mkfloatstr+0x1b0>)
    c16c:	f7fc fdc2 	bl	8cf4 <__aeabi_dmul>
D:\zhangqiang\毕设\experiment\UE\User_NB-IoT_Frame(KL36)(A.50)-190816\Debug/../05_UserBoard/printf.c:59
    c170:	3f01      	subs	r7, #1
    c172:	d2f9      	bcs.n	c168 <printk_mkfloatstr+0x50>
D:\zhangqiang\毕设\experiment\UE\User_NB-IoT_Frame(KL36)(A.50)-190816\Debug/../05_UserBoard/printf.c:61
    c174:	f7fb f840 	bl	71f8 <__aeabi_d2ulz>
    c178:	9000      	str	r0, [sp, #0]
    c17a:	9101      	str	r1, [sp, #4]
    c17c:	e007      	b.n	c18e <printk_mkfloatstr+0x76>
D:\zhangqiang\毕设\experiment\UE\User_NB-IoT_Frame(KL36)(A.50)-190816\Debug/../05_UserBoard/printf.c:56
    c17e:	4a53      	ldr	r2, [pc, #332]	; (c2cc <printk_mkfloatstr+0x1b4>)
    c180:	4b53      	ldr	r3, [pc, #332]	; (c2d0 <printk_mkfloatstr+0x1b8>)
    c182:	f7fc fdb7 	bl	8cf4 <__aeabi_dmul>
    c186:	f7fb f837 	bl	71f8 <__aeabi_d2ulz>
    c18a:	9000      	str	r0, [sp, #0]
    c18c:	9101      	str	r1, [sp, #4]
D:\zhangqiang\毕设\experiment\UE\User_NB-IoT_Frame(KL36)(A.50)-190816\Debug/../05_UserBoard/printf.c:65
    c18e:	2200      	movs	r2, #0
    c190:	4b50      	ldr	r3, [pc, #320]	; (c2d4 <printk_mkfloatstr+0x1bc>)
    c192:	0020      	movs	r0, r4
    c194:	0029      	movs	r1, r5
    c196:	f7fa ff4d 	bl	7034 <__aeabi_dcmplt>
D:\zhangqiang\毕设\experiment\UE\User_NB-IoT_Frame(KL36)(A.50)-190816\Debug/../05_UserBoard/printf.c:64
    c19a:	2700      	movs	r7, #0
D:\zhangqiang\毕设\experiment\UE\User_NB-IoT_Frame(KL36)(A.50)-190816\Debug/../05_UserBoard/printf.c:65
    c19c:	2800      	cmp	r0, #0
    c19e:	d05d      	beq.n	c25c <printk_mkfloatstr+0x144>
D:\zhangqiang\毕设\experiment\UE\User_NB-IoT_Frame(KL36)(A.50)-190816\Debug/../05_UserBoard/printf.c:67
    c1a0:	2200      	movs	r2, #0
    c1a2:	4b49      	ldr	r3, [pc, #292]	; (c2c8 <printk_mkfloatstr+0x1b0>)
    c1a4:	0020      	movs	r0, r4
    c1a6:	0029      	movs	r1, r5
    c1a8:	f7fc fda4 	bl	8cf4 <__aeabi_dmul>
    c1ac:	0004      	movs	r4, r0
    c1ae:	000d      	movs	r5, r1
D:\zhangqiang\毕设\experiment\UE\User_NB-IoT_Frame(KL36)(A.50)-190816\Debug/../05_UserBoard/printf.c:68
    c1b0:	3701      	adds	r7, #1
D:\zhangqiang\毕设\experiment\UE\User_NB-IoT_Frame(KL36)(A.50)-190816\Debug/../05_UserBoard/printf.c:65
    c1b2:	2200      	movs	r2, #0
    c1b4:	4b47      	ldr	r3, [pc, #284]	; (c2d4 <printk_mkfloatstr+0x1bc>)
    c1b6:	f7fa ff3d 	bl	7034 <__aeabi_dcmplt>
    c1ba:	2800      	cmp	r0, #0
    c1bc:	d1f0      	bne.n	c1a0 <printk_mkfloatstr+0x88>
D:\zhangqiang\毕设\experiment\UE\User_NB-IoT_Frame(KL36)(A.50)-190816\Debug/../05_UserBoard/printf.c:73
    c1be:	2e00      	cmp	r6, #0
    c1c0:	d14e      	bne.n	c260 <printk_mkfloatstr+0x148>
D:\zhangqiang\毕设\experiment\UE\User_NB-IoT_Frame(KL36)(A.50)-190816\Debug/../05_UserBoard/printf.c:74
    c1c2:	2330      	movs	r3, #48	; 0x30
    c1c4:	4642      	mov	r2, r8
    c1c6:	7013      	strb	r3, [r2, #0]
    c1c8:	2401      	movs	r4, #1
D:\zhangqiang\毕设\experiment\UE\User_NB-IoT_Frame(KL36)(A.50)-190816\Debug/../05_UserBoard/printf.c:89
    c1ca:	1c63      	adds	r3, r4, #1
    c1cc:	469a      	mov	sl, r3
    c1ce:	232e      	movs	r3, #46	; 0x2e
    c1d0:	4642      	mov	r2, r8
    c1d2:	5513      	strb	r3, [r2, r4]
D:\zhangqiang\毕设\experiment\UE\User_NB-IoT_Frame(KL36)(A.50)-190816\Debug/../05_UserBoard/printf.c:90
    c1d4:	9b00      	ldr	r3, [sp, #0]
    c1d6:	9a01      	ldr	r2, [sp, #4]
    c1d8:	4313      	orrs	r3, r2
    c1da:	d064      	beq.n	c2a6 <printk_mkfloatstr+0x18e>
    c1dc:	ac02      	add	r4, sp, #8
D:\zhangqiang\毕设\experiment\UE\User_NB-IoT_Frame(KL36)(A.50)-190816\Debug/../05_UserBoard/printf.c:94
    c1de:	2600      	movs	r6, #0
    c1e0:	46b9      	mov	r9, r7
    c1e2:	0037      	movs	r7, r6
    c1e4:	0026      	movs	r6, r4
    c1e6:	9d00      	ldr	r5, [sp, #0]
    c1e8:	9c01      	ldr	r4, [sp, #4]
D:\zhangqiang\毕设\experiment\UE\User_NB-IoT_Frame(KL36)(A.50)-190816\Debug/../05_UserBoard/printf.c:98
    c1ea:	3701      	adds	r7, #1
    c1ec:	220a      	movs	r2, #10
    c1ee:	2300      	movs	r3, #0
    c1f0:	0028      	movs	r0, r5
    c1f2:	0021      	movs	r1, r4
    c1f4:	f7fa ff80 	bl	70f8 <__aeabi_uldivmod>
    c1f8:	c604      	stmia	r6!, {r2}
D:\zhangqiang\毕设\experiment\UE\User_NB-IoT_Frame(KL36)(A.50)-190816\Debug/../05_UserBoard/printf.c:99
    c1fa:	220a      	movs	r2, #10
    c1fc:	2300      	movs	r3, #0
    c1fe:	0028      	movs	r0, r5
    c200:	0021      	movs	r1, r4
    c202:	f7fa ff79 	bl	70f8 <__aeabi_uldivmod>
    c206:	0005      	movs	r5, r0
    c208:	000c      	movs	r4, r1
D:\zhangqiang\毕设\experiment\UE\User_NB-IoT_Frame(KL36)(A.50)-190816\Debug/../05_UserBoard/printf.c:96
    c20a:	4301      	orrs	r1, r0
    c20c:	d1ed      	bne.n	c1ea <printk_mkfloatstr+0xd2>
    c20e:	003e      	movs	r6, r7
    c210:	464f      	mov	r7, r9
D:\zhangqiang\毕设\experiment\UE\User_NB-IoT_Frame(KL36)(A.50)-190816\Debug/../05_UserBoard/printf.c:70
    c212:	1e79      	subs	r1, r7, #1
D:\zhangqiang\毕设\experiment\UE\User_NB-IoT_Frame(KL36)(A.50)-190816\Debug/../05_UserBoard/printf.c:101
    c214:	2900      	cmp	r1, #0
    c216:	d00c      	beq.n	c232 <printk_mkfloatstr+0x11a>
    c218:	00b3      	lsls	r3, r6, #2
    c21a:	aa02      	add	r2, sp, #8
    c21c:	4694      	mov	ip, r2
    c21e:	4463      	add	r3, ip
    c220:	19f7      	adds	r7, r6, r7
    c222:	00bf      	lsls	r7, r7, #2
    c224:	3a04      	subs	r2, #4
    c226:	18bf      	adds	r7, r7, r2
D:\zhangqiang\毕设\experiment\UE\User_NB-IoT_Frame(KL36)(A.50)-190816\Debug/../05_UserBoard/printf.c:103
    c228:	2200      	movs	r2, #0
    c22a:	c304      	stmia	r3!, {r2}
D:\zhangqiang\毕设\experiment\UE\User_NB-IoT_Frame(KL36)(A.50)-190816\Debug/../05_UserBoard/printf.c:101
    c22c:	429f      	cmp	r7, r3
    c22e:	d1fc      	bne.n	c22a <printk_mkfloatstr+0x112>
    c230:	1876      	adds	r6, r6, r1
D:\zhangqiang\毕设\experiment\UE\User_NB-IoT_Frame(KL36)(A.50)-190816\Debug/../05_UserBoard/printf.c:106
    c232:	2e00      	cmp	r6, #0
    c234:	d046      	beq.n	c2c4 <printk_mkfloatstr+0x1ac>
    c236:	4b28      	ldr	r3, [pc, #160]	; (c2d8 <printk_mkfloatstr+0x1c0>)
    c238:	18f3      	adds	r3, r6, r3
    c23a:	009b      	lsls	r3, r3, #2
    c23c:	aa02      	add	r2, sp, #8
    c23e:	4694      	mov	ip, r2
    c240:	4463      	add	r3, ip
    c242:	4641      	mov	r1, r8
    c244:	4451      	add	r1, sl
    c246:	1f10      	subs	r0, r2, #4
D:\zhangqiang\毕设\experiment\UE\User_NB-IoT_Frame(KL36)(A.50)-190816\Debug/../05_UserBoard/printf.c:108
    c248:	681a      	ldr	r2, [r3, #0]
    c24a:	3230      	adds	r2, #48	; 0x30
    c24c:	700a      	strb	r2, [r1, #0]
    c24e:	3b04      	subs	r3, #4
    c250:	3101      	adds	r1, #1
D:\zhangqiang\毕设\experiment\UE\User_NB-IoT_Frame(KL36)(A.50)-190816\Debug/../05_UserBoard/printf.c:106
    c252:	4298      	cmp	r0, r3
    c254:	d1f8      	bne.n	c248 <printk_mkfloatstr+0x130>
    c256:	0030      	movs	r0, r6
    c258:	4450      	add	r0, sl
    c25a:	e029      	b.n	c2b0 <printk_mkfloatstr+0x198>
D:\zhangqiang\毕设\experiment\UE\User_NB-IoT_Frame(KL36)(A.50)-190816\Debug/../05_UserBoard/printf.c:64
    c25c:	2700      	movs	r7, #0
    c25e:	e7ae      	b.n	c1be <printk_mkfloatstr+0xa6>
    c260:	ab15      	add	r3, sp, #84	; 0x54
D:\zhangqiang\毕设\experiment\UE\User_NB-IoT_Frame(KL36)(A.50)-190816\Debug/../05_UserBoard/printf.c:77
    c262:	2500      	movs	r5, #0
    c264:	46b9      	mov	r9, r7
    c266:	001c      	movs	r4, r3
    c268:	e000      	b.n	c26c <printk_mkfloatstr+0x154>
D:\zhangqiang\毕设\experiment\UE\User_NB-IoT_Frame(KL36)(A.50)-190816\Debug/../05_UserBoard/printf.c:80
    c26a:	003d      	movs	r5, r7
    c26c:	1c6f      	adds	r7, r5, #1
    c26e:	210a      	movs	r1, #10
    c270:	0030      	movs	r0, r6
    c272:	f7fa fdd9 	bl	6e28 <__aeabi_uidivmod>
    c276:	c402      	stmia	r4!, {r1}
D:\zhangqiang\毕设\experiment\UE\User_NB-IoT_Frame(KL36)(A.50)-190816\Debug/../05_UserBoard/printf.c:81
    c278:	210a      	movs	r1, #10
    c27a:	0030      	movs	r0, r6
    c27c:	f7fa fd4e 	bl	6d1c <__udivsi3>
    c280:	1e06      	subs	r6, r0, #0
D:\zhangqiang\毕设\experiment\UE\User_NB-IoT_Frame(KL36)(A.50)-190816\Debug/../05_UserBoard/printf.c:78
    c282:	d1f2      	bne.n	c26a <printk_mkfloatstr+0x152>
    c284:	1e3c      	subs	r4, r7, #0
    c286:	464f      	mov	r7, r9
D:\zhangqiang\毕设\experiment\UE\User_NB-IoT_Frame(KL36)(A.50)-190816\Debug/../05_UserBoard/printf.c:83
    c288:	d09f      	beq.n	c1ca <printk_mkfloatstr+0xb2>
    c28a:	00a9      	lsls	r1, r5, #2
    c28c:	ab15      	add	r3, sp, #84	; 0x54
    c28e:	469c      	mov	ip, r3
    c290:	4461      	add	r1, ip
    c292:	4643      	mov	r3, r8
    c294:	18e0      	adds	r0, r4, r3
D:\zhangqiang\毕设\experiment\UE\User_NB-IoT_Frame(KL36)(A.50)-190816\Debug/../05_UserBoard/printf.c:85
    c296:	680a      	ldr	r2, [r1, #0]
    c298:	3230      	adds	r2, #48	; 0x30
    c29a:	701a      	strb	r2, [r3, #0]
    c29c:	3904      	subs	r1, #4
    c29e:	3301      	adds	r3, #1
D:\zhangqiang\毕设\experiment\UE\User_NB-IoT_Frame(KL36)(A.50)-190816\Debug/../05_UserBoard/printf.c:83
    c2a0:	4283      	cmp	r3, r0
    c2a2:	d1f8      	bne.n	c296 <printk_mkfloatstr+0x17e>
    c2a4:	e791      	b.n	c1ca <printk_mkfloatstr+0xb2>
D:\zhangqiang\毕设\experiment\UE\User_NB-IoT_Frame(KL36)(A.50)-190816\Debug/../05_UserBoard/printf.c:91
    c2a6:	1ca0      	adds	r0, r4, #2
    c2a8:	3330      	adds	r3, #48	; 0x30
    c2aa:	4642      	mov	r2, r8
    c2ac:	4651      	mov	r1, sl
    c2ae:	5453      	strb	r3, [r2, r1]
D:\zhangqiang\毕设\experiment\UE\User_NB-IoT_Frame(KL36)(A.50)-190816\Debug/../05_UserBoard/printf.c:112
    c2b0:	2300      	movs	r3, #0
    c2b2:	4642      	mov	r2, r8
    c2b4:	5413      	strb	r3, [r2, r0]
D:\zhangqiang\毕设\experiment\UE\User_NB-IoT_Frame(KL36)(A.50)-190816\Debug/../05_UserBoard/printf.c:114
    c2b6:	b01b      	add	sp, #108	; 0x6c
    c2b8:	bc3c      	pop	{r2, r3, r4, r5}
    c2ba:	4690      	mov	r8, r2
    c2bc:	4699      	mov	r9, r3
    c2be:	46a2      	mov	sl, r4
    c2c0:	46ab      	mov	fp, r5
    c2c2:	bdf0      	pop	{r4, r5, r6, r7, pc}
D:\zhangqiang\毕设\experiment\UE\User_NB-IoT_Frame(KL36)(A.50)-190816\Debug/../05_UserBoard/printf.c:89
    c2c4:	4650      	mov	r0, sl
    c2c6:	e7f3      	b.n	c2b0 <printk_mkfloatstr+0x198>
    c2c8:	40240000 	.word	0x40240000
    c2cc:	85d8a000 	.word	0x85d8a000
    c2d0:	43763457 	.word	0x43763457
    c2d4:	3ff00000 	.word	0x3ff00000
    c2d8:	3fffffff 	.word	0x3fffffff

0000c2dc <printk>:
printk():
D:\zhangqiang\毕设\experiment\UE\User_NB-IoT_Frame(KL36)(A.50)-190816\Debug/../05_UserBoard/printf.c:205
    c2dc:	b5f0      	push	{r4, r5, r6, r7, lr}
    c2de:	46de      	mov	lr, fp
    c2e0:	4657      	mov	r7, sl
    c2e2:	464e      	mov	r6, r9
    c2e4:	4645      	mov	r5, r8
    c2e6:	b5e0      	push	{r5, r6, r7, lr}
    c2e8:	b099      	sub	sp, #100	; 0x64
    c2ea:	9001      	str	r0, [sp, #4]
    c2ec:	000e      	movs	r6, r1
    c2ee:	4693      	mov	fp, r2
D:\zhangqiang\毕设\experiment\UE\User_NB-IoT_Frame(KL36)(A.50)-190816\Debug/../05_UserBoard/printf.c:229
    c2f0:	ac0f      	add	r4, sp, #60	; 0x3c
    c2f2:	2221      	movs	r2, #33	; 0x21
    c2f4:	2100      	movs	r1, #0
    c2f6:	0020      	movs	r0, r4
    c2f8:	f001 f9f7 	bl	d6ea <memset>
    c2fc:	2330      	movs	r3, #48	; 0x30
    c2fe:	7023      	strb	r3, [r4, #0]
D:\zhangqiang\毕设\experiment\UE\User_NB-IoT_Frame(KL36)(A.50)-190816\Debug/../05_UserBoard/printf.c:250
    c300:	2300      	movs	r3, #0
    c302:	930e      	str	r3, [sp, #56]	; 0x38
D:\zhangqiang\毕设\experiment\UE\User_NB-IoT_Frame(KL36)(A.50)-190816\Debug/../05_UserBoard/printf.c:254
    c304:	2000      	movs	r0, #0
    c306:	5630      	ldrsb	r0, [r6, r0]
    c308:	2800      	cmp	r0, #0
    c30a:	d100      	bne.n	c30e <printk+0x32>
    c30c:	e301      	b.n	c912 <printk+0x636>
D:\zhangqiang\毕设\experiment\UE\User_NB-IoT_Frame(KL36)(A.50)-190816\Debug/../05_UserBoard/printf.c:252
    c30e:	3301      	adds	r3, #1
    c310:	9303      	str	r3, [sp, #12]
D:\zhangqiang\毕设\experiment\UE\User_NB-IoT_Frame(KL36)(A.50)-190816\Debug/../05_UserBoard/printf.c:251
    c312:	2300      	movs	r3, #0
    c314:	9302      	str	r3, [sp, #8]
D:\zhangqiang\毕设\experiment\UE\User_NB-IoT_Frame(KL36)(A.50)-190816\Debug/../05_UserBoard/printf.c:282
    c316:	4bc5      	ldr	r3, [pc, #788]	; (c62c <printk+0x350>)
    c318:	4698      	mov	r8, r3
D:\zhangqiang\毕设\experiment\UE\User_NB-IoT_Frame(KL36)(A.50)-190816\Debug/../05_UserBoard/printf.c:390
    c31a:	0037      	movs	r7, r6
    c31c:	e012      	b.n	c344 <printk+0x68>
D:\zhangqiang\毕设\experiment\UE\User_NB-IoT_Frame(KL36)(A.50)-190816\Debug/../05_UserBoard/printf.c:266
    c31e:	9c01      	ldr	r4, [sp, #4]
    c320:	0022      	movs	r2, r4
    c322:	a90e      	add	r1, sp, #56	; 0x38
    c324:	200d      	movs	r0, #13
    c326:	f7ff fe89 	bl	c03c <printk_putc>
D:\zhangqiang\毕设\experiment\UE\User_NB-IoT_Frame(KL36)(A.50)-190816\Debug/../05_UserBoard/printf.c:267
    c32a:	0022      	movs	r2, r4
    c32c:	a90e      	add	r1, sp, #56	; 0x38
    c32e:	200a      	movs	r0, #10
    c330:	f7ff fe84 	bl	c03c <printk_putc>
    c334:	46ba      	mov	sl, r7
D:\zhangqiang\毕设\experiment\UE\User_NB-IoT_Frame(KL36)(A.50)-190816\Debug/../05_UserBoard/printf.c:254 (discriminator 2)
    c336:	4653      	mov	r3, sl
    c338:	1c5f      	adds	r7, r3, #1
    c33a:	2001      	movs	r0, #1
    c33c:	5618      	ldrsb	r0, [r3, r0]
    c33e:	2800      	cmp	r0, #0
    c340:	d100      	bne.n	c344 <printk+0x68>
    c342:	e2e6      	b.n	c912 <printk+0x636>
D:\zhangqiang\毕设\experiment\UE\User_NB-IoT_Frame(KL36)(A.50)-190816\Debug/../05_UserBoard/printf.c:257
    c344:	2825      	cmp	r0, #37	; 0x25
    c346:	d007      	beq.n	c358 <printk+0x7c>
D:\zhangqiang\毕设\experiment\UE\User_NB-IoT_Frame(KL36)(A.50)-190816\Debug/../05_UserBoard/printf.c:261
    c348:	280a      	cmp	r0, #10
    c34a:	d0e8      	beq.n	c31e <printk+0x42>
D:\zhangqiang\毕设\experiment\UE\User_NB-IoT_Frame(KL36)(A.50)-190816\Debug/../05_UserBoard/printf.c:262
    c34c:	9a01      	ldr	r2, [sp, #4]
    c34e:	a90e      	add	r1, sp, #56	; 0x38
    c350:	f7ff fe74 	bl	c03c <printk_putc>
    c354:	46ba      	mov	sl, r7
    c356:	e7ee      	b.n	c336 <printk+0x5a>
D:\zhangqiang\毕设\experiment\UE\User_NB-IoT_Frame(KL36)(A.50)-190816\Debug/../05_UserBoard/printf.c:279
    c358:	2500      	movs	r5, #0
D:\zhangqiang\毕设\experiment\UE\User_NB-IoT_Frame(KL36)(A.50)-190816\Debug/../05_UserBoard/printf.c:296
    c35a:	2310      	movs	r3, #16
    c35c:	469c      	mov	ip, r3
D:\zhangqiang\毕设\experiment\UE\User_NB-IoT_Frame(KL36)(A.50)-190816\Debug/../05_UserBoard/printf.c:293
    c35e:	3b08      	subs	r3, #8
    c360:	4699      	mov	r9, r3
D:\zhangqiang\毕设\experiment\UE\User_NB-IoT_Frame(KL36)(A.50)-190816\Debug/../05_UserBoard/printf.c:290
    c362:	2604      	movs	r6, #4
D:\zhangqiang\毕设\experiment\UE\User_NB-IoT_Frame(KL36)(A.50)-190816\Debug/../05_UserBoard/printf.c:287
    c364:	2402      	movs	r4, #2
D:\zhangqiang\毕设\experiment\UE\User_NB-IoT_Frame(KL36)(A.50)-190816\Debug/../05_UserBoard/printf.c:284
    c366:	2001      	movs	r0, #1
    c368:	e001      	b.n	c36e <printk+0x92>
    c36a:	4305      	orrs	r5, r0
    c36c:	0017      	movs	r7, r2
D:\zhangqiang\毕设\experiment\UE\User_NB-IoT_Frame(KL36)(A.50)-190816\Debug/../05_UserBoard/printf.c:282
    c36e:	1c7a      	adds	r2, r7, #1
    c370:	787b      	ldrb	r3, [r7, #1]
    c372:	3b20      	subs	r3, #32
    c374:	b2d9      	uxtb	r1, r3
    c376:	2910      	cmp	r1, #16
    c378:	d80d      	bhi.n	c396 <printk+0xba>
    c37a:	008b      	lsls	r3, r1, #2
    c37c:	4641      	mov	r1, r8
    c37e:	58cb      	ldr	r3, [r1, r3]
    c380:	469f      	mov	pc, r3
D:\zhangqiang\毕设\experiment\UE\User_NB-IoT_Frame(KL36)(A.50)-190816\Debug/../05_UserBoard/printf.c:287
    c382:	4325      	orrs	r5, r4
D:\zhangqiang\毕设\experiment\UE\User_NB-IoT_Frame(KL36)(A.50)-190816\Debug/../05_UserBoard/printf.c:288
    c384:	e7f2      	b.n	c36c <printk+0x90>
D:\zhangqiang\毕设\experiment\UE\User_NB-IoT_Frame(KL36)(A.50)-190816\Debug/../05_UserBoard/printf.c:290
    c386:	4335      	orrs	r5, r6
D:\zhangqiang\毕设\experiment\UE\User_NB-IoT_Frame(KL36)(A.50)-190816\Debug/../05_UserBoard/printf.c:291
    c388:	e7f0      	b.n	c36c <printk+0x90>
D:\zhangqiang\毕设\experiment\UE\User_NB-IoT_Frame(KL36)(A.50)-190816\Debug/../05_UserBoard/printf.c:293
    c38a:	464b      	mov	r3, r9
    c38c:	431d      	orrs	r5, r3
D:\zhangqiang\毕设\experiment\UE\User_NB-IoT_Frame(KL36)(A.50)-190816\Debug/../05_UserBoard/printf.c:294
    c38e:	e7ed      	b.n	c36c <printk+0x90>
D:\zhangqiang\毕设\experiment\UE\User_NB-IoT_Frame(KL36)(A.50)-190816\Debug/../05_UserBoard/printf.c:296
    c390:	4663      	mov	r3, ip
    c392:	431d      	orrs	r5, r3
D:\zhangqiang\毕设\experiment\UE\User_NB-IoT_Frame(KL36)(A.50)-190816\Debug/../05_UserBoard/printf.c:297
    c394:	e7ea      	b.n	c36c <printk+0x90>
D:\zhangqiang\毕设\experiment\UE\User_NB-IoT_Frame(KL36)(A.50)-190816\Debug/../05_UserBoard/printf.c:308
    c396:	2400      	movs	r4, #0
    c398:	0023      	movs	r3, r4
    c39a:	e006      	b.n	c3aa <printk+0xce>
D:\zhangqiang\毕设\experiment\UE\User_NB-IoT_Frame(KL36)(A.50)-190816\Debug/../05_UserBoard/printf.c:322
    c39c:	009c      	lsls	r4, r3, #2
    c39e:	18e4      	adds	r4, r4, r3
    c3a0:	0064      	lsls	r4, r4, #1
    c3a2:	000b      	movs	r3, r1
    c3a4:	3b30      	subs	r3, #48	; 0x30
    c3a6:	191b      	adds	r3, r3, r4
D:\zhangqiang\毕设\experiment\UE\User_NB-IoT_Frame(KL36)(A.50)-190816\Debug/../05_UserBoard/printf.c:311
    c3a8:	0007      	movs	r7, r0
    c3aa:	1c78      	adds	r0, r7, #1
    c3ac:	2101      	movs	r1, #1
    c3ae:	5679      	ldrsb	r1, [r7, r1]
    c3b0:	000a      	movs	r2, r1
    c3b2:	3a30      	subs	r2, #48	; 0x30
    c3b4:	b2d2      	uxtb	r2, r2
    c3b6:	2a09      	cmp	r2, #9
    c3b8:	d9f0      	bls.n	c39c <printk+0xc0>
    c3ba:	001c      	movs	r4, r3
D:\zhangqiang\毕设\experiment\UE\User_NB-IoT_Frame(KL36)(A.50)-190816\Debug/../05_UserBoard/printf.c:332
    c3bc:	2301      	movs	r3, #1
    c3be:	56fb      	ldrsb	r3, [r7, r3]
    c3c0:	2b2e      	cmp	r3, #46	; 0x2e
    c3c2:	d019      	beq.n	c3f8 <printk+0x11c>
D:\zhangqiang\毕设\experiment\UE\User_NB-IoT_Frame(KL36)(A.50)-190816\Debug/../05_UserBoard/printf.c:369
    c3c4:	2600      	movs	r6, #0
D:\zhangqiang\毕设\experiment\UE\User_NB-IoT_Frame(KL36)(A.50)-190816\Debug/../05_UserBoard/printf.c:368
    c3c6:	2300      	movs	r3, #0
    c3c8:	9303      	str	r3, [sp, #12]
D:\zhangqiang\毕设\experiment\UE\User_NB-IoT_Frame(KL36)(A.50)-190816\Debug/../05_UserBoard/printf.c:373
    c3ca:	1c7b      	adds	r3, r7, #1
    c3cc:	787a      	ldrb	r2, [r7, #1]
    c3ce:	2a68      	cmp	r2, #104	; 0x68
    c3d0:	d004      	beq.n	c3dc <printk+0x100>
    c3d2:	2a6c      	cmp	r2, #108	; 0x6c
    c3d4:	d025      	beq.n	c422 <printk+0x146>
    c3d6:	2a4c      	cmp	r2, #76	; 0x4c
    c3d8:	d028      	beq.n	c42c <printk+0x150>
D:\zhangqiang\毕设\experiment\UE\User_NB-IoT_Frame(KL36)(A.50)-190816\Debug/../05_UserBoard/printf.c:385
    c3da:	003b      	movs	r3, r7
D:\zhangqiang\毕设\experiment\UE\User_NB-IoT_Frame(KL36)(A.50)-190816\Debug/../05_UserBoard/printf.c:390
    c3dc:	1c5a      	adds	r2, r3, #1
    c3de:	4692      	mov	sl, r2
    c3e0:	2001      	movs	r0, #1
    c3e2:	5618      	ldrsb	r0, [r3, r0]
    c3e4:	0003      	movs	r3, r0
    c3e6:	3b58      	subs	r3, #88	; 0x58
    c3e8:	b2da      	uxtb	r2, r3
    c3ea:	2a20      	cmp	r2, #32
    c3ec:	d900      	bls.n	c3f0 <printk+0x114>
    c3ee:	e252      	b.n	c896 <printk+0x5ba>
    c3f0:	0093      	lsls	r3, r2, #2
    c3f2:	4a8f      	ldr	r2, [pc, #572]	; (c630 <printk+0x354>)
    c3f4:	58d3      	ldr	r3, [r2, r3]
    c3f6:	469f      	mov	pc, r3
D:\zhangqiang\毕设\experiment\UE\User_NB-IoT_Frame(KL36)(A.50)-190816\Debug/../05_UserBoard/printf.c:332
    c3f8:	3701      	adds	r7, #1
D:\zhangqiang\毕设\experiment\UE\User_NB-IoT_Frame(KL36)(A.50)-190816\Debug/../05_UserBoard/printf.c:338
    c3fa:	2600      	movs	r6, #0
    c3fc:	0033      	movs	r3, r6
D:\zhangqiang\毕设\experiment\UE\User_NB-IoT_Frame(KL36)(A.50)-190816\Debug/../05_UserBoard/printf.c:341
    c3fe:	1c79      	adds	r1, r7, #1
    c400:	2001      	movs	r0, #1
    c402:	5638      	ldrsb	r0, [r7, r0]
    c404:	0002      	movs	r2, r0
    c406:	3a30      	subs	r2, #48	; 0x30
    c408:	b2d2      	uxtb	r2, r2
    c40a:	2a09      	cmp	r2, #9
    c40c:	d807      	bhi.n	c41e <printk+0x142>
D:\zhangqiang\毕设\experiment\UE\User_NB-IoT_Frame(KL36)(A.50)-190816\Debug/../05_UserBoard/printf.c:353
    c40e:	009e      	lsls	r6, r3, #2
    c410:	18f6      	adds	r6, r6, r3
    c412:	0076      	lsls	r6, r6, #1
    c414:	0003      	movs	r3, r0
    c416:	3b30      	subs	r3, #48	; 0x30
    c418:	199b      	adds	r3, r3, r6
D:\zhangqiang\毕设\experiment\UE\User_NB-IoT_Frame(KL36)(A.50)-190816\Debug/../05_UserBoard/printf.c:341
    c41a:	000f      	movs	r7, r1
    c41c:	e7ef      	b.n	c3fe <printk+0x122>
    c41e:	001e      	movs	r6, r3
    c420:	e7d3      	b.n	c3ca <printk+0xee>
D:\zhangqiang\毕设\experiment\UE\User_NB-IoT_Frame(KL36)(A.50)-190816\Debug/../05_UserBoard/printf.c:378
    c422:	2201      	movs	r2, #1
    c424:	9902      	ldr	r1, [sp, #8]
    c426:	4311      	orrs	r1, r2
    c428:	9102      	str	r1, [sp, #8]
D:\zhangqiang\毕设\experiment\UE\User_NB-IoT_Frame(KL36)(A.50)-190816\Debug/../05_UserBoard/printf.c:379
    c42a:	e7d7      	b.n	c3dc <printk+0x100>
D:\zhangqiang\毕设\experiment\UE\User_NB-IoT_Frame(KL36)(A.50)-190816\Debug/../05_UserBoard/printf.c:381
    c42c:	2202      	movs	r2, #2
    c42e:	9902      	ldr	r1, [sp, #8]
    c430:	4311      	orrs	r1, r2
    c432:	9102      	str	r1, [sp, #8]
D:\zhangqiang\毕设\experiment\UE\User_NB-IoT_Frame(KL36)(A.50)-190816\Debug/../05_UserBoard/printf.c:382
    c434:	e7d2      	b.n	c3dc <printk+0x100>
D:\zhangqiang\毕设\experiment\UE\User_NB-IoT_Frame(KL36)(A.50)-190816\Debug/../05_UserBoard/printf.c:394
    c436:	465b      	mov	r3, fp
    c438:	3304      	adds	r3, #4
    c43a:	9306      	str	r3, [sp, #24]
    c43c:	465b      	mov	r3, fp
    c43e:	681b      	ldr	r3, [r3, #0]
    c440:	930d      	str	r3, [sp, #52]	; 0x34
D:\zhangqiang\毕设\experiment\UE\User_NB-IoT_Frame(KL36)(A.50)-190816\Debug/../05_UserBoard/printf.c:395
    c442:	230a      	movs	r3, #10
    c444:	2201      	movs	r2, #1
    c446:	a90d      	add	r1, sp, #52	; 0x34
    c448:	a80f      	add	r0, sp, #60	; 0x3c
    c44a:	f7ff fe0c 	bl	c066 <printk_mknumstr>
    c44e:	0007      	movs	r7, r0
D:\zhangqiang\毕设\experiment\UE\User_NB-IoT_Frame(KL36)(A.50)-190816\Debug/../05_UserBoard/printf.c:396
    c450:	ab0f      	add	r3, sp, #60	; 0x3c
    c452:	181e      	adds	r6, r3, r0
D:\zhangqiang\毕设\experiment\UE\User_NB-IoT_Frame(KL36)(A.50)-190816\Debug/../05_UserBoard/printf.c:399
    c454:	9b0d      	ldr	r3, [sp, #52]	; 0x34
    c456:	2b00      	cmp	r3, #0
    c458:	db05      	blt.n	c466 <printk+0x18a>
D:\zhangqiang\毕设\experiment\UE\User_NB-IoT_Frame(KL36)(A.50)-190816\Debug/../05_UserBoard/printf.c:405
    c45a:	07ab      	lsls	r3, r5, #30
    c45c:	d518      	bpl.n	c490 <printk+0x1b4>
D:\zhangqiang\毕设\experiment\UE\User_NB-IoT_Frame(KL36)(A.50)-190816\Debug/../05_UserBoard/printf.c:407
    c45e:	3701      	adds	r7, #1
D:\zhangqiang\毕设\experiment\UE\User_NB-IoT_Frame(KL36)(A.50)-190816\Debug/../05_UserBoard/printf.c:406
    c460:	232b      	movs	r3, #43	; 0x2b
    c462:	4699      	mov	r9, r3
    c464:	e002      	b.n	c46c <printk+0x190>
D:\zhangqiang\毕设\experiment\UE\User_NB-IoT_Frame(KL36)(A.50)-190816\Debug/../05_UserBoard/printf.c:401
    c466:	3701      	adds	r7, #1
D:\zhangqiang\毕设\experiment\UE\User_NB-IoT_Frame(KL36)(A.50)-190816\Debug/../05_UserBoard/printf.c:400
    c468:	232d      	movs	r3, #45	; 0x2d
    c46a:	4699      	mov	r9, r3
D:\zhangqiang\毕设\experiment\UE\User_NB-IoT_Frame(KL36)(A.50)-190816\Debug/../05_UserBoard/printf.c:422
    c46c:	072b      	lsls	r3, r5, #28
    c46e:	d416      	bmi.n	c49e <printk+0x1c2>
D:\zhangqiang\毕设\experiment\UE\User_NB-IoT_Frame(KL36)(A.50)-190816\Debug/../05_UserBoard/printf.c:429
    c470:	07eb      	lsls	r3, r5, #31
    c472:	d528      	bpl.n	c4c6 <printk+0x1ea>
D:\zhangqiang\毕设\experiment\UE\User_NB-IoT_Frame(KL36)(A.50)-190816\Debug/../05_UserBoard/printf.c:394
    c474:	9b06      	ldr	r3, [sp, #24]
    c476:	469b      	mov	fp, r3
D:\zhangqiang\毕设\experiment\UE\User_NB-IoT_Frame(KL36)(A.50)-190816\Debug/../05_UserBoard/printf.c:440
    c478:	464b      	mov	r3, r9
    c47a:	2b00      	cmp	r3, #0
    c47c:	d100      	bne.n	c480 <printk+0x1a4>
    c47e:	e152      	b.n	c726 <printk+0x44a>
D:\zhangqiang\毕设\experiment\UE\User_NB-IoT_Frame(KL36)(A.50)-190816\Debug/../05_UserBoard/printf.c:441
    c480:	9a01      	ldr	r2, [sp, #4]
    c482:	a90e      	add	r1, sp, #56	; 0x38
    c484:	4648      	mov	r0, r9
    c486:	f7ff fdd9 	bl	c03c <printk_putc>
D:\zhangqiang\毕设\experiment\UE\User_NB-IoT_Frame(KL36)(A.50)-190816\Debug/../05_UserBoard/printf.c:394
    c48a:	9b06      	ldr	r3, [sp, #24]
    c48c:	469b      	mov	fp, r3
    c48e:	e14a      	b.n	c726 <printk+0x44a>
D:\zhangqiang\毕设\experiment\UE\User_NB-IoT_Frame(KL36)(A.50)-190816\Debug/../05_UserBoard/printf.c:409
    c490:	076b      	lsls	r3, r5, #29
    c492:	d400      	bmi.n	c496 <printk+0x1ba>
    c494:	e207      	b.n	c8a6 <printk+0x5ca>
D:\zhangqiang\毕设\experiment\UE\User_NB-IoT_Frame(KL36)(A.50)-190816\Debug/../05_UserBoard/printf.c:411
    c496:	3701      	adds	r7, #1
D:\zhangqiang\毕设\experiment\UE\User_NB-IoT_Frame(KL36)(A.50)-190816\Debug/../05_UserBoard/printf.c:410
    c498:	2320      	movs	r3, #32
    c49a:	4699      	mov	r9, r3
    c49c:	e7e6      	b.n	c46c <printk+0x190>
D:\zhangqiang\毕设\experiment\UE\User_NB-IoT_Frame(KL36)(A.50)-190816\Debug/../05_UserBoard/printf.c:424
    c49e:	9a01      	ldr	r2, [sp, #4]
    c4a0:	a90e      	add	r1, sp, #56	; 0x38
    c4a2:	4648      	mov	r0, r9
    c4a4:	f7ff fdca 	bl	c03c <printk_putc>
printk_pad_zero():
D:\zhangqiang\毕设\experiment\UE\User_NB-IoT_Frame(KL36)(A.50)-190816\Debug/../05_UserBoard/printf.c:182
    c4a8:	42bc      	cmp	r4, r7
    c4aa:	dc00      	bgt.n	c4ae <printk+0x1d2>
    c4ac:	e195      	b.n	c7da <printk+0x4fe>
D:\zhangqiang\毕设\experiment\UE\User_NB-IoT_Frame(KL36)(A.50)-190816\Debug/../05_UserBoard/printf.c:183
    c4ae:	9a01      	ldr	r2, [sp, #4]
    c4b0:	a90e      	add	r1, sp, #56	; 0x38
    c4b2:	2030      	movs	r0, #48	; 0x30
    c4b4:	f7ff fdc2 	bl	c03c <printk_putc>
D:\zhangqiang\毕设\experiment\UE\User_NB-IoT_Frame(KL36)(A.50)-190816\Debug/../05_UserBoard/printf.c:182
    c4b8:	3701      	adds	r7, #1
    c4ba:	42a7      	cmp	r7, r4
    c4bc:	d1f7      	bne.n	c4ae <printk+0x1d2>
    c4be:	0027      	movs	r7, r4
printk():
D:\zhangqiang\毕设\experiment\UE\User_NB-IoT_Frame(KL36)(A.50)-190816\Debug/../05_UserBoard/printf.c:394
    c4c0:	9b06      	ldr	r3, [sp, #24]
    c4c2:	469b      	mov	fp, r3
    c4c4:	e166      	b.n	c794 <printk+0x4b8>
D:\zhangqiang\毕设\experiment\UE\User_NB-IoT_Frame(KL36)(A.50)-190816\Debug/../05_UserBoard/printf.c:430
    c4c6:	9b01      	ldr	r3, [sp, #4]
    c4c8:	aa0e      	add	r2, sp, #56	; 0x38
    c4ca:	0021      	movs	r1, r4
    c4cc:	0038      	movs	r0, r7
    c4ce:	f7ff fe13 	bl	c0f8 <printk_pad_space>
D:\zhangqiang\毕设\experiment\UE\User_NB-IoT_Frame(KL36)(A.50)-190816\Debug/../05_UserBoard/printf.c:394
    c4d2:	9b06      	ldr	r3, [sp, #24]
    c4d4:	469b      	mov	fp, r3
D:\zhangqiang\毕设\experiment\UE\User_NB-IoT_Frame(KL36)(A.50)-190816\Debug/../05_UserBoard/printf.c:432
    c4d6:	464b      	mov	r3, r9
    c4d8:	2b00      	cmp	r3, #0
    c4da:	d100      	bne.n	c4de <printk+0x202>
    c4dc:	e177      	b.n	c7ce <printk+0x4f2>
D:\zhangqiang\毕设\experiment\UE\User_NB-IoT_Frame(KL36)(A.50)-190816\Debug/../05_UserBoard/printf.c:433
    c4de:	9a01      	ldr	r2, [sp, #4]
    c4e0:	a90e      	add	r1, sp, #56	; 0x38
    c4e2:	4648      	mov	r0, r9
    c4e4:	f7ff fdaa 	bl	c03c <printk_putc>
D:\zhangqiang\毕设\experiment\UE\User_NB-IoT_Frame(KL36)(A.50)-190816\Debug/../05_UserBoard/printf.c:394
    c4e8:	9b06      	ldr	r3, [sp, #24]
    c4ea:	469b      	mov	fp, r3
    c4ec:	e16f      	b.n	c7ce <printk+0x4f2>
D:\zhangqiang\毕设\experiment\UE\User_NB-IoT_Frame(KL36)(A.50)-190816\Debug/../05_UserBoard/printf.c:452
    c4ee:	9b02      	ldr	r3, [sp, #8]
    c4f0:	2b00      	cmp	r3, #0
    c4f2:	d123      	bne.n	c53c <printk+0x260>
D:\zhangqiang\毕设\experiment\UE\User_NB-IoT_Frame(KL36)(A.50)-190816\Debug/../05_UserBoard/printf.c:454
    c4f4:	465f      	mov	r7, fp
    c4f6:	3708      	adds	r7, #8
    c4f8:	465b      	mov	r3, fp
    c4fa:	681a      	ldr	r2, [r3, #0]
    c4fc:	685b      	ldr	r3, [r3, #4]
D:\zhangqiang\毕设\experiment\UE\User_NB-IoT_Frame(KL36)(A.50)-190816\Debug/../05_UserBoard/printf.c:456
    c4fe:	9205      	str	r2, [sp, #20]
D:\zhangqiang\毕设\experiment\UE\User_NB-IoT_Frame(KL36)(A.50)-190816\Debug/../05_UserBoard/printf.c:458
    c500:	0e1b      	lsrs	r3, r3, #24
    c502:	061b      	lsls	r3, r3, #24
    c504:	9304      	str	r3, [sp, #16]
D:\zhangqiang\毕设\experiment\UE\User_NB-IoT_Frame(KL36)(A.50)-190816\Debug/../05_UserBoard/printf.c:459
    c506:	9a04      	ldr	r2, [sp, #16]
    c508:	9b05      	ldr	r3, [sp, #20]
    c50a:	920a      	str	r2, [sp, #40]	; 0x28
    c50c:	930b      	str	r3, [sp, #44]	; 0x2c
D:\zhangqiang\毕设\experiment\UE\User_NB-IoT_Frame(KL36)(A.50)-190816\Debug/../05_UserBoard/printf.c:467
    c50e:	9b03      	ldr	r3, [sp, #12]
    c510:	2b00      	cmp	r3, #0
    c512:	d12a      	bne.n	c56a <printk+0x28e>
D:\zhangqiang\毕设\experiment\UE\User_NB-IoT_Frame(KL36)(A.50)-190816\Debug/../05_UserBoard/printf.c:476
    c514:	2208      	movs	r2, #8
    c516:	a90f      	add	r1, sp, #60	; 0x3c
    c518:	a80a      	add	r0, sp, #40	; 0x28
    c51a:	f7ff fdfd 	bl	c118 <printk_mkfloatstr>
    c51e:	0006      	movs	r6, r0
D:\zhangqiang\毕设\experiment\UE\User_NB-IoT_Frame(KL36)(A.50)-190816\Debug/../05_UserBoard/printf.c:454
    c520:	46bb      	mov	fp, r7
D:\zhangqiang\毕设\experiment\UE\User_NB-IoT_Frame(KL36)(A.50)-190816\Debug/../05_UserBoard/printf.c:488
    c522:	2200      	movs	r2, #0
    c524:	2300      	movs	r3, #0
    c526:	980a      	ldr	r0, [sp, #40]	; 0x28
    c528:	990b      	ldr	r1, [sp, #44]	; 0x2c
    c52a:	f7fa fd83 	bl	7034 <__aeabi_dcmplt>
    c52e:	2800      	cmp	r0, #0
    c530:	d123      	bne.n	c57a <printk+0x29e>
D:\zhangqiang\毕设\experiment\UE\User_NB-IoT_Frame(KL36)(A.50)-190816\Debug/../05_UserBoard/printf.c:494
    c532:	07ab      	lsls	r3, r5, #30
    c534:	d52f      	bpl.n	c596 <printk+0x2ba>
D:\zhangqiang\毕设\experiment\UE\User_NB-IoT_Frame(KL36)(A.50)-190816\Debug/../05_UserBoard/printf.c:496
    c536:	3601      	adds	r6, #1
D:\zhangqiang\毕设\experiment\UE\User_NB-IoT_Frame(KL36)(A.50)-190816\Debug/../05_UserBoard/printf.c:495
    c538:	272b      	movs	r7, #43	; 0x2b
    c53a:	e020      	b.n	c57e <printk+0x2a2>
D:\zhangqiang\毕设\experiment\UE\User_NB-IoT_Frame(KL36)(A.50)-190816\Debug/../05_UserBoard/printf.c:461
    c53c:	9b02      	ldr	r3, [sp, #8]
    c53e:	3b01      	subs	r3, #1
    c540:	2b01      	cmp	r3, #1
    c542:	d909      	bls.n	c558 <printk+0x27c>
D:\zhangqiang\毕设\experiment\UE\User_NB-IoT_Frame(KL36)(A.50)-190816\Debug/../05_UserBoard/printf.c:467
    c544:	9b03      	ldr	r3, [sp, #12]
    c546:	2b00      	cmp	r3, #0
    c548:	d110      	bne.n	c56c <printk+0x290>
D:\zhangqiang\毕设\experiment\UE\User_NB-IoT_Frame(KL36)(A.50)-190816\Debug/../05_UserBoard/printf.c:481
    c54a:	0032      	movs	r2, r6
    c54c:	a90f      	add	r1, sp, #60	; 0x3c
    c54e:	a80a      	add	r0, sp, #40	; 0x28
    c550:	f7ff fde2 	bl	c118 <printk_mkfloatstr>
    c554:	0006      	movs	r6, r0
    c556:	e7e4      	b.n	c522 <printk+0x246>
D:\zhangqiang\毕设\experiment\UE\User_NB-IoT_Frame(KL36)(A.50)-190816\Debug/../05_UserBoard/printf.c:464
    c558:	465b      	mov	r3, fp
    c55a:	685a      	ldr	r2, [r3, #4]
    c55c:	689b      	ldr	r3, [r3, #8]
    c55e:	920a      	str	r2, [sp, #40]	; 0x28
    c560:	930b      	str	r3, [sp, #44]	; 0x2c
    c562:	230c      	movs	r3, #12
    c564:	469c      	mov	ip, r3
    c566:	44e3      	add	fp, ip
    c568:	e7ec      	b.n	c544 <printk+0x268>
D:\zhangqiang\毕设\experiment\UE\User_NB-IoT_Frame(KL36)(A.50)-190816\Debug/../05_UserBoard/printf.c:454
    c56a:	46bb      	mov	fp, r7
D:\zhangqiang\毕设\experiment\UE\User_NB-IoT_Frame(KL36)(A.50)-190816\Debug/../05_UserBoard/printf.c:469
    c56c:	0032      	movs	r2, r6
    c56e:	a90f      	add	r1, sp, #60	; 0x3c
    c570:	a80a      	add	r0, sp, #40	; 0x28
    c572:	f7ff fdd1 	bl	c118 <printk_mkfloatstr>
    c576:	0006      	movs	r6, r0
    c578:	e7d3      	b.n	c522 <printk+0x246>
D:\zhangqiang\毕设\experiment\UE\User_NB-IoT_Frame(KL36)(A.50)-190816\Debug/../05_UserBoard/printf.c:490
    c57a:	3601      	adds	r6, #1
D:\zhangqiang\毕设\experiment\UE\User_NB-IoT_Frame(KL36)(A.50)-190816\Debug/../05_UserBoard/printf.c:489
    c57c:	272d      	movs	r7, #45	; 0x2d
D:\zhangqiang\毕设\experiment\UE\User_NB-IoT_Frame(KL36)(A.50)-190816\Debug/../05_UserBoard/printf.c:511
    c57e:	072b      	lsls	r3, r5, #28
    c580:	d40f      	bmi.n	c5a2 <printk+0x2c6>
D:\zhangqiang\毕设\experiment\UE\User_NB-IoT_Frame(KL36)(A.50)-190816\Debug/../05_UserBoard/printf.c:518
    c582:	07eb      	lsls	r3, r5, #31
    c584:	d536      	bpl.n	c5f4 <printk+0x318>
D:\zhangqiang\毕设\experiment\UE\User_NB-IoT_Frame(KL36)(A.50)-190816\Debug/../05_UserBoard/printf.c:529
    c586:	2f00      	cmp	r7, #0
    c588:	d149      	bne.n	c61e <printk+0x342>
D:\zhangqiang\毕设\experiment\UE\User_NB-IoT_Frame(KL36)(A.50)-190816\Debug/../05_UserBoard/printf.c:532
    c58a:	ab0f      	add	r3, sp, #60	; 0x3c
    c58c:	2000      	movs	r0, #0
    c58e:	5618      	ldrsb	r0, [r3, r0]
    c590:	2800      	cmp	r0, #0
    c592:	d11b      	bne.n	c5cc <printk+0x2f0>
    c594:	e027      	b.n	c5e6 <printk+0x30a>
D:\zhangqiang\毕设\experiment\UE\User_NB-IoT_Frame(KL36)(A.50)-190816\Debug/../05_UserBoard/printf.c:498
    c596:	076b      	lsls	r3, r5, #29
    c598:	d400      	bmi.n	c59c <printk+0x2c0>
    c59a:	e195      	b.n	c8c8 <printk+0x5ec>
D:\zhangqiang\毕设\experiment\UE\User_NB-IoT_Frame(KL36)(A.50)-190816\Debug/../05_UserBoard/printf.c:500
    c59c:	3601      	adds	r6, #1
D:\zhangqiang\毕设\experiment\UE\User_NB-IoT_Frame(KL36)(A.50)-190816\Debug/../05_UserBoard/printf.c:499
    c59e:	2720      	movs	r7, #32
    c5a0:	e7ed      	b.n	c57e <printk+0x2a2>
D:\zhangqiang\毕设\experiment\UE\User_NB-IoT_Frame(KL36)(A.50)-190816\Debug/../05_UserBoard/printf.c:513
    c5a2:	9a01      	ldr	r2, [sp, #4]
    c5a4:	a90e      	add	r1, sp, #56	; 0x38
    c5a6:	0038      	movs	r0, r7
    c5a8:	f7ff fd48 	bl	c03c <printk_putc>
printk_pad_zero():
D:\zhangqiang\毕设\experiment\UE\User_NB-IoT_Frame(KL36)(A.50)-190816\Debug/../05_UserBoard/printf.c:182
    c5ac:	42b4      	cmp	r4, r6
    c5ae:	dd07      	ble.n	c5c0 <printk+0x2e4>
D:\zhangqiang\毕设\experiment\UE\User_NB-IoT_Frame(KL36)(A.50)-190816\Debug/../05_UserBoard/printf.c:183
    c5b0:	9a01      	ldr	r2, [sp, #4]
    c5b2:	a90e      	add	r1, sp, #56	; 0x38
    c5b4:	2030      	movs	r0, #48	; 0x30
    c5b6:	f7ff fd41 	bl	c03c <printk_putc>
D:\zhangqiang\毕设\experiment\UE\User_NB-IoT_Frame(KL36)(A.50)-190816\Debug/../05_UserBoard/printf.c:182
    c5ba:	3601      	adds	r6, #1
    c5bc:	42a6      	cmp	r6, r4
    c5be:	d1f7      	bne.n	c5b0 <printk+0x2d4>
printk():
D:\zhangqiang\毕设\experiment\UE\User_NB-IoT_Frame(KL36)(A.50)-190816\Debug/../05_UserBoard/printf.c:532
    c5c0:	ab0f      	add	r3, sp, #60	; 0x3c
    c5c2:	2000      	movs	r0, #0
    c5c4:	5618      	ldrsb	r0, [r3, r0]
    c5c6:	0026      	movs	r6, r4
    c5c8:	2800      	cmp	r0, #0
    c5ca:	d009      	beq.n	c5e0 <printk+0x304>
    c5cc:	af0f      	add	r7, sp, #60	; 0x3c
D:\zhangqiang\毕设\experiment\UE\User_NB-IoT_Frame(KL36)(A.50)-190816\Debug/../05_UserBoard/printf.c:533
    c5ce:	3701      	adds	r7, #1
    c5d0:	9a01      	ldr	r2, [sp, #4]
    c5d2:	a90e      	add	r1, sp, #56	; 0x38
    c5d4:	f7ff fd32 	bl	c03c <printk_putc>
D:\zhangqiang\毕设\experiment\UE\User_NB-IoT_Frame(KL36)(A.50)-190816\Debug/../05_UserBoard/printf.c:532
    c5d8:	2000      	movs	r0, #0
    c5da:	5638      	ldrsb	r0, [r7, r0]
    c5dc:	2800      	cmp	r0, #0
    c5de:	d1f6      	bne.n	c5ce <printk+0x2f2>
D:\zhangqiang\毕设\experiment\UE\User_NB-IoT_Frame(KL36)(A.50)-190816\Debug/../05_UserBoard/printf.c:534
    c5e0:	07eb      	lsls	r3, r5, #31
    c5e2:	d400      	bmi.n	c5e6 <printk+0x30a>
    c5e4:	e6a7      	b.n	c336 <printk+0x5a>
D:\zhangqiang\毕设\experiment\UE\User_NB-IoT_Frame(KL36)(A.50)-190816\Debug/../05_UserBoard/printf.c:535
    c5e6:	9b01      	ldr	r3, [sp, #4]
    c5e8:	aa0e      	add	r2, sp, #56	; 0x38
    c5ea:	0021      	movs	r1, r4
    c5ec:	0030      	movs	r0, r6
    c5ee:	f7ff fd83 	bl	c0f8 <printk_pad_space>
    c5f2:	e6a0      	b.n	c336 <printk+0x5a>
D:\zhangqiang\毕设\experiment\UE\User_NB-IoT_Frame(KL36)(A.50)-190816\Debug/../05_UserBoard/printf.c:519
    c5f4:	9b01      	ldr	r3, [sp, #4]
    c5f6:	aa0e      	add	r2, sp, #56	; 0x38
    c5f8:	0021      	movs	r1, r4
    c5fa:	0030      	movs	r0, r6
    c5fc:	f7ff fd7c 	bl	c0f8 <printk_pad_space>
D:\zhangqiang\毕设\experiment\UE\User_NB-IoT_Frame(KL36)(A.50)-190816\Debug/../05_UserBoard/printf.c:521
    c600:	2f00      	cmp	r7, #0
    c602:	d106      	bne.n	c612 <printk+0x336>
D:\zhangqiang\毕设\experiment\UE\User_NB-IoT_Frame(KL36)(A.50)-190816\Debug/../05_UserBoard/printf.c:532
    c604:	ab0f      	add	r3, sp, #60	; 0x3c
    c606:	2000      	movs	r0, #0
    c608:	5618      	ldrsb	r0, [r3, r0]
    c60a:	2800      	cmp	r0, #0
    c60c:	d100      	bne.n	c610 <printk+0x334>
    c60e:	e692      	b.n	c336 <printk+0x5a>
    c610:	e7dc      	b.n	c5cc <printk+0x2f0>
D:\zhangqiang\毕设\experiment\UE\User_NB-IoT_Frame(KL36)(A.50)-190816\Debug/../05_UserBoard/printf.c:522
    c612:	9a01      	ldr	r2, [sp, #4]
    c614:	a90e      	add	r1, sp, #56	; 0x38
    c616:	0038      	movs	r0, r7
    c618:	f7ff fd10 	bl	c03c <printk_putc>
    c61c:	e7f2      	b.n	c604 <printk+0x328>
D:\zhangqiang\毕设\experiment\UE\User_NB-IoT_Frame(KL36)(A.50)-190816\Debug/../05_UserBoard/printf.c:530
    c61e:	9a01      	ldr	r2, [sp, #4]
    c620:	a90e      	add	r1, sp, #56	; 0x38
    c622:	0038      	movs	r0, r7
    c624:	f7ff fd0a 	bl	c03c <printk_putc>
    c628:	e7af      	b.n	c58a <printk+0x2ae>
    c62a:	46c0      	nop			; (mov r8, r8)
    c62c:	0000e3c8 	.word	0x0000e3c8
    c630:	0000e40c 	.word	0x0000e40c
D:\zhangqiang\毕设\experiment\UE\User_NB-IoT_Frame(KL36)(A.50)-190816\Debug/../05_UserBoard/printf.c:541
    c634:	465b      	mov	r3, fp
    c636:	3304      	adds	r3, #4
    c638:	9306      	str	r3, [sp, #24]
    c63a:	465b      	mov	r3, fp
    c63c:	681b      	ldr	r3, [r3, #0]
    c63e:	9309      	str	r3, [sp, #36]	; 0x24
D:\zhangqiang\毕设\experiment\UE\User_NB-IoT_Frame(KL36)(A.50)-190816\Debug/../05_UserBoard/printf.c:542
    c640:	2310      	movs	r3, #16
    c642:	2200      	movs	r2, #0
    c644:	a909      	add	r1, sp, #36	; 0x24
    c646:	a80f      	add	r0, sp, #60	; 0x3c
    c648:	f7ff fd0d 	bl	c066 <printk_mknumstr>
    c64c:	0007      	movs	r7, r0
D:\zhangqiang\毕设\experiment\UE\User_NB-IoT_Frame(KL36)(A.50)-190816\Debug/../05_UserBoard/printf.c:543
    c64e:	ab0f      	add	r3, sp, #60	; 0x3c
    c650:	181e      	adds	r6, r3, r0
D:\zhangqiang\毕设\experiment\UE\User_NB-IoT_Frame(KL36)(A.50)-190816\Debug/../05_UserBoard/printf.c:546
    c652:	072b      	lsls	r3, r5, #28
    c654:	d528      	bpl.n	c6a8 <printk+0x3cc>
D:\zhangqiang\毕设\experiment\UE\User_NB-IoT_Frame(KL36)(A.50)-190816\Debug/../05_UserBoard/printf.c:547
    c656:	2310      	movs	r3, #16
    c658:	402b      	ands	r3, r5
    c65a:	4699      	mov	r9, r3
    c65c:	d114      	bne.n	c688 <printk+0x3ac>
printk_pad_zero():
D:\zhangqiang\毕设\experiment\UE\User_NB-IoT_Frame(KL36)(A.50)-190816\Debug/../05_UserBoard/printf.c:182
    c65e:	42a0      	cmp	r0, r4
    c660:	db00      	blt.n	c664 <printk+0x388>
    c662:	e13f      	b.n	c8e4 <printk+0x608>
D:\zhangqiang\毕设\experiment\UE\User_NB-IoT_Frame(KL36)(A.50)-190816\Debug/../05_UserBoard/printf.c:183
    c664:	9a01      	ldr	r2, [sp, #4]
    c666:	a90e      	add	r1, sp, #56	; 0x38
    c668:	2030      	movs	r0, #48	; 0x30
    c66a:	f7ff fce7 	bl	c03c <printk_putc>
D:\zhangqiang\毕设\experiment\UE\User_NB-IoT_Frame(KL36)(A.50)-190816\Debug/../05_UserBoard/printf.c:182
    c66e:	3701      	adds	r7, #1
    c670:	42a7      	cmp	r7, r4
    c672:	dbf7      	blt.n	c664 <printk+0x388>
printk():
D:\zhangqiang\毕设\experiment\UE\User_NB-IoT_Frame(KL36)(A.50)-190816\Debug/../05_UserBoard/printf.c:569
    c674:	06eb      	lsls	r3, r5, #27
    c676:	d400      	bmi.n	c67a <printk+0x39e>
    c678:	e0b7      	b.n	c7ea <printk+0x50e>
D:\zhangqiang\毕设\experiment\UE\User_NB-IoT_Frame(KL36)(A.50)-190816\Debug/../05_UserBoard/printf.c:569 (discriminator 1)
    c67a:	464b      	mov	r3, r9
    c67c:	2b00      	cmp	r3, #0
    c67e:	d031      	beq.n	c6e4 <printk+0x408>
    c680:	0027      	movs	r7, r4
D:\zhangqiang\毕设\experiment\UE\User_NB-IoT_Frame(KL36)(A.50)-190816\Debug/../05_UserBoard/printf.c:541
    c682:	9b06      	ldr	r3, [sp, #24]
    c684:	469b      	mov	fp, r3
    c686:	e085      	b.n	c794 <printk+0x4b8>
D:\zhangqiang\毕设\experiment\UE\User_NB-IoT_Frame(KL36)(A.50)-190816\Debug/../05_UserBoard/printf.c:548
    c688:	9a01      	ldr	r2, [sp, #4]
    c68a:	a90e      	add	r1, sp, #56	; 0x38
    c68c:	2030      	movs	r0, #48	; 0x30
    c68e:	f7ff fcd5 	bl	c03c <printk_putc>
D:\zhangqiang\毕设\experiment\UE\User_NB-IoT_Frame(KL36)(A.50)-190816\Debug/../05_UserBoard/printf.c:549
    c692:	9a01      	ldr	r2, [sp, #4]
    c694:	a90e      	add	r1, sp, #56	; 0x38
    c696:	2078      	movs	r0, #120	; 0x78
    c698:	f7ff fcd0 	bl	c03c <printk_putc>
printk_pad_zero():
D:\zhangqiang\毕设\experiment\UE\User_NB-IoT_Frame(KL36)(A.50)-190816\Debug/../05_UserBoard/printf.c:182
    c69c:	42a7      	cmp	r7, r4
    c69e:	db00      	blt.n	c6a2 <printk+0x3c6>
    c6a0:	e09f      	b.n	c7e2 <printk+0x506>
printk():
D:\zhangqiang\毕设\experiment\UE\User_NB-IoT_Frame(KL36)(A.50)-190816\Debug/../05_UserBoard/printf.c:551
    c6a2:	2301      	movs	r3, #1
    c6a4:	4699      	mov	r9, r3
    c6a6:	e7dd      	b.n	c664 <printk+0x388>
D:\zhangqiang\毕设\experiment\UE\User_NB-IoT_Frame(KL36)(A.50)-190816\Debug/../05_UserBoard/printf.c:556
    c6a8:	07eb      	lsls	r3, r5, #31
    c6aa:	d500      	bpl.n	c6ae <printk+0x3d2>
    c6ac:	e126      	b.n	c8fc <printk+0x620>
D:\zhangqiang\毕设\experiment\UE\User_NB-IoT_Frame(KL36)(A.50)-190816\Debug/../05_UserBoard/printf.c:557
    c6ae:	06eb      	lsls	r3, r5, #27
    c6b0:	d400      	bmi.n	c6b4 <printk+0x3d8>
    c6b2:	e11b      	b.n	c8ec <printk+0x610>
D:\zhangqiang\毕设\experiment\UE\User_NB-IoT_Frame(KL36)(A.50)-190816\Debug/../05_UserBoard/printf.c:558
    c6b4:	3702      	adds	r7, #2
D:\zhangqiang\毕设\experiment\UE\User_NB-IoT_Frame(KL36)(A.50)-190816\Debug/../05_UserBoard/printf.c:560
    c6b6:	9b01      	ldr	r3, [sp, #4]
    c6b8:	aa0e      	add	r2, sp, #56	; 0x38
    c6ba:	0021      	movs	r1, r4
    c6bc:	0038      	movs	r0, r7
    c6be:	f7ff fd1b 	bl	c0f8 <printk_pad_space>
D:\zhangqiang\毕设\experiment\UE\User_NB-IoT_Frame(KL36)(A.50)-190816\Debug/../05_UserBoard/printf.c:562
    c6c2:	9a01      	ldr	r2, [sp, #4]
    c6c4:	a90e      	add	r1, sp, #56	; 0x38
    c6c6:	2030      	movs	r0, #48	; 0x30
    c6c8:	f7ff fcb8 	bl	c03c <printk_putc>
D:\zhangqiang\毕设\experiment\UE\User_NB-IoT_Frame(KL36)(A.50)-190816\Debug/../05_UserBoard/printf.c:563
    c6cc:	9a01      	ldr	r2, [sp, #4]
    c6ce:	a90e      	add	r1, sp, #56	; 0x38
    c6d0:	2078      	movs	r0, #120	; 0x78
    c6d2:	f7ff fcb3 	bl	c03c <printk_putc>
D:\zhangqiang\毕设\experiment\UE\User_NB-IoT_Frame(KL36)(A.50)-190816\Debug/../05_UserBoard/printf.c:605
    c6d6:	2000      	movs	r0, #0
    c6d8:	5630      	ldrsb	r0, [r6, r0]
D:\zhangqiang\毕设\experiment\UE\User_NB-IoT_Frame(KL36)(A.50)-190816\Debug/../05_UserBoard/printf.c:541
    c6da:	9b06      	ldr	r3, [sp, #24]
    c6dc:	469b      	mov	fp, r3
D:\zhangqiang\毕设\experiment\UE\User_NB-IoT_Frame(KL36)(A.50)-190816\Debug/../05_UserBoard/printf.c:605
    c6de:	2800      	cmp	r0, #0
    c6e0:	d15c      	bne.n	c79c <printk+0x4c0>
    c6e2:	e628      	b.n	c336 <printk+0x5a>
    c6e4:	0027      	movs	r7, r4
D:\zhangqiang\毕设\experiment\UE\User_NB-IoT_Frame(KL36)(A.50)-190816\Debug/../05_UserBoard/printf.c:570
    c6e6:	9a01      	ldr	r2, [sp, #4]
    c6e8:	a90e      	add	r1, sp, #56	; 0x38
    c6ea:	2030      	movs	r0, #48	; 0x30
    c6ec:	f7ff fca6 	bl	c03c <printk_putc>
D:\zhangqiang\毕设\experiment\UE\User_NB-IoT_Frame(KL36)(A.50)-190816\Debug/../05_UserBoard/printf.c:571
    c6f0:	9a01      	ldr	r2, [sp, #4]
    c6f2:	a90e      	add	r1, sp, #56	; 0x38
    c6f4:	2078      	movs	r0, #120	; 0x78
    c6f6:	f7ff fca1 	bl	c03c <printk_putc>
D:\zhangqiang\毕设\experiment\UE\User_NB-IoT_Frame(KL36)(A.50)-190816\Debug/../05_UserBoard/printf.c:572
    c6fa:	3702      	adds	r7, #2
D:\zhangqiang\毕设\experiment\UE\User_NB-IoT_Frame(KL36)(A.50)-190816\Debug/../05_UserBoard/printf.c:541
    c6fc:	9b06      	ldr	r3, [sp, #24]
    c6fe:	469b      	mov	fp, r3
    c700:	e048      	b.n	c794 <printk+0x4b8>
D:\zhangqiang\毕设\experiment\UE\User_NB-IoT_Frame(KL36)(A.50)-190816\Debug/../05_UserBoard/printf.c:577
    c702:	465b      	mov	r3, fp
    c704:	1d1e      	adds	r6, r3, #4
    c706:	681b      	ldr	r3, [r3, #0]
    c708:	9309      	str	r3, [sp, #36]	; 0x24
D:\zhangqiang\毕设\experiment\UE\User_NB-IoT_Frame(KL36)(A.50)-190816\Debug/../05_UserBoard/printf.c:578
    c70a:	2308      	movs	r3, #8
    c70c:	2200      	movs	r2, #0
    c70e:	a909      	add	r1, sp, #36	; 0x24
    c710:	a80f      	add	r0, sp, #60	; 0x3c
    c712:	f7ff fca8 	bl	c066 <printk_mknumstr>
    c716:	0007      	movs	r7, r0
D:\zhangqiang\毕设\experiment\UE\User_NB-IoT_Frame(KL36)(A.50)-190816\Debug/../05_UserBoard/printf.c:577
    c718:	46b3      	mov	fp, r6
D:\zhangqiang\毕设\experiment\UE\User_NB-IoT_Frame(KL36)(A.50)-190816\Debug/../05_UserBoard/printf.c:594
    c71a:	ab0f      	add	r3, sp, #60	; 0x3c
    c71c:	19de      	adds	r6, r3, r7
D:\zhangqiang\毕设\experiment\UE\User_NB-IoT_Frame(KL36)(A.50)-190816\Debug/../05_UserBoard/printf.c:596
    c71e:	072b      	lsls	r3, r5, #28
    c720:	d42d      	bmi.n	c77e <printk+0x4a2>
D:\zhangqiang\毕设\experiment\UE\User_NB-IoT_Frame(KL36)(A.50)-190816\Debug/../05_UserBoard/printf.c:600
    c722:	07eb      	lsls	r3, r5, #31
    c724:	d54d      	bpl.n	c7c2 <printk+0x4e6>
D:\zhangqiang\毕设\experiment\UE\User_NB-IoT_Frame(KL36)(A.50)-190816\Debug/../05_UserBoard/printf.c:605
    c726:	2000      	movs	r0, #0
    c728:	5630      	ldrsb	r0, [r6, r0]
    c72a:	2800      	cmp	r0, #0
    c72c:	d136      	bne.n	c79c <printk+0x4c0>
    c72e:	e041      	b.n	c7b4 <printk+0x4d8>
D:\zhangqiang\毕设\experiment\UE\User_NB-IoT_Frame(KL36)(A.50)-190816\Debug/../05_UserBoard/printf.c:582
    c730:	465b      	mov	r3, fp
    c732:	1d1e      	adds	r6, r3, #4
    c734:	681b      	ldr	r3, [r3, #0]
    c736:	9309      	str	r3, [sp, #36]	; 0x24
D:\zhangqiang\毕设\experiment\UE\User_NB-IoT_Frame(KL36)(A.50)-190816\Debug/../05_UserBoard/printf.c:583
    c738:	2302      	movs	r3, #2
    c73a:	2200      	movs	r2, #0
    c73c:	a909      	add	r1, sp, #36	; 0x24
    c73e:	a80f      	add	r0, sp, #60	; 0x3c
    c740:	f7ff fc91 	bl	c066 <printk_mknumstr>
    c744:	0007      	movs	r7, r0
D:\zhangqiang\毕设\experiment\UE\User_NB-IoT_Frame(KL36)(A.50)-190816\Debug/../05_UserBoard/printf.c:582
    c746:	46b3      	mov	fp, r6
D:\zhangqiang\毕设\experiment\UE\User_NB-IoT_Frame(KL36)(A.50)-190816\Debug/../05_UserBoard/printf.c:584
    c748:	e7e7      	b.n	c71a <printk+0x43e>
D:\zhangqiang\毕设\experiment\UE\User_NB-IoT_Frame(KL36)(A.50)-190816\Debug/../05_UserBoard/printf.c:587
    c74a:	465b      	mov	r3, fp
    c74c:	1d1e      	adds	r6, r3, #4
    c74e:	681b      	ldr	r3, [r3, #0]
    c750:	9309      	str	r3, [sp, #36]	; 0x24
D:\zhangqiang\毕设\experiment\UE\User_NB-IoT_Frame(KL36)(A.50)-190816\Debug/../05_UserBoard/printf.c:588
    c752:	2310      	movs	r3, #16
    c754:	2200      	movs	r2, #0
    c756:	a909      	add	r1, sp, #36	; 0x24
    c758:	a80f      	add	r0, sp, #60	; 0x3c
    c75a:	f7ff fc84 	bl	c066 <printk_mknumstr>
    c75e:	0007      	movs	r7, r0
D:\zhangqiang\毕设\experiment\UE\User_NB-IoT_Frame(KL36)(A.50)-190816\Debug/../05_UserBoard/printf.c:587
    c760:	46b3      	mov	fp, r6
D:\zhangqiang\毕设\experiment\UE\User_NB-IoT_Frame(KL36)(A.50)-190816\Debug/../05_UserBoard/printf.c:589
    c762:	e7da      	b.n	c71a <printk+0x43e>
D:\zhangqiang\毕设\experiment\UE\User_NB-IoT_Frame(KL36)(A.50)-190816\Debug/../05_UserBoard/printf.c:591
    c764:	465b      	mov	r3, fp
    c766:	1d1e      	adds	r6, r3, #4
    c768:	681b      	ldr	r3, [r3, #0]
    c76a:	9309      	str	r3, [sp, #36]	; 0x24
D:\zhangqiang\毕设\experiment\UE\User_NB-IoT_Frame(KL36)(A.50)-190816\Debug/../05_UserBoard/printf.c:592
    c76c:	230a      	movs	r3, #10
    c76e:	2200      	movs	r2, #0
    c770:	a909      	add	r1, sp, #36	; 0x24
    c772:	a80f      	add	r0, sp, #60	; 0x3c
    c774:	f7ff fc77 	bl	c066 <printk_mknumstr>
    c778:	0007      	movs	r7, r0
D:\zhangqiang\毕设\experiment\UE\User_NB-IoT_Frame(KL36)(A.50)-190816\Debug/../05_UserBoard/printf.c:591
    c77a:	46b3      	mov	fp, r6
    c77c:	e7cd      	b.n	c71a <printk+0x43e>
printk_pad_zero():
D:\zhangqiang\毕设\experiment\UE\User_NB-IoT_Frame(KL36)(A.50)-190816\Debug/../05_UserBoard/printf.c:182
    c77e:	42a7      	cmp	r7, r4
    c780:	da37      	bge.n	c7f2 <printk+0x516>
D:\zhangqiang\毕设\experiment\UE\User_NB-IoT_Frame(KL36)(A.50)-190816\Debug/../05_UserBoard/printf.c:183
    c782:	9a01      	ldr	r2, [sp, #4]
    c784:	a90e      	add	r1, sp, #56	; 0x38
    c786:	2030      	movs	r0, #48	; 0x30
    c788:	f7ff fc58 	bl	c03c <printk_putc>
D:\zhangqiang\毕设\experiment\UE\User_NB-IoT_Frame(KL36)(A.50)-190816\Debug/../05_UserBoard/printf.c:182
    c78c:	3701      	adds	r7, #1
    c78e:	42a7      	cmp	r7, r4
    c790:	d1f7      	bne.n	c782 <printk+0x4a6>
    c792:	0027      	movs	r7, r4
printk():
D:\zhangqiang\毕设\experiment\UE\User_NB-IoT_Frame(KL36)(A.50)-190816\Debug/../05_UserBoard/printf.c:605 (discriminator 1)
    c794:	2000      	movs	r0, #0
    c796:	5630      	ldrsb	r0, [r6, r0]
    c798:	2800      	cmp	r0, #0
    c79a:	d008      	beq.n	c7ae <printk+0x4d2>
D:\zhangqiang\毕设\experiment\UE\User_NB-IoT_Frame(KL36)(A.50)-190816\Debug/../05_UserBoard/printf.c:606
    c79c:	3e01      	subs	r6, #1
    c79e:	9a01      	ldr	r2, [sp, #4]
    c7a0:	a90e      	add	r1, sp, #56	; 0x38
    c7a2:	f7ff fc4b 	bl	c03c <printk_putc>
D:\zhangqiang\毕设\experiment\UE\User_NB-IoT_Frame(KL36)(A.50)-190816\Debug/../05_UserBoard/printf.c:605
    c7a6:	2000      	movs	r0, #0
    c7a8:	5630      	ldrsb	r0, [r6, r0]
    c7aa:	2800      	cmp	r0, #0
    c7ac:	d1f6      	bne.n	c79c <printk+0x4c0>
D:\zhangqiang\毕设\experiment\UE\User_NB-IoT_Frame(KL36)(A.50)-190816\Debug/../05_UserBoard/printf.c:608
    c7ae:	07eb      	lsls	r3, r5, #31
    c7b0:	d400      	bmi.n	c7b4 <printk+0x4d8>
    c7b2:	e5c0      	b.n	c336 <printk+0x5a>
D:\zhangqiang\毕设\experiment\UE\User_NB-IoT_Frame(KL36)(A.50)-190816\Debug/../05_UserBoard/printf.c:609
    c7b4:	9b01      	ldr	r3, [sp, #4]
    c7b6:	aa0e      	add	r2, sp, #56	; 0x38
    c7b8:	0021      	movs	r1, r4
    c7ba:	0038      	movs	r0, r7
    c7bc:	f7ff fc9c 	bl	c0f8 <printk_pad_space>
    c7c0:	e5b9      	b.n	c336 <printk+0x5a>
D:\zhangqiang\毕设\experiment\UE\User_NB-IoT_Frame(KL36)(A.50)-190816\Debug/../05_UserBoard/printf.c:601
    c7c2:	9b01      	ldr	r3, [sp, #4]
    c7c4:	aa0e      	add	r2, sp, #56	; 0x38
    c7c6:	0021      	movs	r1, r4
    c7c8:	0038      	movs	r0, r7
    c7ca:	f7ff fc95 	bl	c0f8 <printk_pad_space>
D:\zhangqiang\毕设\experiment\UE\User_NB-IoT_Frame(KL36)(A.50)-190816\Debug/../05_UserBoard/printf.c:605
    c7ce:	2000      	movs	r0, #0
    c7d0:	5630      	ldrsb	r0, [r6, r0]
    c7d2:	2800      	cmp	r0, #0
    c7d4:	d100      	bne.n	c7d8 <printk+0x4fc>
    c7d6:	e5ae      	b.n	c336 <printk+0x5a>
    c7d8:	e7e0      	b.n	c79c <printk+0x4c0>
printk_pad_zero():
D:\zhangqiang\毕设\experiment\UE\User_NB-IoT_Frame(KL36)(A.50)-190816\Debug/../05_UserBoard/printf.c:182
    c7da:	0027      	movs	r7, r4
printk():
D:\zhangqiang\毕设\experiment\UE\User_NB-IoT_Frame(KL36)(A.50)-190816\Debug/../05_UserBoard/printf.c:394
    c7dc:	9b06      	ldr	r3, [sp, #24]
    c7de:	469b      	mov	fp, r3
    c7e0:	e7d8      	b.n	c794 <printk+0x4b8>
printk_pad_zero():
D:\zhangqiang\毕设\experiment\UE\User_NB-IoT_Frame(KL36)(A.50)-190816\Debug/../05_UserBoard/printf.c:182
    c7e2:	0027      	movs	r7, r4
printk():
D:\zhangqiang\毕设\experiment\UE\User_NB-IoT_Frame(KL36)(A.50)-190816\Debug/../05_UserBoard/printf.c:541
    c7e4:	9b06      	ldr	r3, [sp, #24]
    c7e6:	469b      	mov	fp, r3
    c7e8:	e7d4      	b.n	c794 <printk+0x4b8>
    c7ea:	0027      	movs	r7, r4
    c7ec:	9b06      	ldr	r3, [sp, #24]
    c7ee:	469b      	mov	fp, r3
    c7f0:	e7d0      	b.n	c794 <printk+0x4b8>
printk_pad_zero():
D:\zhangqiang\毕设\experiment\UE\User_NB-IoT_Frame(KL36)(A.50)-190816\Debug/../05_UserBoard/printf.c:182
    c7f2:	0027      	movs	r7, r4
    c7f4:	e7ce      	b.n	c794 <printk+0x4b8>
printk():
D:\zhangqiang\毕设\experiment\UE\User_NB-IoT_Frame(KL36)(A.50)-190816\Debug/../05_UserBoard/printf.c:615
    c7f6:	465b      	mov	r3, fp
    c7f8:	1d1c      	adds	r4, r3, #4
    c7fa:	2000      	movs	r0, #0
    c7fc:	5618      	ldrsb	r0, [r3, r0]
D:\zhangqiang\毕设\experiment\UE\User_NB-IoT_Frame(KL36)(A.50)-190816\Debug/../05_UserBoard/printf.c:616
    c7fe:	9a01      	ldr	r2, [sp, #4]
    c800:	a90e      	add	r1, sp, #56	; 0x38
    c802:	f7ff fc1b 	bl	c03c <printk_putc>
D:\zhangqiang\毕设\experiment\UE\User_NB-IoT_Frame(KL36)(A.50)-190816\Debug/../05_UserBoard/printf.c:615
    c806:	46a3      	mov	fp, r4
D:\zhangqiang\毕设\experiment\UE\User_NB-IoT_Frame(KL36)(A.50)-190816\Debug/../05_UserBoard/printf.c:617
    c808:	e595      	b.n	c336 <printk+0x5a>
D:\zhangqiang\毕设\experiment\UE\User_NB-IoT_Frame(KL36)(A.50)-190816\Debug/../05_UserBoard/printf.c:619
    c80a:	465b      	mov	r3, fp
    c80c:	3304      	adds	r3, #4
    c80e:	9306      	str	r3, [sp, #24]
    c810:	465b      	mov	r3, fp
    c812:	681f      	ldr	r7, [r3, #0]
D:\zhangqiang\毕设\experiment\UE\User_NB-IoT_Frame(KL36)(A.50)-190816\Debug/../05_UserBoard/printf.c:620
    c814:	2f00      	cmp	r7, #0
    c816:	d043      	beq.n	c8a0 <printk+0x5c4>
D:\zhangqiang\毕设\experiment\UE\User_NB-IoT_Frame(KL36)(A.50)-190816\Debug/../05_UserBoard/printf.c:621
    c818:	0038      	movs	r0, r7
    c81a:	f7fd f9e3 	bl	9be4 <strlen>
    c81e:	9007      	str	r0, [sp, #28]
D:\zhangqiang\毕设\experiment\UE\User_NB-IoT_Frame(KL36)(A.50)-190816\Debug/../05_UserBoard/printf.c:622
    c820:	2301      	movs	r3, #1
    c822:	401d      	ands	r5, r3
    c824:	d01c      	beq.n	c860 <printk+0x584>
D:\zhangqiang\毕设\experiment\UE\User_NB-IoT_Frame(KL36)(A.50)-190816\Debug/../05_UserBoard/printf.c:625
    c826:	2e00      	cmp	r6, #0
    c828:	d120      	bne.n	c86c <printk+0x590>
D:\zhangqiang\毕设\experiment\UE\User_NB-IoT_Frame(KL36)(A.50)-190816\Debug/../05_UserBoard/printf.c:638
    c82a:	2000      	movs	r0, #0
    c82c:	5638      	ldrsb	r0, [r7, r0]
    c82e:	2800      	cmp	r0, #0
    c830:	d008      	beq.n	c844 <printk+0x568>
D:\zhangqiang\毕设\experiment\UE\User_NB-IoT_Frame(KL36)(A.50)-190816\Debug/../05_UserBoard/printf.c:639
    c832:	3701      	adds	r7, #1
    c834:	9a01      	ldr	r2, [sp, #4]
    c836:	a90e      	add	r1, sp, #56	; 0x38
    c838:	f7ff fc00 	bl	c03c <printk_putc>
D:\zhangqiang\毕设\experiment\UE\User_NB-IoT_Frame(KL36)(A.50)-190816\Debug/../05_UserBoard/printf.c:638
    c83c:	2000      	movs	r0, #0
    c83e:	5638      	ldrsb	r0, [r7, r0]
    c840:	2800      	cmp	r0, #0
    c842:	d1f6      	bne.n	c832 <printk+0x556>
D:\zhangqiang\毕设\experiment\UE\User_NB-IoT_Frame(KL36)(A.50)-190816\Debug/../05_UserBoard/printf.c:619
    c844:	9b06      	ldr	r3, [sp, #24]
    c846:	469b      	mov	fp, r3
D:\zhangqiang\毕设\experiment\UE\User_NB-IoT_Frame(KL36)(A.50)-190816\Debug/../05_UserBoard/printf.c:641
    c848:	2d00      	cmp	r5, #0
    c84a:	d100      	bne.n	c84e <printk+0x572>
    c84c:	e573      	b.n	c336 <printk+0x5a>
D:\zhangqiang\毕设\experiment\UE\User_NB-IoT_Frame(KL36)(A.50)-190816\Debug/../05_UserBoard/printf.c:642
    c84e:	9b01      	ldr	r3, [sp, #4]
    c850:	aa0e      	add	r2, sp, #56	; 0x38
    c852:	0021      	movs	r1, r4
    c854:	9807      	ldr	r0, [sp, #28]
    c856:	f7ff fc4f 	bl	c0f8 <printk_pad_space>
D:\zhangqiang\毕设\experiment\UE\User_NB-IoT_Frame(KL36)(A.50)-190816\Debug/../05_UserBoard/printf.c:619
    c85a:	9b06      	ldr	r3, [sp, #24]
    c85c:	469b      	mov	fp, r3
    c85e:	e56a      	b.n	c336 <printk+0x5a>
D:\zhangqiang\毕设\experiment\UE\User_NB-IoT_Frame(KL36)(A.50)-190816\Debug/../05_UserBoard/printf.c:623
    c860:	9b01      	ldr	r3, [sp, #4]
    c862:	aa0e      	add	r2, sp, #56	; 0x38
    c864:	0021      	movs	r1, r4
    c866:	f7ff fc47 	bl	c0f8 <printk_pad_space>
    c86a:	e7dc      	b.n	c826 <printk+0x54a>
D:\zhangqiang\毕设\experiment\UE\User_NB-IoT_Frame(KL36)(A.50)-190816\Debug/../05_UserBoard/printf.c:627
    c86c:	2000      	movs	r0, #0
    c86e:	5638      	ldrsb	r0, [r7, r0]
    c870:	2800      	cmp	r0, #0
    c872:	d0e7      	beq.n	c844 <printk+0x568>
D:\zhangqiang\毕设\experiment\UE\User_NB-IoT_Frame(KL36)(A.50)-190816\Debug/../05_UserBoard/printf.c:629
    c874:	2e00      	cmp	r6, #0
    c876:	ddfb      	ble.n	c870 <printk+0x594>
D:\zhangqiang\毕设\experiment\UE\User_NB-IoT_Frame(KL36)(A.50)-190816\Debug/../05_UserBoard/printf.c:631
    c878:	3e01      	subs	r6, #1
D:\zhangqiang\毕设\experiment\UE\User_NB-IoT_Frame(KL36)(A.50)-190816\Debug/../05_UserBoard/printf.c:632
    c87a:	3701      	adds	r7, #1
    c87c:	9a01      	ldr	r2, [sp, #4]
    c87e:	a90e      	add	r1, sp, #56	; 0x38
    c880:	f7ff fbdc 	bl	c03c <printk_putc>
    c884:	e7f2      	b.n	c86c <printk+0x590>
D:\zhangqiang\毕设\experiment\UE\User_NB-IoT_Frame(KL36)(A.50)-190816\Debug/../05_UserBoard/printf.c:647
    c886:	465b      	mov	r3, fp
    c888:	681b      	ldr	r3, [r3, #0]
D:\zhangqiang\毕设\experiment\UE\User_NB-IoT_Frame(KL36)(A.50)-190816\Debug/../05_UserBoard/printf.c:648
    c88a:	9a0e      	ldr	r2, [sp, #56]	; 0x38
    c88c:	601a      	str	r2, [r3, #0]
D:\zhangqiang\毕设\experiment\UE\User_NB-IoT_Frame(KL36)(A.50)-190816\Debug/../05_UserBoard/printf.c:647
    c88e:	2304      	movs	r3, #4
    c890:	469c      	mov	ip, r3
    c892:	44e3      	add	fp, ip
D:\zhangqiang\毕设\experiment\UE\User_NB-IoT_Frame(KL36)(A.50)-190816\Debug/../05_UserBoard/printf.c:649
    c894:	e54f      	b.n	c336 <printk+0x5a>
D:\zhangqiang\毕设\experiment\UE\User_NB-IoT_Frame(KL36)(A.50)-190816\Debug/../05_UserBoard/printf.c:652
    c896:	9a01      	ldr	r2, [sp, #4]
    c898:	a90e      	add	r1, sp, #56	; 0x38
    c89a:	f7ff fbcf 	bl	c03c <printk_putc>
D:\zhangqiang\毕设\experiment\UE\User_NB-IoT_Frame(KL36)(A.50)-190816\Debug/../05_UserBoard/printf.c:653
    c89e:	e54a      	b.n	c336 <printk+0x5a>
D:\zhangqiang\毕设\experiment\UE\User_NB-IoT_Frame(KL36)(A.50)-190816\Debug/../05_UserBoard/printf.c:619
    c8a0:	9b06      	ldr	r3, [sp, #24]
    c8a2:	469b      	mov	fp, r3
    c8a4:	e547      	b.n	c336 <printk+0x5a>
D:\zhangqiang\毕设\experiment\UE\User_NB-IoT_Frame(KL36)(A.50)-190816\Debug/../05_UserBoard/printf.c:422
    c8a6:	2308      	movs	r3, #8
    c8a8:	402b      	ands	r3, r5
    c8aa:	4699      	mov	r9, r3
    c8ac:	d000      	beq.n	c8b0 <printk+0x5d4>
    c8ae:	e5fb      	b.n	c4a8 <printk+0x1cc>
D:\zhangqiang\毕设\experiment\UE\User_NB-IoT_Frame(KL36)(A.50)-190816\Debug/../05_UserBoard/printf.c:429
    c8b0:	07eb      	lsls	r3, r5, #31
    c8b2:	d500      	bpl.n	c8b6 <printk+0x5da>
    c8b4:	e5de      	b.n	c474 <printk+0x198>
D:\zhangqiang\毕设\experiment\UE\User_NB-IoT_Frame(KL36)(A.50)-190816\Debug/../05_UserBoard/printf.c:430
    c8b6:	9b01      	ldr	r3, [sp, #4]
    c8b8:	aa0e      	add	r2, sp, #56	; 0x38
    c8ba:	0021      	movs	r1, r4
    c8bc:	0038      	movs	r0, r7
    c8be:	f7ff fc1b 	bl	c0f8 <printk_pad_space>
D:\zhangqiang\毕设\experiment\UE\User_NB-IoT_Frame(KL36)(A.50)-190816\Debug/../05_UserBoard/printf.c:394
    c8c2:	9b06      	ldr	r3, [sp, #24]
    c8c4:	469b      	mov	fp, r3
    c8c6:	e782      	b.n	c7ce <printk+0x4f2>
D:\zhangqiang\毕设\experiment\UE\User_NB-IoT_Frame(KL36)(A.50)-190816\Debug/../05_UserBoard/printf.c:511
    c8c8:	2708      	movs	r7, #8
    c8ca:	402f      	ands	r7, r5
    c8cc:	d000      	beq.n	c8d0 <printk+0x5f4>
    c8ce:	e66d      	b.n	c5ac <printk+0x2d0>
D:\zhangqiang\毕设\experiment\UE\User_NB-IoT_Frame(KL36)(A.50)-190816\Debug/../05_UserBoard/printf.c:518
    c8d0:	07eb      	lsls	r3, r5, #31
    c8d2:	d500      	bpl.n	c8d6 <printk+0x5fa>
    c8d4:	e657      	b.n	c586 <printk+0x2aa>
D:\zhangqiang\毕设\experiment\UE\User_NB-IoT_Frame(KL36)(A.50)-190816\Debug/../05_UserBoard/printf.c:519
    c8d6:	9b01      	ldr	r3, [sp, #4]
    c8d8:	aa0e      	add	r2, sp, #56	; 0x38
    c8da:	0021      	movs	r1, r4
    c8dc:	0030      	movs	r0, r6
    c8de:	f7ff fc0b 	bl	c0f8 <printk_pad_space>
    c8e2:	e68f      	b.n	c604 <printk+0x328>
printk_pad_zero():
D:\zhangqiang\毕设\experiment\UE\User_NB-IoT_Frame(KL36)(A.50)-190816\Debug/../05_UserBoard/printf.c:182
    c8e4:	0027      	movs	r7, r4
printk():
D:\zhangqiang\毕设\experiment\UE\User_NB-IoT_Frame(KL36)(A.50)-190816\Debug/../05_UserBoard/printf.c:541
    c8e6:	9b06      	ldr	r3, [sp, #24]
    c8e8:	469b      	mov	fp, r3
    c8ea:	e753      	b.n	c794 <printk+0x4b8>
D:\zhangqiang\毕设\experiment\UE\User_NB-IoT_Frame(KL36)(A.50)-190816\Debug/../05_UserBoard/printf.c:560
    c8ec:	9b01      	ldr	r3, [sp, #4]
    c8ee:	aa0e      	add	r2, sp, #56	; 0x38
    c8f0:	0021      	movs	r1, r4
    c8f2:	f7ff fc01 	bl	c0f8 <printk_pad_space>
D:\zhangqiang\毕设\experiment\UE\User_NB-IoT_Frame(KL36)(A.50)-190816\Debug/../05_UserBoard/printf.c:541
    c8f6:	9b06      	ldr	r3, [sp, #24]
    c8f8:	469b      	mov	fp, r3
    c8fa:	e74b      	b.n	c794 <printk+0x4b8>
D:\zhangqiang\毕设\experiment\UE\User_NB-IoT_Frame(KL36)(A.50)-190816\Debug/../05_UserBoard/printf.c:569
    c8fc:	06eb      	lsls	r3, r5, #27
    c8fe:	d500      	bpl.n	c902 <printk+0x626>
    c900:	e6f1      	b.n	c6e6 <printk+0x40a>
D:\zhangqiang\毕设\experiment\UE\User_NB-IoT_Frame(KL36)(A.50)-190816\Debug/../05_UserBoard/printf.c:605
    c902:	2000      	movs	r0, #0
    c904:	5630      	ldrsb	r0, [r6, r0]
D:\zhangqiang\毕设\experiment\UE\User_NB-IoT_Frame(KL36)(A.50)-190816\Debug/../05_UserBoard/printf.c:541
    c906:	9b06      	ldr	r3, [sp, #24]
    c908:	469b      	mov	fp, r3
D:\zhangqiang\毕设\experiment\UE\User_NB-IoT_Frame(KL36)(A.50)-190816\Debug/../05_UserBoard/printf.c:605
    c90a:	2800      	cmp	r0, #0
    c90c:	d000      	beq.n	c910 <printk+0x634>
    c90e:	e745      	b.n	c79c <printk+0x4c0>
    c910:	e750      	b.n	c7b4 <printk+0x4d8>
D:\zhangqiang\毕设\experiment\UE\User_NB-IoT_Frame(KL36)(A.50)-190816\Debug/../05_UserBoard/printf.c:656
    c912:	980e      	ldr	r0, [sp, #56]	; 0x38
D:\zhangqiang\毕设\experiment\UE\User_NB-IoT_Frame(KL36)(A.50)-190816\Debug/../05_UserBoard/printf.c:657
    c914:	b019      	add	sp, #100	; 0x64
    c916:	bc3c      	pop	{r2, r3, r4, r5}
    c918:	4690      	mov	r8, r2
    c91a:	4699      	mov	r9, r3
    c91c:	46a2      	mov	sl, r4
    c91e:	46ab      	mov	fp, r5
    c920:	bdf0      	pop	{r4, r5, r6, r7, pc}
    c922:	46c0      	nop			; (mov r8, r8)

0000c924 <myprintf>:
myprintf():
D:\zhangqiang\毕设\experiment\UE\User_NB-IoT_Frame(KL36)(A.50)-190816\Debug/../05_UserBoard/printf.c:666
    c924:	b40f      	push	{r0, r1, r2, r3}
    c926:	b500      	push	{lr}
    c928:	b085      	sub	sp, #20
D:\zhangqiang\毕设\experiment\UE\User_NB-IoT_Frame(KL36)(A.50)-190816\Debug/../05_UserBoard/printf.c:670
    c92a:	2301      	movs	r3, #1
    c92c:	9301      	str	r3, [sp, #4]
D:\zhangqiang\毕设\experiment\UE\User_NB-IoT_Frame(KL36)(A.50)-190816\Debug/../05_UserBoard/printf.c:671
    c92e:	4b05      	ldr	r3, [pc, #20]	; (c944 <myprintf+0x20>)
    c930:	9302      	str	r3, [sp, #8]
D:\zhangqiang\毕设\experiment\UE\User_NB-IoT_Frame(KL36)(A.50)-190816\Debug/../05_UserBoard/printf.c:673
    c932:	aa07      	add	r2, sp, #28
    c934:	9906      	ldr	r1, [sp, #24]
    c936:	a801      	add	r0, sp, #4
    c938:	f7ff fcd0 	bl	c2dc <printk>
D:\zhangqiang\毕设\experiment\UE\User_NB-IoT_Frame(KL36)(A.50)-190816\Debug/../05_UserBoard/printf.c:678
    c93c:	b005      	add	sp, #20
    c93e:	bc08      	pop	{r3}
    c940:	b004      	add	sp, #16
    c942:	4718      	bx	r3
    c944:	0000c025 	.word	0x0000c025

0000c948 <Int_Handler_init>:
Int_Handler_init():
D:\zhangqiang\毕设\experiment\UE\User_NB-IoT_Frame(KL36)(A.50)-190816\Debug/../04_GEC/Int_Handler_init.c:19
    c948:	b510      	push	{r4, lr}
D:\zhangqiang\毕设\experiment\UE\User_NB-IoT_Frame(KL36)(A.50)-190816\Debug/../04_GEC/Int_Handler_init.c:20
    c94a:	4c1c      	ldr	r4, [pc, #112]	; (c9bc <Int_Handler_init+0x74>)
    c94c:	6823      	ldr	r3, [r4, #0]
    c94e:	68db      	ldr	r3, [r3, #12]
    c950:	491b      	ldr	r1, [pc, #108]	; (c9c0 <Int_Handler_init+0x78>)
    c952:	201e      	movs	r0, #30
    c954:	4798      	blx	r3
D:\zhangqiang\毕设\experiment\UE\User_NB-IoT_Frame(KL36)(A.50)-190816\Debug/../04_GEC/Int_Handler_init.c:21
    c956:	6823      	ldr	r3, [r4, #0]
    c958:	68db      	ldr	r3, [r3, #12]
    c95a:	491a      	ldr	r1, [pc, #104]	; (c9c4 <Int_Handler_init+0x7c>)
    c95c:	201f      	movs	r0, #31
    c95e:	4798      	blx	r3
D:\zhangqiang\毕设\experiment\UE\User_NB-IoT_Frame(KL36)(A.50)-190816\Debug/../04_GEC/Int_Handler_init.c:22
    c960:	6823      	ldr	r3, [r4, #0]
    c962:	68db      	ldr	r3, [r3, #12]
    c964:	4918      	ldr	r1, [pc, #96]	; (c9c8 <Int_Handler_init+0x80>)
    c966:	200c      	movs	r0, #12
    c968:	4798      	blx	r3
D:\zhangqiang\毕设\experiment\UE\User_NB-IoT_Frame(KL36)(A.50)-190816\Debug/../04_GEC/Int_Handler_init.c:23
    c96a:	6823      	ldr	r3, [r4, #0]
    c96c:	68db      	ldr	r3, [r3, #12]
    c96e:	4917      	ldr	r1, [pc, #92]	; (c9cc <Int_Handler_init+0x84>)
    c970:	201c      	movs	r0, #28
    c972:	4798      	blx	r3
D:\zhangqiang\毕设\experiment\UE\User_NB-IoT_Frame(KL36)(A.50)-190816\Debug/../04_GEC/Int_Handler_init.c:24
    c974:	6823      	ldr	r3, [r4, #0]
    c976:	68db      	ldr	r3, [r3, #12]
    c978:	4915      	ldr	r1, [pc, #84]	; (c9d0 <Int_Handler_init+0x88>)
    c97a:	2012      	movs	r0, #18
    c97c:	4798      	blx	r3
D:\zhangqiang\毕设\experiment\UE\User_NB-IoT_Frame(KL36)(A.50)-190816\Debug/../04_GEC/Int_Handler_init.c:25
    c97e:	6823      	ldr	r3, [r4, #0]
    c980:	68db      	ldr	r3, [r3, #12]
    c982:	4914      	ldr	r1, [pc, #80]	; (c9d4 <Int_Handler_init+0x8c>)
    c984:	200a      	movs	r0, #10
    c986:	4798      	blx	r3
D:\zhangqiang\毕设\experiment\UE\User_NB-IoT_Frame(KL36)(A.50)-190816\Debug/../04_GEC/Int_Handler_init.c:26
    c988:	6823      	ldr	r3, [r4, #0]
    c98a:	68db      	ldr	r3, [r3, #12]
    c98c:	4912      	ldr	r1, [pc, #72]	; (c9d8 <Int_Handler_init+0x90>)
    c98e:	200b      	movs	r0, #11
    c990:	4798      	blx	r3
D:\zhangqiang\毕设\experiment\UE\User_NB-IoT_Frame(KL36)(A.50)-190816\Debug/../04_GEC/Int_Handler_init.c:27
    c992:	6823      	ldr	r3, [r4, #0]
    c994:	68db      	ldr	r3, [r3, #12]
    c996:	4911      	ldr	r1, [pc, #68]	; (c9dc <Int_Handler_init+0x94>)
    c998:	2008      	movs	r0, #8
    c99a:	4798      	blx	r3
D:\zhangqiang\毕设\experiment\UE\User_NB-IoT_Frame(KL36)(A.50)-190816\Debug/../04_GEC/Int_Handler_init.c:28
    c99c:	6823      	ldr	r3, [r4, #0]
    c99e:	68db      	ldr	r3, [r3, #12]
    c9a0:	490f      	ldr	r1, [pc, #60]	; (c9e0 <Int_Handler_init+0x98>)
    c9a2:	2009      	movs	r0, #9
    c9a4:	4798      	blx	r3
D:\zhangqiang\毕设\experiment\UE\User_NB-IoT_Frame(KL36)(A.50)-190816\Debug/../04_GEC/Int_Handler_init.c:29
    c9a6:	6823      	ldr	r3, [r4, #0]
    c9a8:	68db      	ldr	r3, [r3, #12]
    c9aa:	490e      	ldr	r1, [pc, #56]	; (c9e4 <Int_Handler_init+0x9c>)
    c9ac:	201a      	movs	r0, #26
    c9ae:	4798      	blx	r3
D:\zhangqiang\毕设\experiment\UE\User_NB-IoT_Frame(KL36)(A.50)-190816\Debug/../04_GEC/Int_Handler_init.c:30
    c9b0:	6823      	ldr	r3, [r4, #0]
    c9b2:	68db      	ldr	r3, [r3, #12]
    c9b4:	490c      	ldr	r1, [pc, #48]	; (c9e8 <Int_Handler_init+0xa0>)
    c9b6:	2011      	movs	r0, #17
    c9b8:	4798      	blx	r3
D:\zhangqiang\毕设\experiment\UE\User_NB-IoT_Frame(KL36)(A.50)-190816\Debug/../04_GEC/Int_Handler_init.c:32
    c9ba:	bd10      	pop	{r4, pc}
    c9bc:	20000568 	.word	0x20000568
    c9c0:	00009bf3 	.word	0x00009bf3
    c9c4:	00009bf9 	.word	0x00009bf9
    c9c8:	00009c01 	.word	0x00009c01
    c9cc:	00009cbf 	.word	0x00009cbf
    c9d0:	00009cd3 	.word	0x00009cd3
    c9d4:	00009c3d 	.word	0x00009c3d
    c9d8:	00009c43 	.word	0x00009c43
    c9dc:	00009c49 	.word	0x00009c49
    c9e0:	00009c4f 	.word	0x00009c4f
    c9e4:	00009c55 	.word	0x00009c55
    c9e8:	00009cb9 	.word	0x00009cb9

0000c9ec <BIOS_API_Init>:
BIOS_API_Init():
D:\zhangqiang\毕设\experiment\UE\User_NB-IoT_Frame(KL36)(A.50)-190816\Debug/../04_GEC/Int_Handler_init.c:8
    c9ec:	b570      	push	{r4, r5, r6, lr}
svc1_init():
D:\zhangqiang\毕设\experiment\UE\User_NB-IoT_Frame(KL36)(A.50)-190816\06_SoftComponent/common.h:83
    c9ee:	b450      	push	{r4, r6}
    c9f0:	2601      	movs	r6, #1
__get_PRIMASK():
D:\zhangqiang\毕设\experiment\UE\User_NB-IoT_Frame(KL36)(A.50)-190816\02_Core/core_cmFunc.h:484
    c9f2:	f3ef 8310 	mrs	r3, PRIMASK
svc1_init():
D:\zhangqiang\毕设\experiment\UE\User_NB-IoT_Frame(KL36)(A.50)-190816\06_SoftComponent/common.h:83
    c9f6:	2b00      	cmp	r3, #0
    c9f8:	d008      	beq.n	ca0c <BIOS_API_Init+0x20>
    c9fa:	b662      	cpsie	i
    c9fc:	df01      	svc	1
    c9fe:	b672      	cpsid	i
    ca00:	bc50      	pop	{r4, r6}
BIOS_API_Init():
D:\zhangqiang\毕设\experiment\UE\User_NB-IoT_Frame(KL36)(A.50)-190816\Debug/../04_GEC/Int_Handler_init.c:9
    ca02:	4b03      	ldr	r3, [pc, #12]	; (ca10 <BIOS_API_Init+0x24>)
    ca04:	6018      	str	r0, [r3, #0]
D:\zhangqiang\毕设\experiment\UE\User_NB-IoT_Frame(KL36)(A.50)-190816\Debug/../04_GEC/Int_Handler_init.c:10
    ca06:	f7ff ff9f 	bl	c948 <Int_Handler_init>
D:\zhangqiang\毕设\experiment\UE\User_NB-IoT_Frame(KL36)(A.50)-190816\Debug/../04_GEC/Int_Handler_init.c:11
    ca0a:	bd70      	pop	{r4, r5, r6, pc}
svc1_init():
D:\zhangqiang\毕设\experiment\UE\User_NB-IoT_Frame(KL36)(A.50)-190816\06_SoftComponent/common.h:83
    ca0c:	df01      	svc	1
    ca0e:	e7f7      	b.n	ca00 <BIOS_API_Init+0x14>
    ca10:	20000568 	.word	0x20000568

0000ca14 <SystemInit>:
SystemInit():
D:\zhangqiang\毕设\experiment\UE\User_NB-IoT_Frame(KL36)(A.50)-190816\Debug/../03_MCU/startup/system_MKL36Z4.c:114
    ca14:	4b26      	ldr	r3, [pc, #152]	; (cab0 <SystemInit+0x9c>)
    ca16:	4a27      	ldr	r2, [pc, #156]	; (cab4 <SystemInit+0xa0>)
    ca18:	21c0      	movs	r1, #192	; 0xc0
    ca1a:	0289      	lsls	r1, r1, #10
    ca1c:	5099      	str	r1, [r3, r2]
D:\zhangqiang\毕设\experiment\UE\User_NB-IoT_Frame(KL36)(A.50)-190816\Debug/../03_MCU/startup/system_MKL36Z4.c:116
    ca1e:	4926      	ldr	r1, [pc, #152]	; (cab8 <SystemInit+0xa4>)
    ca20:	5858      	ldr	r0, [r3, r1]
    ca22:	2280      	movs	r2, #128	; 0x80
    ca24:	0092      	lsls	r2, r2, #2
    ca26:	4302      	orrs	r2, r0
    ca28:	505a      	str	r2, [r3, r1]
D:\zhangqiang\毕设\experiment\UE\User_NB-IoT_Frame(KL36)(A.50)-190816\Debug/../03_MCU/startup/system_MKL36Z4.c:117
    ca2a:	4b24      	ldr	r3, [pc, #144]	; (cabc <SystemInit+0xa8>)
    ca2c:	789b      	ldrb	r3, [r3, #2]
    ca2e:	071b      	lsls	r3, r3, #28
    ca30:	d504      	bpl.n	ca3c <SystemInit+0x28>
D:\zhangqiang\毕设\experiment\UE\User_NB-IoT_Frame(KL36)(A.50)-190816\Debug/../03_MCU/startup/system_MKL36Z4.c:119
    ca32:	4a22      	ldr	r2, [pc, #136]	; (cabc <SystemInit+0xa8>)
    ca34:	7893      	ldrb	r3, [r2, #2]
    ca36:	2108      	movs	r1, #8
    ca38:	430b      	orrs	r3, r1
    ca3a:	7093      	strb	r3, [r2, #2]
D:\zhangqiang\毕设\experiment\UE\User_NB-IoT_Frame(KL36)(A.50)-190816\Debug/../03_MCU/startup/system_MKL36Z4.c:122
    ca3c:	4b1c      	ldr	r3, [pc, #112]	; (cab0 <SystemInit+0x9c>)
    ca3e:	4a1d      	ldr	r2, [pc, #116]	; (cab4 <SystemInit+0xa0>)
    ca40:	2180      	movs	r1, #128	; 0x80
    ca42:	0249      	lsls	r1, r1, #9
    ca44:	5099      	str	r1, [r3, r2]
D:\zhangqiang\毕设\experiment\UE\User_NB-IoT_Frame(KL36)(A.50)-190816\Debug/../03_MCU/startup/system_MKL36Z4.c:124
    ca46:	4a1e      	ldr	r2, [pc, #120]	; (cac0 <SystemInit+0xac>)
    ca48:	5899      	ldr	r1, [r3, r2]
    ca4a:	481e      	ldr	r0, [pc, #120]	; (cac4 <SystemInit+0xb0>)
    ca4c:	4001      	ands	r1, r0
    ca4e:	5099      	str	r1, [r3, r2]
D:\zhangqiang\毕设\experiment\UE\User_NB-IoT_Frame(KL36)(A.50)-190816\Debug/../03_MCU/startup/system_MKL36Z4.c:126
    ca50:	6819      	ldr	r1, [r3, #0]
    ca52:	481d      	ldr	r0, [pc, #116]	; (cac8 <SystemInit+0xb4>)
    ca54:	4001      	ands	r1, r0
    ca56:	6019      	str	r1, [r3, #0]
D:\zhangqiang\毕设\experiment\UE\User_NB-IoT_Frame(KL36)(A.50)-190816\Debug/../03_MCU/startup/system_MKL36Z4.c:128
    ca58:	5899      	ldr	r1, [r3, r2]
    ca5a:	481c      	ldr	r0, [pc, #112]	; (cacc <SystemInit+0xb8>)
    ca5c:	4008      	ands	r0, r1
    ca5e:	2180      	movs	r1, #128	; 0x80
    ca60:	0449      	lsls	r1, r1, #17
    ca62:	4301      	orrs	r1, r0
    ca64:	5099      	str	r1, [r3, r2]
D:\zhangqiang\毕设\experiment\UE\User_NB-IoT_Frame(KL36)(A.50)-190816\Debug/../03_MCU/startup/system_MKL36Z4.c:135
    ca66:	4b1a      	ldr	r3, [pc, #104]	; (cad0 <SystemInit+0xbc>)
    ca68:	2206      	movs	r2, #6
    ca6a:	701a      	strb	r2, [r3, #0]
D:\zhangqiang\毕设\experiment\UE\User_NB-IoT_Frame(KL36)(A.50)-190816\Debug/../03_MCU/startup/system_MKL36Z4.c:140
    ca6c:	785a      	ldrb	r2, [r3, #1]
    ca6e:	2140      	movs	r1, #64	; 0x40
    ca70:	400a      	ands	r2, r1
    ca72:	705a      	strb	r2, [r3, #1]
D:\zhangqiang\毕设\experiment\UE\User_NB-IoT_Frame(KL36)(A.50)-190816\Debug/../03_MCU/startup/system_MKL36Z4.c:149
    ca74:	78da      	ldrb	r2, [r3, #3]
D:\zhangqiang\毕设\experiment\UE\User_NB-IoT_Frame(KL36)(A.50)-190816\Debug/../03_MCU/startup/system_MKL36Z4.c:151
    ca76:	3921      	subs	r1, #33	; 0x21
    ca78:	400a      	ands	r2, r1
    ca7a:	3181      	adds	r1, #129	; 0x81
D:\zhangqiang\毕设\experiment\UE\User_NB-IoT_Frame(KL36)(A.50)-190816\Debug/../03_MCU/startup/system_MKL36Z4.c:149
    ca7c:	430a      	orrs	r2, r1
    ca7e:	70da      	strb	r2, [r3, #3]
D:\zhangqiang\毕设\experiment\UE\User_NB-IoT_Frame(KL36)(A.50)-190816\Debug/../03_MCU/startup/system_MKL36Z4.c:156
    ca80:	2200      	movs	r2, #0
    ca82:	4914      	ldr	r1, [pc, #80]	; (cad4 <SystemInit+0xc0>)
    ca84:	700a      	strb	r2, [r1, #0]
D:\zhangqiang\毕设\experiment\UE\User_NB-IoT_Frame(KL36)(A.50)-190816\Debug/../03_MCU/startup/system_MKL36Z4.c:158
    ca86:	711a      	strb	r2, [r3, #4]
D:\zhangqiang\毕设\experiment\UE\User_NB-IoT_Frame(KL36)(A.50)-190816\Debug/../03_MCU/startup/system_MKL36Z4.c:160
    ca88:	715a      	strb	r2, [r3, #5]
D:\zhangqiang\毕设\experiment\UE\User_NB-IoT_Frame(KL36)(A.50)-190816\Debug/../03_MCU/startup/system_MKL36Z4.c:161
    ca8a:	0019      	movs	r1, r3
    ca8c:	3210      	adds	r2, #16
D:\zhangqiang\毕设\experiment\UE\User_NB-IoT_Frame(KL36)(A.50)-190816\Debug/../03_MCU/startup/system_MKL36Z4.c:161 (discriminator 1)
    ca8e:	798b      	ldrb	r3, [r1, #6]
    ca90:	4213      	tst	r3, r2
    ca92:	d0fc      	beq.n	ca8e <SystemInit+0x7a>
D:\zhangqiang\毕设\experiment\UE\User_NB-IoT_Frame(KL36)(A.50)-190816\Debug/../03_MCU/startup/system_MKL36Z4.c:163
    ca94:	490e      	ldr	r1, [pc, #56]	; (cad0 <SystemInit+0xbc>)
    ca96:	220c      	movs	r2, #12
D:\zhangqiang\毕设\experiment\UE\User_NB-IoT_Frame(KL36)(A.50)-190816\Debug/../03_MCU/startup/system_MKL36Z4.c:163 (discriminator 1)
    ca98:	798b      	ldrb	r3, [r1, #6]
    ca9a:	4213      	tst	r3, r2
    ca9c:	d1fc      	bne.n	ca98 <SystemInit+0x84>
D:\zhangqiang\毕设\experiment\UE\User_NB-IoT_Frame(KL36)(A.50)-190816\Debug/../03_MCU/startup/system_MKL36Z4.c:236
    ca9e:	4904      	ldr	r1, [pc, #16]	; (cab0 <SystemInit+0x9c>)
    caa0:	4a05      	ldr	r2, [pc, #20]	; (cab8 <SystemInit+0xa4>)
    caa2:	5888      	ldr	r0, [r1, r2]
    caa4:	23f8      	movs	r3, #248	; 0xf8
    caa6:	019b      	lsls	r3, r3, #6
    caa8:	4303      	orrs	r3, r0
    caaa:	508b      	str	r3, [r1, r2]
D:\zhangqiang\毕设\experiment\UE\User_NB-IoT_Frame(KL36)(A.50)-190816\Debug/../03_MCU/startup/system_MKL36Z4.c:242
    caac:	4770      	bx	lr
    caae:	46c0      	nop			; (mov r8, r8)
    cab0:	40047000 	.word	0x40047000
    cab4:	00001044 	.word	0x00001044
    cab8:	00001038 	.word	0x00001038
    cabc:	4007d000 	.word	0x4007d000
    cac0:	00001004 	.word	0x00001004
    cac4:	fffcffff 	.word	0xfffcffff
    cac8:	fff3ffff 	.word	0xfff3ffff
    cacc:	fcffffff 	.word	0xfcffffff
    cad0:	40064000 	.word	0x40064000
    cad4:	40065000 	.word	0x40065000

0000cad8 <adc_read_inner>:
adc_read_inner():
D:\zhangqiang\毕设\experiment\UE\User_NB-IoT_Frame(KL36)(A.50)-190816\Debug/../03_MCU/MCU_drivers/adc.c:121
    cad8:	231f      	movs	r3, #31
    cada:	4018      	ands	r0, r3
    cadc:	4b07      	ldr	r3, [pc, #28]	; (cafc <adc_read_inner+0x24>)
    cade:	6018      	str	r0, [r3, #0]
D:\zhangqiang\毕设\experiment\UE\User_NB-IoT_Frame(KL36)(A.50)-190816\Debug/../03_MCU/MCU_drivers/adc.c:123
    cae0:	0019      	movs	r1, r3
    cae2:	2280      	movs	r2, #128	; 0x80
D:\zhangqiang\毕设\experiment\UE\User_NB-IoT_Frame(KL36)(A.50)-190816\Debug/../03_MCU/MCU_drivers/adc.c:123 (discriminator 1)
    cae4:	680b      	ldr	r3, [r1, #0]
    cae6:	421a      	tst	r2, r3
    cae8:	d0fc      	beq.n	cae4 <adc_read_inner+0xc>
D:\zhangqiang\毕设\experiment\UE\User_NB-IoT_Frame(KL36)(A.50)-190816\Debug/../03_MCU/MCU_drivers/adc.c:125
    caea:	4b04      	ldr	r3, [pc, #16]	; (cafc <adc_read_inner+0x24>)
    caec:	6918      	ldr	r0, [r3, #16]
D:\zhangqiang\毕设\experiment\UE\User_NB-IoT_Frame(KL36)(A.50)-190816\Debug/../03_MCU/MCU_drivers/adc.c:127
    caee:	681a      	ldr	r2, [r3, #0]
    caf0:	2180      	movs	r1, #128	; 0x80
    caf2:	438a      	bics	r2, r1
    caf4:	601a      	str	r2, [r3, #0]
D:\zhangqiang\毕设\experiment\UE\User_NB-IoT_Frame(KL36)(A.50)-190816\Debug/../03_MCU/MCU_drivers/adc.c:129
    caf6:	b280      	uxth	r0, r0
D:\zhangqiang\毕设\experiment\UE\User_NB-IoT_Frame(KL36)(A.50)-190816\Debug/../03_MCU/MCU_drivers/adc.c:130
    caf8:	4770      	bx	lr
    cafa:	46c0      	nop			; (mov r8, r8)
    cafc:	4003b000 	.word	0x4003b000

0000cb00 <adc_read>:
adc_read():
D:\zhangqiang\毕设\experiment\UE\User_NB-IoT_Frame(KL36)(A.50)-190816\Debug/../03_MCU/MCU_drivers/adc.c:44
    cb00:	b510      	push	{r4, lr}
D:\zhangqiang\毕设\experiment\UE\User_NB-IoT_Frame(KL36)(A.50)-190816\Debug/../03_MCU/MCU_drivers/adc.c:47
    cb02:	b2c0      	uxtb	r0, r0
    cb04:	f7ff ffe8 	bl	cad8 <adc_read_inner>
D:\zhangqiang\毕设\experiment\UE\User_NB-IoT_Frame(KL36)(A.50)-190816\Debug/../03_MCU/MCU_drivers/adc.c:48
    cb08:	bd10      	pop	{r4, pc}
	...

0000cb0c <adc_cal>:
adc_cal():
D:\zhangqiang\毕设\experiment\UE\User_NB-IoT_Frame(KL36)(A.50)-190816\Debug/../03_MCU/MCU_drivers/adc.c:143
    cb0c:	4b1e      	ldr	r3, [pc, #120]	; (cb88 <adc_cal+0x7c>)
    cb0e:	6a1a      	ldr	r2, [r3, #32]
    cb10:	2140      	movs	r1, #64	; 0x40
    cb12:	438a      	bics	r2, r1
    cb14:	621a      	str	r2, [r3, #32]
D:\zhangqiang\毕设\experiment\UE\User_NB-IoT_Frame(KL36)(A.50)-190816\Debug/../03_MCU/MCU_drivers/adc.c:144
    cb16:	6a5a      	ldr	r2, [r3, #36]	; 0x24
    cb18:	3935      	subs	r1, #53	; 0x35
    cb1a:	438a      	bics	r2, r1
    cb1c:	625a      	str	r2, [r3, #36]	; 0x24
D:\zhangqiang\毕设\experiment\UE\User_NB-IoT_Frame(KL36)(A.50)-190816\Debug/../03_MCU/MCU_drivers/adc.c:145
    cb1e:	6a5a      	ldr	r2, [r3, #36]	; 0x24
    cb20:	3904      	subs	r1, #4
    cb22:	430a      	orrs	r2, r1
    cb24:	625a      	str	r2, [r3, #36]	; 0x24
D:\zhangqiang\毕设\experiment\UE\User_NB-IoT_Frame(KL36)(A.50)-190816\Debug/../03_MCU/MCU_drivers/adc.c:146
    cb26:	6a5a      	ldr	r2, [r3, #36]	; 0x24
    cb28:	3179      	adds	r1, #121	; 0x79
    cb2a:	430a      	orrs	r2, r1
    cb2c:	625a      	str	r2, [r3, #36]	; 0x24
D:\zhangqiang\毕设\experiment\UE\User_NB-IoT_Frame(KL36)(A.50)-190816\Debug/../03_MCU/MCU_drivers/adc.c:147
    cb2e:	0019      	movs	r1, r3
    cb30:	2280      	movs	r2, #128	; 0x80
D:\zhangqiang\毕设\experiment\UE\User_NB-IoT_Frame(KL36)(A.50)-190816\Debug/../03_MCU/MCU_drivers/adc.c:147 (discriminator 1)
    cb32:	680b      	ldr	r3, [r1, #0]
    cb34:	421a      	tst	r2, r3
    cb36:	d0fc      	beq.n	cb32 <adc_cal+0x26>
D:\zhangqiang\毕设\experiment\UE\User_NB-IoT_Frame(KL36)(A.50)-190816\Debug/../03_MCU/MCU_drivers/adc.c:149
    cb38:	4b13      	ldr	r3, [pc, #76]	; (cb88 <adc_cal+0x7c>)
    cb3a:	6a5b      	ldr	r3, [r3, #36]	; 0x24
    cb3c:	065b      	lsls	r3, r3, #25
    cb3e:	d420      	bmi.n	cb82 <adc_cal+0x76>
D:\zhangqiang\毕设\experiment\UE\User_NB-IoT_Frame(KL36)(A.50)-190816\Debug/../03_MCU/MCU_drivers/adc.c:153
    cb40:	4b11      	ldr	r3, [pc, #68]	; (cb88 <adc_cal+0x7c>)
    cb42:	6cda      	ldr	r2, [r3, #76]	; 0x4c
D:\zhangqiang\毕设\experiment\UE\User_NB-IoT_Frame(KL36)(A.50)-190816\Debug/../03_MCU/MCU_drivers/adc.c:154
    cb44:	6c99      	ldr	r1, [r3, #72]	; 0x48
    cb46:	1852      	adds	r2, r2, r1
D:\zhangqiang\毕设\experiment\UE\User_NB-IoT_Frame(KL36)(A.50)-190816\Debug/../03_MCU/MCU_drivers/adc.c:155
    cb48:	6c59      	ldr	r1, [r3, #68]	; 0x44
    cb4a:	1852      	adds	r2, r2, r1
D:\zhangqiang\毕设\experiment\UE\User_NB-IoT_Frame(KL36)(A.50)-190816\Debug/../03_MCU/MCU_drivers/adc.c:156
    cb4c:	6c19      	ldr	r1, [r3, #64]	; 0x40
    cb4e:	1852      	adds	r2, r2, r1
D:\zhangqiang\毕设\experiment\UE\User_NB-IoT_Frame(KL36)(A.50)-190816\Debug/../03_MCU/MCU_drivers/adc.c:157
    cb50:	6bd9      	ldr	r1, [r3, #60]	; 0x3c
    cb52:	1852      	adds	r2, r2, r1
D:\zhangqiang\毕设\experiment\UE\User_NB-IoT_Frame(KL36)(A.50)-190816\Debug/../03_MCU/MCU_drivers/adc.c:158
    cb54:	6b99      	ldr	r1, [r3, #56]	; 0x38
    cb56:	1852      	adds	r2, r2, r1
    cb58:	b2d2      	uxtb	r2, r2
D:\zhangqiang\毕设\experiment\UE\User_NB-IoT_Frame(KL36)(A.50)-190816\Debug/../03_MCU/MCU_drivers/adc.c:162
    cb5a:	0852      	lsrs	r2, r2, #1
    cb5c:	62da      	str	r2, [r3, #44]	; 0x2c
D:\zhangqiang\毕设\experiment\UE\User_NB-IoT_Frame(KL36)(A.50)-190816\Debug/../03_MCU/MCU_drivers/adc.c:166
    cb5e:	6eda      	ldr	r2, [r3, #108]	; 0x6c
D:\zhangqiang\毕设\experiment\UE\User_NB-IoT_Frame(KL36)(A.50)-190816\Debug/../03_MCU/MCU_drivers/adc.c:167
    cb60:	6e99      	ldr	r1, [r3, #104]	; 0x68
    cb62:	1852      	adds	r2, r2, r1
D:\zhangqiang\毕设\experiment\UE\User_NB-IoT_Frame(KL36)(A.50)-190816\Debug/../03_MCU/MCU_drivers/adc.c:168
    cb64:	6e59      	ldr	r1, [r3, #100]	; 0x64
    cb66:	1852      	adds	r2, r2, r1
D:\zhangqiang\毕设\experiment\UE\User_NB-IoT_Frame(KL36)(A.50)-190816\Debug/../03_MCU/MCU_drivers/adc.c:169
    cb68:	6e19      	ldr	r1, [r3, #96]	; 0x60
    cb6a:	1852      	adds	r2, r2, r1
D:\zhangqiang\毕设\experiment\UE\User_NB-IoT_Frame(KL36)(A.50)-190816\Debug/../03_MCU/MCU_drivers/adc.c:170
    cb6c:	6dd9      	ldr	r1, [r3, #92]	; 0x5c
    cb6e:	1852      	adds	r2, r2, r1
D:\zhangqiang\毕设\experiment\UE\User_NB-IoT_Frame(KL36)(A.50)-190816\Debug/../03_MCU/MCU_drivers/adc.c:171
    cb70:	6d99      	ldr	r1, [r3, #88]	; 0x58
    cb72:	1852      	adds	r2, r2, r1
    cb74:	b2d2      	uxtb	r2, r2
D:\zhangqiang\毕设\experiment\UE\User_NB-IoT_Frame(KL36)(A.50)-190816\Debug/../03_MCU/MCU_drivers/adc.c:175
    cb76:	0852      	lsrs	r2, r2, #1
    cb78:	631a      	str	r2, [r3, #48]	; 0x30
D:\zhangqiang\毕设\experiment\UE\User_NB-IoT_Frame(KL36)(A.50)-190816\Debug/../03_MCU/MCU_drivers/adc.c:176
    cb7a:	6a5a      	ldr	r2, [r3, #36]	; 0x24
    cb7c:	2180      	movs	r1, #128	; 0x80
    cb7e:	438a      	bics	r2, r1
    cb80:	625a      	str	r2, [r3, #36]	; 0x24
D:\zhangqiang\毕设\experiment\UE\User_NB-IoT_Frame(KL36)(A.50)-190816\Debug/../03_MCU/MCU_drivers/adc.c:178
    cb82:	46c0      	nop			; (mov r8, r8)
D:\zhangqiang\毕设\experiment\UE\User_NB-IoT_Frame(KL36)(A.50)-190816\Debug/../03_MCU/MCU_drivers/adc.c:179
    cb84:	4770      	bx	lr
    cb86:	46c0      	nop			; (mov r8, r8)
    cb88:	4003b000 	.word	0x4003b000

0000cb8c <adc_init_inner>:
adc_init_inner():
D:\zhangqiang\毕设\experiment\UE\User_NB-IoT_Frame(KL36)(A.50)-190816\Debug/../03_MCU/MCU_drivers/adc.c:60
    cb8c:	b5f8      	push	{r3, r4, r5, r6, r7, lr}
D:\zhangqiang\毕设\experiment\UE\User_NB-IoT_Frame(KL36)(A.50)-190816\Debug/../03_MCU/MCU_drivers/adc.c:64
    cb8e:	4e24      	ldr	r6, [pc, #144]	; (cc20 <adc_init_inner+0x94>)
    cb90:	4d24      	ldr	r5, [pc, #144]	; (cc24 <adc_init_inner+0x98>)
    cb92:	5977      	ldr	r7, [r6, r5]
    cb94:	2480      	movs	r4, #128	; 0x80
    cb96:	0524      	lsls	r4, r4, #20
    cb98:	433c      	orrs	r4, r7
    cb9a:	5174      	str	r4, [r6, r5]
D:\zhangqiang\毕设\experiment\UE\User_NB-IoT_Frame(KL36)(A.50)-190816\Debug/../03_MCU/MCU_drivers/adc.c:67
    cb9c:	3a08      	subs	r2, #8
    cb9e:	b2d4      	uxtb	r4, r2
    cba0:	2c05      	cmp	r4, #5
    cba2:	d807      	bhi.n	cbb4 <adc_init_inner+0x28>
    cba4:	00a2      	lsls	r2, r4, #2
    cba6:	4c20      	ldr	r4, [pc, #128]	; (cc28 <adc_init_inner+0x9c>)
    cba8:	58a2      	ldr	r2, [r4, r2]
    cbaa:	4697      	mov	pc, r2
D:\zhangqiang\毕设\experiment\UE\User_NB-IoT_Frame(KL36)(A.50)-190816\Debug/../03_MCU/MCU_drivers/adc.c:73
    cbac:	2204      	movs	r2, #4
    cbae:	e004      	b.n	cbba <adc_init_inner+0x2e>
D:\zhangqiang\毕设\experiment\UE\User_NB-IoT_Frame(KL36)(A.50)-190816\Debug/../03_MCU/MCU_drivers/adc.c:76
    cbb0:	2208      	movs	r2, #8
D:\zhangqiang\毕设\experiment\UE\User_NB-IoT_Frame(KL36)(A.50)-190816\Debug/../03_MCU/MCU_drivers/adc.c:77
    cbb2:	e002      	b.n	cbba <adc_init_inner+0x2e>
D:\zhangqiang\毕设\experiment\UE\User_NB-IoT_Frame(KL36)(A.50)-190816\Debug/../03_MCU/MCU_drivers/adc.c:79
    cbb4:	220c      	movs	r2, #12
D:\zhangqiang\毕设\experiment\UE\User_NB-IoT_Frame(KL36)(A.50)-190816\Debug/../03_MCU/MCU_drivers/adc.c:80
    cbb6:	e000      	b.n	cbba <adc_init_inner+0x2e>
D:\zhangqiang\毕设\experiment\UE\User_NB-IoT_Frame(KL36)(A.50)-190816\Debug/../03_MCU/MCU_drivers/adc.c:70
    cbb8:	2200      	movs	r2, #0
D:\zhangqiang\毕设\experiment\UE\User_NB-IoT_Frame(KL36)(A.50)-190816\Debug/../03_MCU/MCU_drivers/adc.c:85
    cbba:	2451      	movs	r4, #81	; 0x51
    cbbc:	4322      	orrs	r2, r4
    cbbe:	4c1b      	ldr	r4, [pc, #108]	; (cc2c <adc_init_inner+0xa0>)
    cbc0:	60a2      	str	r2, [r4, #8]
D:\zhangqiang\毕设\experiment\UE\User_NB-IoT_Frame(KL36)(A.50)-190816\Debug/../03_MCU/MCU_drivers/adc.c:88
    cbc2:	68e2      	ldr	r2, [r4, #12]
    cbc4:	250f      	movs	r5, #15
    cbc6:	43aa      	bics	r2, r5
    cbc8:	60e2      	str	r2, [r4, #12]
D:\zhangqiang\毕设\experiment\UE\User_NB-IoT_Frame(KL36)(A.50)-190816\Debug/../03_MCU/MCU_drivers/adc.c:92
    cbca:	2801      	cmp	r0, #1
    cbcc:	d01b      	beq.n	cc06 <adc_init_inner+0x7a>
D:\zhangqiang\毕设\experiment\UE\User_NB-IoT_Frame(KL36)(A.50)-190816\Debug/../03_MCU/MCU_drivers/adc.c:92 (discriminator 2)
    cbce:	4817      	ldr	r0, [pc, #92]	; (cc2c <adc_init_inner+0xa0>)
    cbd0:	68c2      	ldr	r2, [r0, #12]
    cbd2:	2410      	movs	r4, #16
    cbd4:	43a2      	bics	r2, r4
    cbd6:	60c2      	str	r2, [r0, #12]
D:\zhangqiang\毕设\experiment\UE\User_NB-IoT_Frame(KL36)(A.50)-190816\Debug/../03_MCU/MCU_drivers/adc.c:94
    cbd8:	4814      	ldr	r0, [pc, #80]	; (cc2c <adc_init_inner+0xa0>)
    cbda:	2200      	movs	r2, #0
    cbdc:	6202      	str	r2, [r0, #32]
D:\zhangqiang\毕设\experiment\UE\User_NB-IoT_Frame(KL36)(A.50)-190816\Debug/../03_MCU/MCU_drivers/adc.c:96
    cbde:	6a44      	ldr	r4, [r0, #36]	; 0x24
    cbe0:	3203      	adds	r2, #3
    cbe2:	4013      	ands	r3, r2
    cbe4:	3209      	adds	r2, #9
    cbe6:	4322      	orrs	r2, r4
    cbe8:	4313      	orrs	r3, r2
    cbea:	6243      	str	r3, [r0, #36]	; 0x24
D:\zhangqiang\毕设\experiment\UE\User_NB-IoT_Frame(KL36)(A.50)-190816\Debug/../03_MCU/MCU_drivers/adc.c:99
    cbec:	2901      	cmp	r1, #1
    cbee:	d010      	beq.n	cc12 <adc_init_inner+0x86>
D:\zhangqiang\毕设\experiment\UE\User_NB-IoT_Frame(KL36)(A.50)-190816\Debug/../03_MCU/MCU_drivers/adc.c:106
    cbf0:	4a0e      	ldr	r2, [pc, #56]	; (cc2c <adc_init_inner+0xa0>)
    cbf2:	6813      	ldr	r3, [r2, #0]
    cbf4:	2120      	movs	r1, #32
    cbf6:	438b      	bics	r3, r1
    cbf8:	6013      	str	r3, [r2, #0]
D:\zhangqiang\毕设\experiment\UE\User_NB-IoT_Frame(KL36)(A.50)-190816\Debug/../03_MCU/MCU_drivers/adc.c:109
    cbfa:	4a0c      	ldr	r2, [pc, #48]	; (cc2c <adc_init_inner+0xa0>)
    cbfc:	6813      	ldr	r3, [r2, #0]
    cbfe:	2140      	movs	r1, #64	; 0x40
    cc00:	438b      	bics	r3, r1
    cc02:	6013      	str	r3, [r2, #0]
D:\zhangqiang\毕设\experiment\UE\User_NB-IoT_Frame(KL36)(A.50)-190816\Debug/../03_MCU/MCU_drivers/adc.c:110
    cc04:	bdf8      	pop	{r3, r4, r5, r6, r7, pc}
D:\zhangqiang\毕设\experiment\UE\User_NB-IoT_Frame(KL36)(A.50)-190816\Debug/../03_MCU/MCU_drivers/adc.c:92 (discriminator 1)
    cc06:	0020      	movs	r0, r4
    cc08:	68e2      	ldr	r2, [r4, #12]
    cc0a:	2410      	movs	r4, #16
    cc0c:	4322      	orrs	r2, r4
    cc0e:	60c2      	str	r2, [r0, #12]
    cc10:	e7e2      	b.n	cbd8 <adc_init_inner+0x4c>
D:\zhangqiang\毕设\experiment\UE\User_NB-IoT_Frame(KL36)(A.50)-190816\Debug/../03_MCU/MCU_drivers/adc.c:101
    cc12:	6803      	ldr	r3, [r0, #0]
    cc14:	311f      	adds	r1, #31
    cc16:	430b      	orrs	r3, r1
    cc18:	6003      	str	r3, [r0, #0]
D:\zhangqiang\毕设\experiment\UE\User_NB-IoT_Frame(KL36)(A.50)-190816\Debug/../03_MCU/MCU_drivers/adc.c:102
    cc1a:	f7ff ff77 	bl	cb0c <adc_cal>
    cc1e:	e7ec      	b.n	cbfa <adc_init_inner+0x6e>
    cc20:	40047000 	.word	0x40047000
    cc24:	0000103c 	.word	0x0000103c
    cc28:	0000e490 	.word	0x0000e490
    cc2c:	4003b000 	.word	0x4003b000

0000cc30 <adc_init>:
adc_init():
D:\zhangqiang\毕设\experiment\UE\User_NB-IoT_Frame(KL36)(A.50)-190816\Debug/../03_MCU/MCU_drivers/adc.c:25
    cc30:	b510      	push	{r4, lr}
    cc32:	000a      	movs	r2, r1
D:\zhangqiang\毕设\experiment\UE\User_NB-IoT_Frame(KL36)(A.50)-190816\Debug/../03_MCU/MCU_drivers/adc.c:27
    cc34:	0a04      	lsrs	r4, r0, #8
D:\zhangqiang\毕设\experiment\UE\User_NB-IoT_Frame(KL36)(A.50)-190816\Debug/../03_MCU/MCU_drivers/adc.c:31
    cc36:	2101      	movs	r1, #1
D:\zhangqiang\毕设\experiment\UE\User_NB-IoT_Frame(KL36)(A.50)-190816\Debug/../03_MCU/MCU_drivers/adc.c:30
    cc38:	2800      	cmp	r0, #0
    cc3a:	d004      	beq.n	cc46 <adc_init+0x16>
D:\zhangqiang\毕设\experiment\UE\User_NB-IoT_Frame(KL36)(A.50)-190816\Debug/../03_MCU/MCU_drivers/adc.c:33
    cc3c:	3802      	subs	r0, #2
    cc3e:	38ff      	subs	r0, #255	; 0xff
    cc40:	4243      	negs	r3, r0
    cc42:	4143      	adcs	r3, r0
D:\zhangqiang\毕设\experiment\UE\User_NB-IoT_Frame(KL36)(A.50)-190816\Debug/../03_MCU/MCU_drivers/adc.c:31
    cc44:	b2d9      	uxtb	r1, r3
D:\zhangqiang\毕设\experiment\UE\User_NB-IoT_Frame(KL36)(A.50)-190816\Debug/../03_MCU/MCU_drivers/adc.c:35
    cc46:	2303      	movs	r3, #3
    cc48:	0020      	movs	r0, r4
    cc4a:	f7ff ff9f 	bl	cb8c <adc_init_inner>
D:\zhangqiang\毕设\experiment\UE\User_NB-IoT_Frame(KL36)(A.50)-190816\Debug/../03_MCU/MCU_drivers/adc.c:36
    cc4e:	bd10      	pop	{r4, pc}

0000cc50 <spi_init>:
spi_init():
D:\zhangqiang\毕设\experiment\UE\User_NB-IoT_Frame(KL36)(A.50)-190816\Debug/../03_MCU/MCU_drivers/spi.c:23
    cc50:	b5f8      	push	{r3, r4, r5, r6, r7, lr}
    cc52:	ac06      	add	r4, sp, #24
    cc54:	7826      	ldrb	r6, [r4, #0]
D:\zhangqiang\毕设\experiment\UE\User_NB-IoT_Frame(KL36)(A.50)-190816\Debug/../03_MCU/MCU_drivers/spi.c:28
    cc56:	2801      	cmp	r0, #1
    cc58:	d100      	bne.n	cc5c <spi_init+0xc>
    cc5a:	e06b      	b.n	cd34 <spi_init+0xe4>
D:\zhangqiang\毕设\experiment\UE\User_NB-IoT_Frame(KL36)(A.50)-190816\Debug/../03_MCU/MCU_drivers/spi.c:30
    cc5c:	4d6b      	ldr	r5, [pc, #428]	; (ce0c <spi_init+0x1bc>)
    cc5e:	4c6c      	ldr	r4, [pc, #432]	; (ce10 <spi_init+0x1c0>)
    cc60:	592f      	ldr	r7, [r5, r4]
    cc62:	2080      	movs	r0, #128	; 0x80
    cc64:	03c0      	lsls	r0, r0, #15
    cc66:	4338      	orrs	r0, r7
    cc68:	5128      	str	r0, [r5, r4]
D:\zhangqiang\毕设\experiment\UE\User_NB-IoT_Frame(KL36)(A.50)-190816\Debug/../03_MCU/MCU_drivers/spi.c:32
    cc6a:	486a      	ldr	r0, [pc, #424]	; (ce14 <spi_init+0x1c4>)
    cc6c:	2480      	movs	r4, #128	; 0x80
    cc6e:	00a4      	lsls	r4, r4, #2
    cc70:	6104      	str	r4, [r0, #16]
D:\zhangqiang\毕设\experiment\UE\User_NB-IoT_Frame(KL36)(A.50)-190816\Debug/../03_MCU/MCU_drivers/spi.c:33
    cc72:	6144      	str	r4, [r0, #20]
D:\zhangqiang\毕设\experiment\UE\User_NB-IoT_Frame(KL36)(A.50)-190816\Debug/../03_MCU/MCU_drivers/spi.c:34
    cc74:	6184      	str	r4, [r0, #24]
D:\zhangqiang\毕设\experiment\UE\User_NB-IoT_Frame(KL36)(A.50)-190816\Debug/../03_MCU/MCU_drivers/spi.c:35
    cc76:	61c4      	str	r4, [r0, #28]
D:\zhangqiang\毕设\experiment\UE\User_NB-IoT_Frame(KL36)(A.50)-190816\Debug/../03_MCU/MCU_drivers/spi.c:37
    cc78:	4867      	ldr	r0, [pc, #412]	; (ce18 <spi_init+0x1c8>)
    cc7a:	2400      	movs	r4, #0
    cc7c:	70c4      	strb	r4, [r0, #3]
D:\zhangqiang\毕设\experiment\UE\User_NB-IoT_Frame(KL36)(A.50)-190816\Debug/../03_MCU/MCU_drivers/spi.c:38
    cc7e:	78c4      	ldrb	r4, [r0, #3]
    cc80:	2540      	movs	r5, #64	; 0x40
    cc82:	432c      	orrs	r4, r5
    cc84:	70c4      	strb	r4, [r0, #3]
D:\zhangqiang\毕设\experiment\UE\User_NB-IoT_Frame(KL36)(A.50)-190816\Debug/../03_MCU/MCU_drivers/spi.c:42
    cc86:	2901      	cmp	r1, #1
    cc88:	d036      	beq.n	ccf8 <spi_init+0xa8>
D:\zhangqiang\毕设\experiment\UE\User_NB-IoT_Frame(KL36)(A.50)-190816\Debug/../03_MCU/MCU_drivers/spi.c:43 (discriminator 2)
    cc8a:	4c63      	ldr	r4, [pc, #396]	; (ce18 <spi_init+0x1c8>)
    cc8c:	78e0      	ldrb	r0, [r4, #3]
    cc8e:	2580      	movs	r5, #128	; 0x80
    cc90:	4328      	orrs	r0, r5
    cc92:	70e0      	strb	r0, [r4, #3]
D:\zhangqiang\毕设\experiment\UE\User_NB-IoT_Frame(KL36)(A.50)-190816\Debug/../03_MCU/MCU_drivers/spi.c:46
    cc94:	2b00      	cmp	r3, #0
    cc96:	d135      	bne.n	cd04 <spi_init+0xb4>
D:\zhangqiang\毕设\experiment\UE\User_NB-IoT_Frame(KL36)(A.50)-190816\Debug/../03_MCU/MCU_drivers/spi.c:46 (discriminator 1)
    cc98:	485f      	ldr	r0, [pc, #380]	; (ce18 <spi_init+0x1c8>)
    cc9a:	78c3      	ldrb	r3, [r0, #3]
    cc9c:	2408      	movs	r4, #8
    cc9e:	43a3      	bics	r3, r4
    cca0:	70c3      	strb	r3, [r0, #3]
D:\zhangqiang\毕设\experiment\UE\User_NB-IoT_Frame(KL36)(A.50)-190816\Debug/../03_MCU/MCU_drivers/spi.c:50
    cca2:	2e00      	cmp	r6, #0
    cca4:	d134      	bne.n	cd10 <spi_init+0xc0>
D:\zhangqiang\毕设\experiment\UE\User_NB-IoT_Frame(KL36)(A.50)-190816\Debug/../03_MCU/MCU_drivers/spi.c:50 (discriminator 1)
    cca6:	485c      	ldr	r0, [pc, #368]	; (ce18 <spi_init+0x1c8>)
    cca8:	78c3      	ldrb	r3, [r0, #3]
    ccaa:	2404      	movs	r4, #4
    ccac:	43a3      	bics	r3, r4
    ccae:	70c3      	strb	r3, [r0, #3]
D:\zhangqiang\毕设\experiment\UE\User_NB-IoT_Frame(KL36)(A.50)-190816\Debug/../03_MCU/MCU_drivers/spi.c:54
    ccb0:	4b59      	ldr	r3, [pc, #356]	; (ce18 <spi_init+0x1c8>)
    ccb2:	78d8      	ldrb	r0, [r3, #3]
    ccb4:	2402      	movs	r4, #2
    ccb6:	4320      	orrs	r0, r4
    ccb8:	70d8      	strb	r0, [r3, #3]
D:\zhangqiang\毕设\experiment\UE\User_NB-IoT_Frame(KL36)(A.50)-190816\Debug/../03_MCU/MCU_drivers/spi.c:56
    ccba:	2000      	movs	r0, #0
    ccbc:	7098      	strb	r0, [r3, #2]
D:\zhangqiang\毕设\experiment\UE\User_NB-IoT_Frame(KL36)(A.50)-190816\Debug/../03_MCU/MCU_drivers/spi.c:57
    ccbe:	2901      	cmp	r1, #1
    ccc0:	d02c      	beq.n	cd1c <spi_init+0xcc>
D:\zhangqiang\毕设\experiment\UE\User_NB-IoT_Frame(KL36)(A.50)-190816\Debug/../03_MCU/MCU_drivers/spi.c:59
    ccc2:	4b55      	ldr	r3, [pc, #340]	; (ce18 <spi_init+0x1c8>)
    ccc4:	2100      	movs	r1, #0
    ccc6:	7059      	strb	r1, [r3, #1]
D:\zhangqiang\毕设\experiment\UE\User_NB-IoT_Frame(KL36)(A.50)-190816\Debug/../03_MCU/MCU_drivers/spi.c:63
    ccc8:	0011      	movs	r1, r2
    ccca:	4854      	ldr	r0, [pc, #336]	; (ce1c <spi_init+0x1cc>)
    cccc:	f7fa f8b0 	bl	6e30 <__divsi3>
    ccd0:	b2c0      	uxtb	r0, r0
D:\zhangqiang\毕设\experiment\UE\User_NB-IoT_Frame(KL36)(A.50)-190816\Debug/../03_MCU/MCU_drivers/spi.c:64
    ccd2:	2808      	cmp	r0, #8
    ccd4:	d928      	bls.n	cd28 <spi_init+0xd8>
D:\zhangqiang\毕设\experiment\UE\User_NB-IoT_Frame(KL36)(A.50)-190816\Debug/../03_MCU/MCU_drivers/spi.c:62
    ccd6:	2300      	movs	r3, #0
D:\zhangqiang\毕设\experiment\UE\User_NB-IoT_Frame(KL36)(A.50)-190816\Debug/../03_MCU/MCU_drivers/spi.c:70
    ccd8:	2811      	cmp	r0, #17
    ccda:	d904      	bls.n	cce6 <spi_init+0x96>
D:\zhangqiang\毕设\experiment\UE\User_NB-IoT_Frame(KL36)(A.50)-190816\Debug/../03_MCU/MCU_drivers/spi.c:72
    ccdc:	3301      	adds	r3, #1
    ccde:	b2db      	uxtb	r3, r3
D:\zhangqiang\毕设\experiment\UE\User_NB-IoT_Frame(KL36)(A.50)-190816\Debug/../03_MCU/MCU_drivers/spi.c:73
    cce0:	0840      	lsrs	r0, r0, #1
D:\zhangqiang\毕设\experiment\UE\User_NB-IoT_Frame(KL36)(A.50)-190816\Debug/../03_MCU/MCU_drivers/spi.c:70
    cce2:	2811      	cmp	r0, #17
    cce4:	d8fa      	bhi.n	ccdc <spi_init+0x8c>
D:\zhangqiang\毕设\experiment\UE\User_NB-IoT_Frame(KL36)(A.50)-190816\Debug/../03_MCU/MCU_drivers/spi.c:75
    cce6:	3801      	subs	r0, #1
D:\zhangqiang\毕设\experiment\UE\User_NB-IoT_Frame(KL36)(A.50)-190816\Debug/../03_MCU/MCU_drivers/spi.c:76
    cce8:	0100      	lsls	r0, r0, #4
    ccea:	b2c0      	uxtb	r0, r0
    ccec:	4a4a      	ldr	r2, [pc, #296]	; (ce18 <spi_init+0x1c8>)
    ccee:	7050      	strb	r0, [r2, #1]
D:\zhangqiang\毕设\experiment\UE\User_NB-IoT_Frame(KL36)(A.50)-190816\Debug/../03_MCU/MCU_drivers/spi.c:77
    ccf0:	7851      	ldrb	r1, [r2, #1]
    ccf2:	430b      	orrs	r3, r1
    ccf4:	7053      	strb	r3, [r2, #1]
D:\zhangqiang\毕设\experiment\UE\User_NB-IoT_Frame(KL36)(A.50)-190816\Debug/../03_MCU/MCU_drivers/spi.c:133
    ccf6:	bdf8      	pop	{r3, r4, r5, r6, r7, pc}
D:\zhangqiang\毕设\experiment\UE\User_NB-IoT_Frame(KL36)(A.50)-190816\Debug/../03_MCU/MCU_drivers/spi.c:42 (discriminator 1)
    ccf8:	0004      	movs	r4, r0
    ccfa:	78c0      	ldrb	r0, [r0, #3]
    ccfc:	2510      	movs	r5, #16
    ccfe:	4328      	orrs	r0, r5
    cd00:	70e0      	strb	r0, [r4, #3]
    cd02:	e7c7      	b.n	cc94 <spi_init+0x44>
D:\zhangqiang\毕设\experiment\UE\User_NB-IoT_Frame(KL36)(A.50)-190816\Debug/../03_MCU/MCU_drivers/spi.c:47 (discriminator 2)
    cd04:	4844      	ldr	r0, [pc, #272]	; (ce18 <spi_init+0x1c8>)
    cd06:	78c3      	ldrb	r3, [r0, #3]
    cd08:	2408      	movs	r4, #8
    cd0a:	4323      	orrs	r3, r4
    cd0c:	70c3      	strb	r3, [r0, #3]
    cd0e:	e7c8      	b.n	cca2 <spi_init+0x52>
D:\zhangqiang\毕设\experiment\UE\User_NB-IoT_Frame(KL36)(A.50)-190816\Debug/../03_MCU/MCU_drivers/spi.c:51 (discriminator 2)
    cd10:	4841      	ldr	r0, [pc, #260]	; (ce18 <spi_init+0x1c8>)
    cd12:	78c3      	ldrb	r3, [r0, #3]
    cd14:	2404      	movs	r4, #4
    cd16:	4323      	orrs	r3, r4
    cd18:	70c3      	strb	r3, [r0, #3]
    cd1a:	e7c9      	b.n	ccb0 <spi_init+0x60>
D:\zhangqiang\毕设\experiment\UE\User_NB-IoT_Frame(KL36)(A.50)-190816\Debug/../03_MCU/MCU_drivers/spi.c:58
    cd1c:	0019      	movs	r1, r3
    cd1e:	789b      	ldrb	r3, [r3, #2]
    cd20:	2010      	movs	r0, #16
    cd22:	4303      	orrs	r3, r0
    cd24:	708b      	strb	r3, [r1, #2]
    cd26:	e7cc      	b.n	ccc2 <spi_init+0x72>
D:\zhangqiang\毕设\experiment\UE\User_NB-IoT_Frame(KL36)(A.50)-190816\Debug/../03_MCU/MCU_drivers/spi.c:66
    cd28:	3801      	subs	r0, #1
    cd2a:	0100      	lsls	r0, r0, #4
    cd2c:	b2c0      	uxtb	r0, r0
    cd2e:	4b3a      	ldr	r3, [pc, #232]	; (ce18 <spi_init+0x1c8>)
    cd30:	7058      	strb	r0, [r3, #1]
    cd32:	e7e0      	b.n	ccf6 <spi_init+0xa6>
D:\zhangqiang\毕设\experiment\UE\User_NB-IoT_Frame(KL36)(A.50)-190816\Debug/../03_MCU/MCU_drivers/spi.c:82
    cd34:	4d35      	ldr	r5, [pc, #212]	; (ce0c <spi_init+0x1bc>)
    cd36:	4c36      	ldr	r4, [pc, #216]	; (ce10 <spi_init+0x1c0>)
    cd38:	592f      	ldr	r7, [r5, r4]
    cd3a:	2080      	movs	r0, #128	; 0x80
    cd3c:	0400      	lsls	r0, r0, #16
    cd3e:	4338      	orrs	r0, r7
    cd40:	5128      	str	r0, [r5, r4]
D:\zhangqiang\毕设\experiment\UE\User_NB-IoT_Frame(KL36)(A.50)-190816\Debug/../03_MCU/MCU_drivers/spi.c:84
    cd42:	4837      	ldr	r0, [pc, #220]	; (ce20 <spi_init+0x1d0>)
    cd44:	2480      	movs	r4, #128	; 0x80
    cd46:	00a4      	lsls	r4, r4, #2
    cd48:	6104      	str	r4, [r0, #16]
D:\zhangqiang\毕设\experiment\UE\User_NB-IoT_Frame(KL36)(A.50)-190816\Debug/../03_MCU/MCU_drivers/spi.c:85
    cd4a:	6144      	str	r4, [r0, #20]
D:\zhangqiang\毕设\experiment\UE\User_NB-IoT_Frame(KL36)(A.50)-190816\Debug/../03_MCU/MCU_drivers/spi.c:86
    cd4c:	6184      	str	r4, [r0, #24]
D:\zhangqiang\毕设\experiment\UE\User_NB-IoT_Frame(KL36)(A.50)-190816\Debug/../03_MCU/MCU_drivers/spi.c:87
    cd4e:	61c4      	str	r4, [r0, #28]
D:\zhangqiang\毕设\experiment\UE\User_NB-IoT_Frame(KL36)(A.50)-190816\Debug/../03_MCU/MCU_drivers/spi.c:89
    cd50:	4834      	ldr	r0, [pc, #208]	; (ce24 <spi_init+0x1d4>)
    cd52:	2400      	movs	r4, #0
    cd54:	70c4      	strb	r4, [r0, #3]
D:\zhangqiang\毕设\experiment\UE\User_NB-IoT_Frame(KL36)(A.50)-190816\Debug/../03_MCU/MCU_drivers/spi.c:90
    cd56:	78c4      	ldrb	r4, [r0, #3]
    cd58:	2540      	movs	r5, #64	; 0x40
    cd5a:	432c      	orrs	r4, r5
    cd5c:	70c4      	strb	r4, [r0, #3]
D:\zhangqiang\毕设\experiment\UE\User_NB-IoT_Frame(KL36)(A.50)-190816\Debug/../03_MCU/MCU_drivers/spi.c:93
    cd5e:	2901      	cmp	r1, #1
    cd60:	d036      	beq.n	cdd0 <spi_init+0x180>
D:\zhangqiang\毕设\experiment\UE\User_NB-IoT_Frame(KL36)(A.50)-190816\Debug/../03_MCU/MCU_drivers/spi.c:94 (discriminator 2)
    cd62:	4c30      	ldr	r4, [pc, #192]	; (ce24 <spi_init+0x1d4>)
    cd64:	78e0      	ldrb	r0, [r4, #3]
    cd66:	2580      	movs	r5, #128	; 0x80
    cd68:	4328      	orrs	r0, r5
    cd6a:	70e0      	strb	r0, [r4, #3]
D:\zhangqiang\毕设\experiment\UE\User_NB-IoT_Frame(KL36)(A.50)-190816\Debug/../03_MCU/MCU_drivers/spi.c:97
    cd6c:	2b00      	cmp	r3, #0
    cd6e:	d135      	bne.n	cddc <spi_init+0x18c>
D:\zhangqiang\毕设\experiment\UE\User_NB-IoT_Frame(KL36)(A.50)-190816\Debug/../03_MCU/MCU_drivers/spi.c:97 (discriminator 1)
    cd70:	482c      	ldr	r0, [pc, #176]	; (ce24 <spi_init+0x1d4>)
    cd72:	78c3      	ldrb	r3, [r0, #3]
    cd74:	2408      	movs	r4, #8
    cd76:	43a3      	bics	r3, r4
    cd78:	70c3      	strb	r3, [r0, #3]
D:\zhangqiang\毕设\experiment\UE\User_NB-IoT_Frame(KL36)(A.50)-190816\Debug/../03_MCU/MCU_drivers/spi.c:102
    cd7a:	2e00      	cmp	r6, #0
    cd7c:	d134      	bne.n	cde8 <spi_init+0x198>
D:\zhangqiang\毕设\experiment\UE\User_NB-IoT_Frame(KL36)(A.50)-190816\Debug/../03_MCU/MCU_drivers/spi.c:102 (discriminator 1)
    cd7e:	4829      	ldr	r0, [pc, #164]	; (ce24 <spi_init+0x1d4>)
    cd80:	78c3      	ldrb	r3, [r0, #3]
    cd82:	2404      	movs	r4, #4
    cd84:	43a3      	bics	r3, r4
    cd86:	70c3      	strb	r3, [r0, #3]
D:\zhangqiang\毕设\experiment\UE\User_NB-IoT_Frame(KL36)(A.50)-190816\Debug/../03_MCU/MCU_drivers/spi.c:105
    cd88:	4b26      	ldr	r3, [pc, #152]	; (ce24 <spi_init+0x1d4>)
    cd8a:	78d8      	ldrb	r0, [r3, #3]
    cd8c:	2402      	movs	r4, #2
    cd8e:	4320      	orrs	r0, r4
    cd90:	70d8      	strb	r0, [r3, #3]
D:\zhangqiang\毕设\experiment\UE\User_NB-IoT_Frame(KL36)(A.50)-190816\Debug/../03_MCU/MCU_drivers/spi.c:109
    cd92:	2000      	movs	r0, #0
    cd94:	7098      	strb	r0, [r3, #2]
D:\zhangqiang\毕设\experiment\UE\User_NB-IoT_Frame(KL36)(A.50)-190816\Debug/../03_MCU/MCU_drivers/spi.c:110
    cd96:	2901      	cmp	r1, #1
    cd98:	d02c      	beq.n	cdf4 <spi_init+0x1a4>
D:\zhangqiang\毕设\experiment\UE\User_NB-IoT_Frame(KL36)(A.50)-190816\Debug/../03_MCU/MCU_drivers/spi.c:112
    cd9a:	4b22      	ldr	r3, [pc, #136]	; (ce24 <spi_init+0x1d4>)
    cd9c:	2100      	movs	r1, #0
    cd9e:	7059      	strb	r1, [r3, #1]
D:\zhangqiang\毕设\experiment\UE\User_NB-IoT_Frame(KL36)(A.50)-190816\Debug/../03_MCU/MCU_drivers/spi.c:116
    cda0:	0011      	movs	r1, r2
    cda2:	481e      	ldr	r0, [pc, #120]	; (ce1c <spi_init+0x1cc>)
    cda4:	f7fa f844 	bl	6e30 <__divsi3>
    cda8:	b2c0      	uxtb	r0, r0
D:\zhangqiang\毕设\experiment\UE\User_NB-IoT_Frame(KL36)(A.50)-190816\Debug/../03_MCU/MCU_drivers/spi.c:117
    cdaa:	2808      	cmp	r0, #8
    cdac:	d928      	bls.n	ce00 <spi_init+0x1b0>
D:\zhangqiang\毕设\experiment\UE\User_NB-IoT_Frame(KL36)(A.50)-190816\Debug/../03_MCU/MCU_drivers/spi.c:115
    cdae:	2300      	movs	r3, #0
D:\zhangqiang\毕设\experiment\UE\User_NB-IoT_Frame(KL36)(A.50)-190816\Debug/../03_MCU/MCU_drivers/spi.c:123
    cdb0:	2811      	cmp	r0, #17
    cdb2:	d904      	bls.n	cdbe <spi_init+0x16e>
D:\zhangqiang\毕设\experiment\UE\User_NB-IoT_Frame(KL36)(A.50)-190816\Debug/../03_MCU/MCU_drivers/spi.c:125
    cdb4:	3301      	adds	r3, #1
    cdb6:	b2db      	uxtb	r3, r3
D:\zhangqiang\毕设\experiment\UE\User_NB-IoT_Frame(KL36)(A.50)-190816\Debug/../03_MCU/MCU_drivers/spi.c:126
    cdb8:	0840      	lsrs	r0, r0, #1
D:\zhangqiang\毕设\experiment\UE\User_NB-IoT_Frame(KL36)(A.50)-190816\Debug/../03_MCU/MCU_drivers/spi.c:123
    cdba:	2811      	cmp	r0, #17
    cdbc:	d8fa      	bhi.n	cdb4 <spi_init+0x164>
D:\zhangqiang\毕设\experiment\UE\User_NB-IoT_Frame(KL36)(A.50)-190816\Debug/../03_MCU/MCU_drivers/spi.c:128
    cdbe:	3801      	subs	r0, #1
D:\zhangqiang\毕设\experiment\UE\User_NB-IoT_Frame(KL36)(A.50)-190816\Debug/../03_MCU/MCU_drivers/spi.c:129
    cdc0:	0100      	lsls	r0, r0, #4
    cdc2:	b2c0      	uxtb	r0, r0
    cdc4:	4a14      	ldr	r2, [pc, #80]	; (ce18 <spi_init+0x1c8>)
    cdc6:	7050      	strb	r0, [r2, #1]
D:\zhangqiang\毕设\experiment\UE\User_NB-IoT_Frame(KL36)(A.50)-190816\Debug/../03_MCU/MCU_drivers/spi.c:130
    cdc8:	7851      	ldrb	r1, [r2, #1]
    cdca:	430b      	orrs	r3, r1
    cdcc:	7053      	strb	r3, [r2, #1]
D:\zhangqiang\毕设\experiment\UE\User_NB-IoT_Frame(KL36)(A.50)-190816\Debug/../03_MCU/MCU_drivers/spi.c:133
    cdce:	e792      	b.n	ccf6 <spi_init+0xa6>
D:\zhangqiang\毕设\experiment\UE\User_NB-IoT_Frame(KL36)(A.50)-190816\Debug/../03_MCU/MCU_drivers/spi.c:93 (discriminator 1)
    cdd0:	0004      	movs	r4, r0
    cdd2:	78c0      	ldrb	r0, [r0, #3]
    cdd4:	2510      	movs	r5, #16
    cdd6:	4328      	orrs	r0, r5
    cdd8:	70e0      	strb	r0, [r4, #3]
    cdda:	e7c7      	b.n	cd6c <spi_init+0x11c>
D:\zhangqiang\毕设\experiment\UE\User_NB-IoT_Frame(KL36)(A.50)-190816\Debug/../03_MCU/MCU_drivers/spi.c:98 (discriminator 2)
    cddc:	4811      	ldr	r0, [pc, #68]	; (ce24 <spi_init+0x1d4>)
    cdde:	78c3      	ldrb	r3, [r0, #3]
    cde0:	2408      	movs	r4, #8
    cde2:	4323      	orrs	r3, r4
    cde4:	70c3      	strb	r3, [r0, #3]
    cde6:	e7c8      	b.n	cd7a <spi_init+0x12a>
D:\zhangqiang\毕设\experiment\UE\User_NB-IoT_Frame(KL36)(A.50)-190816\Debug/../03_MCU/MCU_drivers/spi.c:103 (discriminator 2)
    cde8:	480e      	ldr	r0, [pc, #56]	; (ce24 <spi_init+0x1d4>)
    cdea:	78c3      	ldrb	r3, [r0, #3]
    cdec:	2404      	movs	r4, #4
    cdee:	4323      	orrs	r3, r4
    cdf0:	70c3      	strb	r3, [r0, #3]
    cdf2:	e7c9      	b.n	cd88 <spi_init+0x138>
D:\zhangqiang\毕设\experiment\UE\User_NB-IoT_Frame(KL36)(A.50)-190816\Debug/../03_MCU/MCU_drivers/spi.c:111
    cdf4:	0019      	movs	r1, r3
    cdf6:	789b      	ldrb	r3, [r3, #2]
    cdf8:	2010      	movs	r0, #16
    cdfa:	4303      	orrs	r3, r0
    cdfc:	708b      	strb	r3, [r1, #2]
    cdfe:	e7cc      	b.n	cd9a <spi_init+0x14a>
D:\zhangqiang\毕设\experiment\UE\User_NB-IoT_Frame(KL36)(A.50)-190816\Debug/../03_MCU/MCU_drivers/spi.c:119
    ce00:	3801      	subs	r0, #1
    ce02:	0100      	lsls	r0, r0, #4
    ce04:	b2c0      	uxtb	r0, r0
    ce06:	4a04      	ldr	r2, [pc, #16]	; (ce18 <spi_init+0x1c8>)
    ce08:	7050      	strb	r0, [r2, #1]
    ce0a:	e774      	b.n	ccf6 <spi_init+0xa6>
    ce0c:	40047000 	.word	0x40047000
    ce10:	00001034 	.word	0x00001034
    ce14:	4004b000 	.word	0x4004b000
    ce18:	40076000 	.word	0x40076000
    ce1c:	00005dc0 	.word	0x00005dc0
    ce20:	4004c000 	.word	0x4004c000
    ce24:	40077000 	.word	0x40077000

0000ce28 <spi_send1>:
spi_send1():
D:\zhangqiang\毕设\experiment\UE\User_NB-IoT_Frame(KL36)(A.50)-190816\Debug/../03_MCU/MCU_drivers/spi.c:145
    ce28:	4b0c      	ldr	r3, [pc, #48]	; (ce5c <spi_send1+0x34>)
    ce2a:	469c      	mov	ip, r3
    ce2c:	4460      	add	r0, ip
    ce2e:	0300      	lsls	r0, r0, #12
D:\zhangqiang\毕设\experiment\UE\User_NB-IoT_Frame(KL36)(A.50)-190816\Debug/../03_MCU/MCU_drivers/spi.c:146
    ce30:	2220      	movs	r2, #32
D:\zhangqiang\毕设\experiment\UE\User_NB-IoT_Frame(KL36)(A.50)-190816\Debug/../03_MCU/MCU_drivers/spi.c:146 (discriminator 1)
    ce32:	7803      	ldrb	r3, [r0, #0]
    ce34:	4213      	tst	r3, r2
    ce36:	d0fc      	beq.n	ce32 <spi_send1+0xa>
D:\zhangqiang\毕设\experiment\UE\User_NB-IoT_Frame(KL36)(A.50)-190816\Debug/../03_MCU/MCU_drivers/spi.c:147
    ce38:	7181      	strb	r1, [r0, #6]
D:\zhangqiang\毕设\experiment\UE\User_NB-IoT_Frame(KL36)(A.50)-190816\Debug/../03_MCU/MCU_drivers/spi.c:150
    ce3a:	7803      	ldrb	r3, [r0, #0]
    ce3c:	069b      	lsls	r3, r3, #26
    ce3e:	d409      	bmi.n	ce54 <spi_send1+0x2c>
    ce40:	4b07      	ldr	r3, [pc, #28]	; (ce60 <spi_send1+0x38>)
    ce42:	2120      	movs	r1, #32
    ce44:	7802      	ldrb	r2, [r0, #0]
    ce46:	420a      	tst	r2, r1
    ce48:	d106      	bne.n	ce58 <spi_send1+0x30>
    ce4a:	3b01      	subs	r3, #1
D:\zhangqiang\毕设\experiment\UE\User_NB-IoT_Frame(KL36)(A.50)-190816\Debug/../03_MCU/MCU_drivers/spi.c:148 (discriminator 2)
    ce4c:	2b00      	cmp	r3, #0
    ce4e:	d1f9      	bne.n	ce44 <spi_send1+0x1c>
D:\zhangqiang\毕设\experiment\UE\User_NB-IoT_Frame(KL36)(A.50)-190816\Debug/../03_MCU/MCU_drivers/spi.c:155
    ce50:	2000      	movs	r0, #0
    ce52:	e002      	b.n	ce5a <spi_send1+0x32>
D:\zhangqiang\毕设\experiment\UE\User_NB-IoT_Frame(KL36)(A.50)-190816\Debug/../03_MCU/MCU_drivers/spi.c:152
    ce54:	2001      	movs	r0, #1
    ce56:	e000      	b.n	ce5a <spi_send1+0x32>
    ce58:	2001      	movs	r0, #1
D:\zhangqiang\毕设\experiment\UE\User_NB-IoT_Frame(KL36)(A.50)-190816\Debug/../03_MCU/MCU_drivers/spi.c:156
    ce5a:	4770      	bx	lr
    ce5c:	00040076 	.word	0x00040076
    ce60:	0000ffef 	.word	0x0000ffef

0000ce64 <lptmr_init>:
lptmr_init():
D:\zhangqiang\毕设\experiment\UE\User_NB-IoT_Frame(KL36)(A.50)-190816\Debug/../03_MCU/MCU_drivers/timer.c:146
    ce64:	b510      	push	{r4, lr}
D:\zhangqiang\毕设\experiment\UE\User_NB-IoT_Frame(KL36)(A.50)-190816\Debug/../03_MCU/MCU_drivers/timer.c:148
    ce66:	4b0b      	ldr	r3, [pc, #44]	; (ce94 <lptmr_init+0x30>)
    ce68:	4a0b      	ldr	r2, [pc, #44]	; (ce98 <lptmr_init+0x34>)
    ce6a:	5899      	ldr	r1, [r3, r2]
    ce6c:	2401      	movs	r4, #1
    ce6e:	4321      	orrs	r1, r4
    ce70:	5099      	str	r1, [r3, r2]
D:\zhangqiang\毕设\experiment\UE\User_NB-IoT_Frame(KL36)(A.50)-190816\Debug/../03_MCU/MCU_drivers/timer.c:149
    ce72:	681a      	ldr	r2, [r3, #0]
    ce74:	2180      	movs	r1, #128	; 0x80
    ce76:	02c9      	lsls	r1, r1, #11
    ce78:	4311      	orrs	r1, r2
    ce7a:	6019      	str	r1, [r3, #0]
D:\zhangqiang\毕设\experiment\UE\User_NB-IoT_Frame(KL36)(A.50)-190816\Debug/../03_MCU/MCU_drivers/timer.c:150
    ce7c:	4b07      	ldr	r3, [pc, #28]	; (ce9c <lptmr_init+0x38>)
    ce7e:	6859      	ldr	r1, [r3, #4]
    ce80:	2205      	movs	r2, #5
    ce82:	4311      	orrs	r1, r2
    ce84:	6059      	str	r1, [r3, #4]
    ce86:	0400      	lsls	r0, r0, #16
    ce88:	0c00      	lsrs	r0, r0, #16
D:\zhangqiang\毕设\experiment\UE\User_NB-IoT_Frame(KL36)(A.50)-190816\Debug/../03_MCU/MCU_drivers/timer.c:152
    ce8a:	6098      	str	r0, [r3, #8]
D:\zhangqiang\毕设\experiment\UE\User_NB-IoT_Frame(KL36)(A.50)-190816\Debug/../03_MCU/MCU_drivers/timer.c:153
    ce8c:	681a      	ldr	r2, [r3, #0]
    ce8e:	4322      	orrs	r2, r4
    ce90:	601a      	str	r2, [r3, #0]
D:\zhangqiang\毕设\experiment\UE\User_NB-IoT_Frame(KL36)(A.50)-190816\Debug/../03_MCU/MCU_drivers/timer.c:154
    ce92:	bd10      	pop	{r4, pc}
    ce94:	40047000 	.word	0x40047000
    ce98:	00001038 	.word	0x00001038
    ce9c:	40040000 	.word	0x40040000

0000cea0 <lptmr_enable_int>:
lptmr_enable_int():
D:\zhangqiang\毕设\experiment\UE\User_NB-IoT_Frame(KL36)(A.50)-190816\Debug/../03_MCU/MCU_drivers/timer.c:177
    cea0:	4a04      	ldr	r2, [pc, #16]	; (ceb4 <lptmr_enable_int+0x14>)
    cea2:	6813      	ldr	r3, [r2, #0]
    cea4:	2140      	movs	r1, #64	; 0x40
    cea6:	430b      	orrs	r3, r1
    cea8:	6013      	str	r3, [r2, #0]
NVIC_EnableIRQ():
D:\zhangqiang\毕设\experiment\UE\User_NB-IoT_Frame(KL36)(A.50)-190816\02_Core/core_cm0plus.h:685
    ceaa:	4b03      	ldr	r3, [pc, #12]	; (ceb8 <lptmr_enable_int+0x18>)
    ceac:	2280      	movs	r2, #128	; 0x80
    ceae:	0552      	lsls	r2, r2, #21
    ceb0:	601a      	str	r2, [r3, #0]
lptmr_enable_int():
D:\zhangqiang\毕设\experiment\UE\User_NB-IoT_Frame(KL36)(A.50)-190816\Debug/../03_MCU/MCU_drivers/timer.c:179
    ceb2:	4770      	bx	lr
    ceb4:	40040000 	.word	0x40040000
    ceb8:	e000e100 	.word	0xe000e100

0000cebc <tpm_timer_init>:
tpm_timer_init():
D:\zhangqiang\毕设\experiment\UE\User_NB-IoT_Frame(KL36)(A.50)-190816\Debug/../03_MCU/MCU_drivers/timer.c:202
    cebc:	b5f8      	push	{r3, r4, r5, r6, r7, lr}
    cebe:	0007      	movs	r7, r0
    cec0:	000d      	movs	r5, r1
    cec2:	1c16      	adds	r6, r2, #0
D:\zhangqiang\毕设\experiment\UE\User_NB-IoT_Frame(KL36)(A.50)-190816\Debug/../03_MCU/MCU_drivers/timer.c:207
    cec4:	4b2a      	ldr	r3, [pc, #168]	; (cf70 <tpm_timer_init+0xb4>)
    cec6:	492b      	ldr	r1, [pc, #172]	; (cf74 <tpm_timer_init+0xb8>)
    cec8:	5858      	ldr	r0, [r3, r1]
    ceca:	003c      	movs	r4, r7
    cecc:	3418      	adds	r4, #24
    cece:	2201      	movs	r2, #1
    ced0:	40a2      	lsls	r2, r4
    ced2:	4302      	orrs	r2, r0
    ced4:	505a      	str	r2, [r3, r1]
D:\zhangqiang\毕设\experiment\UE\User_NB-IoT_Frame(KL36)(A.50)-190816\Debug/../03_MCU/MCU_drivers/timer.c:208
    ced6:	00b9      	lsls	r1, r7, #2
    ced8:	4a27      	ldr	r2, [pc, #156]	; (cf78 <tpm_timer_init+0xbc>)
    ceda:	588a      	ldr	r2, [r1, r2]
    cedc:	2100      	movs	r1, #0
    cede:	6011      	str	r1, [r2, #0]
D:\zhangqiang\毕设\experiment\UE\User_NB-IoT_Frame(KL36)(A.50)-190816\Debug/../03_MCU/MCU_drivers/timer.c:210
    cee0:	4a26      	ldr	r2, [pc, #152]	; (cf7c <tpm_timer_init+0xc0>)
    cee2:	5898      	ldr	r0, [r3, r2]
    cee4:	2180      	movs	r1, #128	; 0x80
    cee6:	0449      	lsls	r1, r1, #17
    cee8:	4301      	orrs	r1, r0
    ceea:	5099      	str	r1, [r3, r2]
D:\zhangqiang\毕设\experiment\UE\User_NB-IoT_Frame(KL36)(A.50)-190816\Debug/../03_MCU/MCU_drivers/timer.c:211
    ceec:	5899      	ldr	r1, [r3, r2]
    ceee:	4824      	ldr	r0, [pc, #144]	; (cf80 <tpm_timer_init+0xc4>)
    cef0:	4001      	ands	r1, r0
    cef2:	5099      	str	r1, [r3, r2]
D:\zhangqiang\毕设\experiment\UE\User_NB-IoT_Frame(KL36)(A.50)-190816\Debug/../03_MCU/MCU_drivers/timer.c:214
    cef4:	0029      	movs	r1, r5
    cef6:	4823      	ldr	r0, [pc, #140]	; (cf84 <tpm_timer_init+0xc8>)
    cef8:	f7f9 ff10 	bl	6d1c <__udivsi3>
D:\zhangqiang\毕设\experiment\UE\User_NB-IoT_Frame(KL36)(A.50)-190816\Debug/../03_MCU/MCU_drivers/timer.c:216
    cefc:	2801      	cmp	r0, #1
    cefe:	d924      	bls.n	cf4a <tpm_timer_init+0x8e>
D:\zhangqiang\毕设\experiment\UE\User_NB-IoT_Frame(KL36)(A.50)-190816\Debug/../03_MCU/MCU_drivers/timer.c:215
    cf00:	2400      	movs	r4, #0
D:\zhangqiang\毕设\experiment\UE\User_NB-IoT_Frame(KL36)(A.50)-190816\Debug/../03_MCU/MCU_drivers/timer.c:218
    cf02:	3401      	adds	r4, #1
D:\zhangqiang\毕设\experiment\UE\User_NB-IoT_Frame(KL36)(A.50)-190816\Debug/../03_MCU/MCU_drivers/timer.c:219
    cf04:	0840      	lsrs	r0, r0, #1
D:\zhangqiang\毕设\experiment\UE\User_NB-IoT_Frame(KL36)(A.50)-190816\Debug/../03_MCU/MCU_drivers/timer.c:216
    cf06:	2801      	cmp	r0, #1
    cf08:	d8fb      	bhi.n	cf02 <tpm_timer_init+0x46>
D:\zhangqiang\毕设\experiment\UE\User_NB-IoT_Frame(KL36)(A.50)-190816\Debug/../03_MCU/MCU_drivers/timer.c:222
    cf0a:	00bb      	lsls	r3, r7, #2
    cf0c:	4a1a      	ldr	r2, [pc, #104]	; (cf78 <tpm_timer_init+0xbc>)
    cf0e:	589b      	ldr	r3, [r3, r2]
    cf10:	2200      	movs	r2, #0
    cf12:	605a      	str	r2, [r3, #4]
D:\zhangqiang\毕设\experiment\UE\User_NB-IoT_Frame(KL36)(A.50)-190816\Debug/../03_MCU/MCU_drivers/timer.c:224
    cf14:	0028      	movs	r0, r5
    cf16:	f7fa ff87 	bl	7e28 <__aeabi_ui2f>
    cf1a:	1c31      	adds	r1, r6, #0
    cf1c:	f7fa fc24 	bl	7768 <__aeabi_fmul>
    cf20:	1c05      	adds	r5, r0, #0
    cf22:	4919      	ldr	r1, [pc, #100]	; (cf88 <tpm_timer_init+0xcc>)
    cf24:	f7fa f8d4 	bl	70d0 <__aeabi_fcmpgt>
    cf28:	2800      	cmp	r0, #0
    cf2a:	d110      	bne.n	cf4e <tpm_timer_init+0x92>
D:\zhangqiang\毕设\experiment\UE\User_NB-IoT_Frame(KL36)(A.50)-190816\Debug/../03_MCU/MCU_drivers/timer.c:228
    cf2c:	2100      	movs	r1, #0
    cf2e:	1c28      	adds	r0, r5, #0
    cf30:	f7fa f8c4 	bl	70bc <__aeabi_fcmple>
    cf34:	2800      	cmp	r0, #0
    cf36:	d118      	bne.n	cf6a <tpm_timer_init+0xae>
D:\zhangqiang\毕设\experiment\UE\User_NB-IoT_Frame(KL36)(A.50)-190816\Debug/../03_MCU/MCU_drivers/timer.c:233
    cf38:	21fe      	movs	r1, #254	; 0xfe
    cf3a:	0589      	lsls	r1, r1, #22
    cf3c:	1c28      	adds	r0, r5, #0
    cf3e:	f7fa fd45 	bl	79cc <__aeabi_fsub>
    cf42:	f7fa f923 	bl	718c <__aeabi_f2uiz>
    cf46:	b280      	uxth	r0, r0
    cf48:	e002      	b.n	cf50 <tpm_timer_init+0x94>
D:\zhangqiang\毕设\experiment\UE\User_NB-IoT_Frame(KL36)(A.50)-190816\Debug/../03_MCU/MCU_drivers/timer.c:215
    cf4a:	2400      	movs	r4, #0
    cf4c:	e7dd      	b.n	cf0a <tpm_timer_init+0x4e>
D:\zhangqiang\毕设\experiment\UE\User_NB-IoT_Frame(KL36)(A.50)-190816\Debug/../03_MCU/MCU_drivers/timer.c:226
    cf4e:	480f      	ldr	r0, [pc, #60]	; (cf8c <tpm_timer_init+0xd0>)
D:\zhangqiang\毕设\experiment\UE\User_NB-IoT_Frame(KL36)(A.50)-190816\Debug/../03_MCU/MCU_drivers/timer.c:235
    cf50:	4b09      	ldr	r3, [pc, #36]	; (cf78 <tpm_timer_init+0xbc>)
    cf52:	00bf      	lsls	r7, r7, #2
    cf54:	58fa      	ldr	r2, [r7, r3]
    cf56:	6090      	str	r0, [r2, #8]
D:\zhangqiang\毕设\experiment\UE\User_NB-IoT_Frame(KL36)(A.50)-190816\Debug/../03_MCU/MCU_drivers/timer.c:237
    cf58:	58f9      	ldr	r1, [r7, r3]
    cf5a:	680a      	ldr	r2, [r1, #0]
    cf5c:	2307      	movs	r3, #7
    cf5e:	401c      	ands	r4, r3
    cf60:	3341      	adds	r3, #65	; 0x41
    cf62:	4313      	orrs	r3, r2
    cf64:	431c      	orrs	r4, r3
    cf66:	600c      	str	r4, [r1, #0]
D:\zhangqiang\毕设\experiment\UE\User_NB-IoT_Frame(KL36)(A.50)-190816\Debug/../03_MCU/MCU_drivers/timer.c:238
    cf68:	bdf8      	pop	{r3, r4, r5, r6, r7, pc}
D:\zhangqiang\毕设\experiment\UE\User_NB-IoT_Frame(KL36)(A.50)-190816\Debug/../03_MCU/MCU_drivers/timer.c:230
    cf6a:	2000      	movs	r0, #0
    cf6c:	e7f0      	b.n	cf50 <tpm_timer_init+0x94>
    cf6e:	46c0      	nop			; (mov r8, r8)
    cf70:	40047000 	.word	0x40047000
    cf74:	0000103c 	.word	0x0000103c
    cf78:	20000000 	.word	0x20000000
    cf7c:	00001004 	.word	0x00001004
    cf80:	fffeffff 	.word	0xfffeffff
    cf84:	0000bb80 	.word	0x0000bb80
    cf88:	477fff00 	.word	0x477fff00
    cf8c:	0000ffff 	.word	0x0000ffff

0000cf90 <timer_init>:
timer_init():
D:\zhangqiang\毕设\experiment\UE\User_NB-IoT_Frame(KL36)(A.50)-190816\Debug/../03_MCU/MCU_drivers/timer.c:36
    cf90:	b510      	push	{r4, lr}
    cf92:	1e04      	subs	r4, r0, #0
D:\zhangqiang\毕设\experiment\UE\User_NB-IoT_Frame(KL36)(A.50)-190816\Debug/../03_MCU/MCU_drivers/timer.c:37
    cf94:	d003      	beq.n	cf9e <timer_init+0xe>
D:\zhangqiang\毕设\experiment\UE\User_NB-IoT_Frame(KL36)(A.50)-190816\Debug/../03_MCU/MCU_drivers/timer.c:41
    cf96:	1e43      	subs	r3, r0, #1
    cf98:	2b01      	cmp	r3, #1
    cf9a:	d904      	bls.n	cfa6 <timer_init+0x16>
D:\zhangqiang\毕设\experiment\UE\User_NB-IoT_Frame(KL36)(A.50)-190816\Debug/../03_MCU/MCU_drivers/timer.c:47
    cf9c:	bd10      	pop	{r4, pc}
D:\zhangqiang\毕设\experiment\UE\User_NB-IoT_Frame(KL36)(A.50)-190816\Debug/../03_MCU/MCU_drivers/timer.c:39
    cf9e:	0008      	movs	r0, r1
    cfa0:	f7ff ff60 	bl	ce64 <lptmr_init>
    cfa4:	e7fa      	b.n	cf9c <timer_init+0xc>
D:\zhangqiang\毕设\experiment\UE\User_NB-IoT_Frame(KL36)(A.50)-190816\Debug/../03_MCU/MCU_drivers/timer.c:43
    cfa6:	0008      	movs	r0, r1
    cfa8:	f7fa ff3e 	bl	7e28 <__aeabi_ui2f>
    cfac:	1c02      	adds	r2, r0, #0
    cfae:	b2a0      	uxth	r0, r4
    cfb0:	4901      	ldr	r1, [pc, #4]	; (cfb8 <timer_init+0x28>)
    cfb2:	f7ff ff83 	bl	cebc <tpm_timer_init>
    cfb6:	e7f1      	b.n	cf9c <timer_init+0xc>
    cfb8:	00000bb8 	.word	0x00000bb8

0000cfbc <tpm_enable_int>:
tpm_enable_int():
D:\zhangqiang\毕设\experiment\UE\User_NB-IoT_Frame(KL36)(A.50)-190816\Debug/../03_MCU/MCU_drivers/timer.c:250
    cfbc:	1c03      	adds	r3, r0, #0
    cfbe:	2802      	cmp	r0, #2
    cfc0:	d900      	bls.n	cfc4 <tpm_enable_int+0x8>
    cfc2:	2302      	movs	r3, #2
    cfc4:	b2db      	uxtb	r3, r3
NVIC_EnableIRQ():
D:\zhangqiang\毕设\experiment\UE\User_NB-IoT_Frame(KL36)(A.50)-190816\02_Core/core_cm0plus.h:685
    cfc6:	4a04      	ldr	r2, [pc, #16]	; (cfd8 <tpm_enable_int+0x1c>)
    cfc8:	5cd3      	ldrb	r3, [r2, r3]
    cfca:	221f      	movs	r2, #31
    cfcc:	401a      	ands	r2, r3
    cfce:	2301      	movs	r3, #1
    cfd0:	4093      	lsls	r3, r2
    cfd2:	4a02      	ldr	r2, [pc, #8]	; (cfdc <tpm_enable_int+0x20>)
    cfd4:	6013      	str	r3, [r2, #0]
tpm_enable_int():
D:\zhangqiang\毕设\experiment\UE\User_NB-IoT_Frame(KL36)(A.50)-190816\Debug/../03_MCU/MCU_drivers/timer.c:251
    cfd6:	4770      	bx	lr
    cfd8:	2000000c 	.word	0x2000000c
    cfdc:	e000e100 	.word	0xe000e100

0000cfe0 <timer_enable_int>:
timer_enable_int():
D:\zhangqiang\毕设\experiment\UE\User_NB-IoT_Frame(KL36)(A.50)-190816\Debug/../03_MCU/MCU_drivers/timer.c:57
    cfe0:	b510      	push	{r4, lr}
D:\zhangqiang\毕设\experiment\UE\User_NB-IoT_Frame(KL36)(A.50)-190816\Debug/../03_MCU/MCU_drivers/timer.c:59
    cfe2:	2800      	cmp	r0, #0
    cfe4:	d003      	beq.n	cfee <timer_enable_int+0xe>
D:\zhangqiang\毕设\experiment\UE\User_NB-IoT_Frame(KL36)(A.50)-190816\Debug/../03_MCU/MCU_drivers/timer.c:63
    cfe6:	1e43      	subs	r3, r0, #1
    cfe8:	2b01      	cmp	r3, #1
    cfea:	d903      	bls.n	cff4 <timer_enable_int+0x14>
D:\zhangqiang\毕设\experiment\UE\User_NB-IoT_Frame(KL36)(A.50)-190816\Debug/../03_MCU/MCU_drivers/timer.c:69
    cfec:	bd10      	pop	{r4, pc}
D:\zhangqiang\毕设\experiment\UE\User_NB-IoT_Frame(KL36)(A.50)-190816\Debug/../03_MCU/MCU_drivers/timer.c:61
    cfee:	f7ff ff57 	bl	cea0 <lptmr_enable_int>
    cff2:	e7fb      	b.n	cfec <timer_enable_int+0xc>
D:\zhangqiang\毕设\experiment\UE\User_NB-IoT_Frame(KL36)(A.50)-190816\Debug/../03_MCU/MCU_drivers/timer.c:65
    cff4:	f7ff ffe2 	bl	cfbc <tpm_enable_int>
    cff8:	e7f8      	b.n	cfec <timer_enable_int+0xc>
	...

0000cffc <tpm_clear_int>:
tpm_clear_int():
D:\zhangqiang\毕设\experiment\UE\User_NB-IoT_Frame(KL36)(A.50)-190816\Debug/../03_MCU/MCU_drivers/timer.c:290
    cffc:	0080      	lsls	r0, r0, #2
    cffe:	4b03      	ldr	r3, [pc, #12]	; (d00c <tpm_clear_int+0x10>)
    d000:	58c2      	ldr	r2, [r0, r3]
    d002:	6813      	ldr	r3, [r2, #0]
    d004:	2180      	movs	r1, #128	; 0x80
    d006:	430b      	orrs	r3, r1
    d008:	6013      	str	r3, [r2, #0]
D:\zhangqiang\毕设\experiment\UE\User_NB-IoT_Frame(KL36)(A.50)-190816\Debug/../03_MCU/MCU_drivers/timer.c:291
    d00a:	4770      	bx	lr
    d00c:	20000000 	.word	0x20000000

0000d010 <timer_clear_int>:
timer_clear_int():
D:\zhangqiang\毕设\experiment\UE\User_NB-IoT_Frame(KL36)(A.50)-190816\Debug/../03_MCU/MCU_drivers/timer.c:124
    d010:	b510      	push	{r4, lr}
D:\zhangqiang\毕设\experiment\UE\User_NB-IoT_Frame(KL36)(A.50)-190816\Debug/../03_MCU/MCU_drivers/timer.c:125
    d012:	2800      	cmp	r0, #0
    d014:	d005      	beq.n	d022 <timer_clear_int+0x12>
D:\zhangqiang\毕设\experiment\UE\User_NB-IoT_Frame(KL36)(A.50)-190816\Debug/../03_MCU/MCU_drivers/timer.c:129
    d016:	1e43      	subs	r3, r0, #1
    d018:	2b01      	cmp	r3, #1
    d01a:	d807      	bhi.n	d02c <timer_clear_int+0x1c>
D:\zhangqiang\毕设\experiment\UE\User_NB-IoT_Frame(KL36)(A.50)-190816\Debug/../03_MCU/MCU_drivers/timer.c:131
    d01c:	f7ff ffee 	bl	cffc <tpm_clear_int>
    d020:	e004      	b.n	d02c <timer_clear_int+0x1c>
D:\zhangqiang\毕设\experiment\UE\User_NB-IoT_Frame(KL36)(A.50)-190816\Debug/../03_MCU/MCU_drivers/timer.c:127
    d022:	4a03      	ldr	r2, [pc, #12]	; (d030 <timer_clear_int+0x20>)
    d024:	6813      	ldr	r3, [r2, #0]
    d026:	2180      	movs	r1, #128	; 0x80
    d028:	430b      	orrs	r3, r1
    d02a:	6013      	str	r3, [r2, #0]
D:\zhangqiang\毕设\experiment\UE\User_NB-IoT_Frame(KL36)(A.50)-190816\Debug/../03_MCU/MCU_drivers/timer.c:135
    d02c:	bd10      	pop	{r4, pc}
    d02e:	46c0      	nop			; (mov r8, r8)
    d030:	40040000 	.word	0x40040000

0000d034 <tsi_init>:
tsi_init():
D:\zhangqiang\毕设\experiment\UE\User_NB-IoT_Frame(KL36)(A.50)-190816\Debug/../03_MCU/MCU_drivers/tsi.c:18
    d034:	b530      	push	{r4, r5, lr}
D:\zhangqiang\毕设\experiment\UE\User_NB-IoT_Frame(KL36)(A.50)-190816\Debug/../03_MCU/MCU_drivers/tsi.c:20
    d036:	4a26      	ldr	r2, [pc, #152]	; (d0d0 <tsi_init+0x9c>)
    d038:	4b26      	ldr	r3, [pc, #152]	; (d0d4 <tsi_init+0xa0>)
    d03a:	58d4      	ldr	r4, [r2, r3]
    d03c:	2520      	movs	r5, #32
    d03e:	432c      	orrs	r4, r5
    d040:	50d4      	str	r4, [r2, r3]
D:\zhangqiang\毕设\experiment\UE\User_NB-IoT_Frame(KL36)(A.50)-190816\Debug/../03_MCU/MCU_drivers/tsi.c:21
    d042:	58d5      	ldr	r5, [r2, r3]
    d044:	2480      	movs	r4, #128	; 0x80
    d046:	00a4      	lsls	r4, r4, #2
    d048:	432c      	orrs	r4, r5
    d04a:	50d4      	str	r4, [r2, r3]
D:\zhangqiang\毕设\experiment\UE\User_NB-IoT_Frame(KL36)(A.50)-190816\Debug/../03_MCU/MCU_drivers/tsi.c:27
    d04c:	2805      	cmp	r0, #5
    d04e:	d806      	bhi.n	d05e <tsi_init+0x2a>
    d050:	0083      	lsls	r3, r0, #2
    d052:	4a21      	ldr	r2, [pc, #132]	; (d0d8 <tsi_init+0xa4>)
    d054:	58d3      	ldr	r3, [r2, r3]
    d056:	469f      	mov	pc, r3
D:\zhangqiang\毕设\experiment\UE\User_NB-IoT_Frame(KL36)(A.50)-190816\Debug/../03_MCU/MCU_drivers/tsi.c:30
    d058:	4b20      	ldr	r3, [pc, #128]	; (d0dc <tsi_init+0xa8>)
    d05a:	2200      	movs	r2, #0
    d05c:	601a      	str	r2, [r3, #0]
D:\zhangqiang\毕设\experiment\UE\User_NB-IoT_Frame(KL36)(A.50)-190816\Debug/../03_MCU/MCU_drivers/tsi.c:46
    d05e:	4b20      	ldr	r3, [pc, #128]	; (d0e0 <tsi_init+0xac>)
    d060:	681a      	ldr	r2, [r3, #0]
    d062:	2440      	movs	r4, #64	; 0x40
    d064:	4322      	orrs	r2, r4
    d066:	601a      	str	r2, [r3, #0]
D:\zhangqiang\毕设\experiment\UE\User_NB-IoT_Frame(KL36)(A.50)-190816\Debug/../03_MCU/MCU_drivers/tsi.c:47
    d068:	681a      	ldr	r2, [r3, #0]
    d06a:	3c20      	subs	r4, #32
    d06c:	4322      	orrs	r2, r4
    d06e:	601a      	str	r2, [r3, #0]
D:\zhangqiang\毕设\experiment\UE\User_NB-IoT_Frame(KL36)(A.50)-190816\Debug/../03_MCU/MCU_drivers/tsi.c:49
    d070:	681c      	ldr	r4, [r3, #0]
    d072:	4a1c      	ldr	r2, [pc, #112]	; (d0e4 <tsi_init+0xb0>)
    d074:	4322      	orrs	r2, r4
    d076:	601a      	str	r2, [r3, #0]
D:\zhangqiang\毕设\experiment\UE\User_NB-IoT_Frame(KL36)(A.50)-190816\Debug/../03_MCU/MCU_drivers/tsi.c:57
    d078:	681c      	ldr	r4, [r3, #0]
    d07a:	2280      	movs	r2, #128	; 0x80
    d07c:	0552      	lsls	r2, r2, #21
    d07e:	4322      	orrs	r2, r4
    d080:	601a      	str	r2, [r3, #0]
D:\zhangqiang\毕设\experiment\UE\User_NB-IoT_Frame(KL36)(A.50)-190816\Debug/../03_MCU/MCU_drivers/tsi.c:59
    d082:	681a      	ldr	r2, [r3, #0]
    d084:	2410      	movs	r4, #16
    d086:	4322      	orrs	r2, r4
    d088:	601a      	str	r2, [r3, #0]
D:\zhangqiang\毕设\experiment\UE\User_NB-IoT_Frame(KL36)(A.50)-190816\Debug/../03_MCU/MCU_drivers/tsi.c:62
    d08a:	681c      	ldr	r4, [r3, #0]
    d08c:	2280      	movs	r2, #128	; 0x80
    d08e:	0612      	lsls	r2, r2, #24
    d090:	4322      	orrs	r2, r4
    d092:	601a      	str	r2, [r3, #0]
D:\zhangqiang\毕设\experiment\UE\User_NB-IoT_Frame(KL36)(A.50)-190816\Debug/../03_MCU/MCU_drivers/tsi.c:63
    d094:	681a      	ldr	r2, [r3, #0]
    d096:	2404      	movs	r4, #4
    d098:	4322      	orrs	r2, r4
    d09a:	601a      	str	r2, [r3, #0]
D:\zhangqiang\毕设\experiment\UE\User_NB-IoT_Frame(KL36)(A.50)-190816\Debug/../03_MCU/MCU_drivers/tsi.c:65
    d09c:	685a      	ldr	r2, [r3, #4]
    d09e:	0700      	lsls	r0, r0, #28
    d0a0:	4310      	orrs	r0, r2
    d0a2:	6058      	str	r0, [r3, #4]
D:\zhangqiang\毕设\experiment\UE\User_NB-IoT_Frame(KL36)(A.50)-190816\Debug/../03_MCU/MCU_drivers/tsi.c:67
    d0a4:	681a      	ldr	r2, [r3, #0]
    d0a6:	2080      	movs	r0, #128	; 0x80
    d0a8:	4302      	orrs	r2, r0
    d0aa:	601a      	str	r2, [r3, #0]
D:\zhangqiang\毕设\experiment\UE\User_NB-IoT_Frame(KL36)(A.50)-190816\Debug/../03_MCU/MCU_drivers/tsi.c:69
    d0ac:	6099      	str	r1, [r3, #8]
D:\zhangqiang\毕设\experiment\UE\User_NB-IoT_Frame(KL36)(A.50)-190816\Debug/../03_MCU/MCU_drivers/tsi.c:70
    d0ae:	bd30      	pop	{r4, r5, pc}
D:\zhangqiang\毕设\experiment\UE\User_NB-IoT_Frame(KL36)(A.50)-190816\Debug/../03_MCU/MCU_drivers/tsi.c:33
    d0b0:	4b0a      	ldr	r3, [pc, #40]	; (d0dc <tsi_init+0xa8>)
    d0b2:	2200      	movs	r2, #0
    d0b4:	605a      	str	r2, [r3, #4]
D:\zhangqiang\毕设\experiment\UE\User_NB-IoT_Frame(KL36)(A.50)-190816\Debug/../03_MCU/MCU_drivers/tsi.c:34
    d0b6:	e7d2      	b.n	d05e <tsi_init+0x2a>
D:\zhangqiang\毕设\experiment\UE\User_NB-IoT_Frame(KL36)(A.50)-190816\Debug/../03_MCU/MCU_drivers/tsi.c:36
    d0b8:	4b08      	ldr	r3, [pc, #32]	; (d0dc <tsi_init+0xa8>)
    d0ba:	2200      	movs	r2, #0
    d0bc:	609a      	str	r2, [r3, #8]
D:\zhangqiang\毕设\experiment\UE\User_NB-IoT_Frame(KL36)(A.50)-190816\Debug/../03_MCU/MCU_drivers/tsi.c:37
    d0be:	e7ce      	b.n	d05e <tsi_init+0x2a>
D:\zhangqiang\毕设\experiment\UE\User_NB-IoT_Frame(KL36)(A.50)-190816\Debug/../03_MCU/MCU_drivers/tsi.c:39
    d0c0:	4b06      	ldr	r3, [pc, #24]	; (d0dc <tsi_init+0xa8>)
    d0c2:	2200      	movs	r2, #0
    d0c4:	60da      	str	r2, [r3, #12]
D:\zhangqiang\毕设\experiment\UE\User_NB-IoT_Frame(KL36)(A.50)-190816\Debug/../03_MCU/MCU_drivers/tsi.c:40
    d0c6:	e7ca      	b.n	d05e <tsi_init+0x2a>
D:\zhangqiang\毕设\experiment\UE\User_NB-IoT_Frame(KL36)(A.50)-190816\Debug/../03_MCU/MCU_drivers/tsi.c:42
    d0c8:	4b04      	ldr	r3, [pc, #16]	; (d0dc <tsi_init+0xa8>)
    d0ca:	2200      	movs	r2, #0
    d0cc:	611a      	str	r2, [r3, #16]
D:\zhangqiang\毕设\experiment\UE\User_NB-IoT_Frame(KL36)(A.50)-190816\Debug/../03_MCU/MCU_drivers/tsi.c:43
    d0ce:	e7c6      	b.n	d05e <tsi_init+0x2a>
    d0d0:	40047000 	.word	0x40047000
    d0d4:	00001038 	.word	0x00001038
    d0d8:	0000e4a8 	.word	0x0000e4a8
    d0dc:	40049000 	.word	0x40049000
    d0e0:	40045000 	.word	0x40045000
    d0e4:	00864b00 	.word	0x00864b00

0000d0e8 <tsi_get_value>:
tsi_get_value():
D:\zhangqiang\毕设\experiment\UE\User_NB-IoT_Frame(KL36)(A.50)-190816\Debug/../03_MCU/MCU_drivers/tsi.c:80
    d0e8:	b510      	push	{r4, lr}
D:\zhangqiang\毕设\experiment\UE\User_NB-IoT_Frame(KL36)(A.50)-190816\Debug/../03_MCU/MCU_drivers/tsi.c:83
    d0ea:	4b11      	ldr	r3, [pc, #68]	; (d130 <tsi_get_value+0x48>)
    d0ec:	681a      	ldr	r2, [r3, #0]
    d0ee:	2140      	movs	r1, #64	; 0x40
    d0f0:	438a      	bics	r2, r1
    d0f2:	601a      	str	r2, [r3, #0]
D:\zhangqiang\毕设\experiment\UE\User_NB-IoT_Frame(KL36)(A.50)-190816\Debug/../03_MCU/MCU_drivers/tsi.c:84
    d0f4:	6859      	ldr	r1, [r3, #4]
    d0f6:	2280      	movs	r2, #128	; 0x80
    d0f8:	03d2      	lsls	r2, r2, #15
    d0fa:	430a      	orrs	r2, r1
    d0fc:	605a      	str	r2, [r3, #4]
D:\zhangqiang\毕设\experiment\UE\User_NB-IoT_Frame(KL36)(A.50)-190816\Debug/../03_MCU/MCU_drivers/tsi.c:85
    d0fe:	0019      	movs	r1, r3
    d100:	2204      	movs	r2, #4
D:\zhangqiang\毕设\experiment\UE\User_NB-IoT_Frame(KL36)(A.50)-190816\Debug/../03_MCU/MCU_drivers/tsi.c:85 (discriminator 1)
    d102:	680b      	ldr	r3, [r1, #0]
    d104:	421a      	tst	r2, r3
    d106:	d0fc      	beq.n	d102 <tsi_get_value+0x1a>
D:\zhangqiang\毕设\experiment\UE\User_NB-IoT_Frame(KL36)(A.50)-190816\Debug/../03_MCU/MCU_drivers/tsi.c:86
    d108:	4b09      	ldr	r3, [pc, #36]	; (d130 <tsi_get_value+0x48>)
    d10a:	6819      	ldr	r1, [r3, #0]
    d10c:	2404      	movs	r4, #4
    d10e:	4321      	orrs	r1, r4
    d110:	6019      	str	r1, [r3, #0]
D:\zhangqiang\毕设\experiment\UE\User_NB-IoT_Frame(KL36)(A.50)-190816\Debug/../03_MCU/MCU_drivers/tsi.c:87
    d112:	6858      	ldr	r0, [r3, #4]
D:\zhangqiang\毕设\experiment\UE\User_NB-IoT_Frame(KL36)(A.50)-190816\Debug/../03_MCU/MCU_drivers/tsi.c:88
    d114:	681a      	ldr	r2, [r3, #0]
    d116:	2180      	movs	r1, #128	; 0x80
    d118:	0609      	lsls	r1, r1, #24
    d11a:	4311      	orrs	r1, r2
    d11c:	6019      	str	r1, [r3, #0]
D:\zhangqiang\毕设\experiment\UE\User_NB-IoT_Frame(KL36)(A.50)-190816\Debug/../03_MCU/MCU_drivers/tsi.c:89
    d11e:	681a      	ldr	r2, [r3, #0]
    d120:	4322      	orrs	r2, r4
    d122:	601a      	str	r2, [r3, #0]
D:\zhangqiang\毕设\experiment\UE\User_NB-IoT_Frame(KL36)(A.50)-190816\Debug/../03_MCU/MCU_drivers/tsi.c:90
    d124:	681a      	ldr	r2, [r3, #0]
    d126:	2140      	movs	r1, #64	; 0x40
    d128:	430a      	orrs	r2, r1
    d12a:	601a      	str	r2, [r3, #0]
D:\zhangqiang\毕设\experiment\UE\User_NB-IoT_Frame(KL36)(A.50)-190816\Debug/../03_MCU/MCU_drivers/tsi.c:91
    d12c:	b280      	uxth	r0, r0
D:\zhangqiang\毕设\experiment\UE\User_NB-IoT_Frame(KL36)(A.50)-190816\Debug/../03_MCU/MCU_drivers/tsi.c:92
    d12e:	bd10      	pop	{r4, pc}
    d130:	40045000 	.word	0x40045000

0000d134 <tsi_enable_re_int>:
tsi_enable_re_int():
D:\zhangqiang\毕设\experiment\UE\User_NB-IoT_Frame(KL36)(A.50)-190816\Debug/../03_MCU/MCU_drivers/tsi.c:119
    d134:	b510      	push	{r4, lr}
D:\zhangqiang\毕设\experiment\UE\User_NB-IoT_Frame(KL36)(A.50)-190816\Debug/../03_MCU/MCU_drivers/tsi.c:121
    d136:	4b06      	ldr	r3, [pc, #24]	; (d150 <tsi_enable_re_int+0x1c>)
    d138:	681a      	ldr	r2, [r3, #0]
    d13a:	2140      	movs	r1, #64	; 0x40
    d13c:	430a      	orrs	r2, r1
    d13e:	601a      	str	r2, [r3, #0]
D:\zhangqiang\毕设\experiment\UE\User_NB-IoT_Frame(KL36)(A.50)-190816\Debug/../03_MCU/MCU_drivers/tsi.c:122
    d140:	681a      	ldr	r2, [r3, #0]
    d142:	3930      	subs	r1, #48	; 0x30
    d144:	430a      	orrs	r2, r1
    d146:	601a      	str	r2, [r3, #0]
D:\zhangqiang\毕设\experiment\UE\User_NB-IoT_Frame(KL36)(A.50)-190816\Debug/../03_MCU/MCU_drivers/tsi.c:123
    d148:	201a      	movs	r0, #26
    d14a:	f7fe f8e5 	bl	b318 <enable_irq>
D:\zhangqiang\毕设\experiment\UE\User_NB-IoT_Frame(KL36)(A.50)-190816\Debug/../03_MCU/MCU_drivers/tsi.c:124
    d14e:	bd10      	pop	{r4, pc}
    d150:	40045000 	.word	0x40045000

0000d154 <tsi_search>:
tsi_search():
D:\zhangqiang\毕设\experiment\UE\User_NB-IoT_Frame(KL36)(A.50)-190816\Debug/../03_MCU/MCU_drivers/tsi.c:164
    d154:	4a02      	ldr	r2, [pc, #8]	; (d160 <tsi_search+0xc>)
    d156:	6813      	ldr	r3, [r2, #0]
    d158:	2180      	movs	r1, #128	; 0x80
    d15a:	430b      	orrs	r3, r1
    d15c:	6013      	str	r3, [r2, #0]
D:\zhangqiang\毕设\experiment\UE\User_NB-IoT_Frame(KL36)(A.50)-190816\Debug/../03_MCU/MCU_drivers/tsi.c:165
    d15e:	4770      	bx	lr
    d160:	40045000 	.word	0x40045000

0000d164 <tsi_get_int>:
tsi_get_int():
D:\zhangqiang\毕设\experiment\UE\User_NB-IoT_Frame(KL36)(A.50)-190816\Debug/../03_MCU/MCU_drivers/tsi.c:175
    d164:	4b01      	ldr	r3, [pc, #4]	; (d16c <tsi_get_int+0x8>)
    d166:	6818      	ldr	r0, [r3, #0]
    d168:	0fc0      	lsrs	r0, r0, #31
D:\zhangqiang\毕设\experiment\UE\User_NB-IoT_Frame(KL36)(A.50)-190816\Debug/../03_MCU/MCU_drivers/tsi.c:179
    d16a:	4770      	bx	lr
    d16c:	40045000 	.word	0x40045000

0000d170 <tsi_clear_int>:
tsi_clear_int():
D:\zhangqiang\毕设\experiment\UE\User_NB-IoT_Frame(KL36)(A.50)-190816\Debug/../03_MCU/MCU_drivers/tsi.c:189
    d170:	4b05      	ldr	r3, [pc, #20]	; (d188 <tsi_clear_int+0x18>)
    d172:	6819      	ldr	r1, [r3, #0]
    d174:	2280      	movs	r2, #128	; 0x80
    d176:	0612      	lsls	r2, r2, #24
    d178:	430a      	orrs	r2, r1
    d17a:	601a      	str	r2, [r3, #0]
D:\zhangqiang\毕设\experiment\UE\User_NB-IoT_Frame(KL36)(A.50)-190816\Debug/../03_MCU/MCU_drivers/tsi.c:190
    d17c:	681a      	ldr	r2, [r3, #0]
    d17e:	2180      	movs	r1, #128	; 0x80
    d180:	438a      	bics	r2, r1
    d182:	601a      	str	r2, [r3, #0]
D:\zhangqiang\毕设\experiment\UE\User_NB-IoT_Frame(KL36)(A.50)-190816\Debug/../03_MCU/MCU_drivers/tsi.c:191
    d184:	4770      	bx	lr
    d186:	46c0      	nop			; (mov r8, r8)
    d188:	40045000 	.word	0x40045000

0000d18c <log>:
log():
    d18c:	b5f0      	push	{r4, r5, r6, r7, lr}
    d18e:	46c6      	mov	lr, r8
    d190:	b500      	push	{lr}
    d192:	b08c      	sub	sp, #48	; 0x30
    d194:	0004      	movs	r4, r0
    d196:	000d      	movs	r5, r1
    d198:	f000 f880 	bl	d29c <__ieee754_log>
    d19c:	4b3a      	ldr	r3, [pc, #232]	; (d288 <log+0xfc>)
    d19e:	0006      	movs	r6, r0
    d1a0:	781b      	ldrb	r3, [r3, #0]
    d1a2:	000f      	movs	r7, r1
    d1a4:	b25b      	sxtb	r3, r3
    d1a6:	4698      	mov	r8, r3
    d1a8:	3301      	adds	r3, #1
    d1aa:	d00f      	beq.n	d1cc <log+0x40>
    d1ac:	0022      	movs	r2, r4
    d1ae:	002b      	movs	r3, r5
    d1b0:	0020      	movs	r0, r4
    d1b2:	0029      	movs	r1, r5
    d1b4:	f7fc fb58 	bl	9868 <__aeabi_dcmpun>
    d1b8:	2800      	cmp	r0, #0
    d1ba:	d107      	bne.n	d1cc <log+0x40>
    d1bc:	2200      	movs	r2, #0
    d1be:	2300      	movs	r3, #0
    d1c0:	0020      	movs	r0, r4
    d1c2:	0029      	movs	r1, r5
    d1c4:	f7f9 ff4a 	bl	705c <__aeabi_dcmpgt>
    d1c8:	2800      	cmp	r0, #0
    d1ca:	d005      	beq.n	d1d8 <log+0x4c>
    d1cc:	0030      	movs	r0, r6
    d1ce:	0039      	movs	r1, r7
    d1d0:	b00c      	add	sp, #48	; 0x30
    d1d2:	bc04      	pop	{r2}
    d1d4:	4690      	mov	r8, r2
    d1d6:	bdf0      	pop	{r4, r5, r6, r7, pc}
    d1d8:	4b2c      	ldr	r3, [pc, #176]	; (d28c <log+0x100>)
    d1da:	900a      	str	r0, [sp, #40]	; 0x28
    d1dc:	9303      	str	r3, [sp, #12]
    d1de:	4643      	mov	r3, r8
    d1e0:	9404      	str	r4, [sp, #16]
    d1e2:	9505      	str	r5, [sp, #20]
    d1e4:	9406      	str	r4, [sp, #24]
    d1e6:	9507      	str	r5, [sp, #28]
    d1e8:	2b00      	cmp	r3, #0
    d1ea:	d11a      	bne.n	d222 <log+0x96>
    d1ec:	22e0      	movs	r2, #224	; 0xe0
    d1ee:	4b28      	ldr	r3, [pc, #160]	; (d290 <log+0x104>)
    d1f0:	0612      	lsls	r2, r2, #24
    d1f2:	9208      	str	r2, [sp, #32]
    d1f4:	9309      	str	r3, [sp, #36]	; 0x24
    d1f6:	0020      	movs	r0, r4
    d1f8:	2200      	movs	r2, #0
    d1fa:	2300      	movs	r3, #0
    d1fc:	0029      	movs	r1, r5
    d1fe:	f7f9 ff13 	bl	7028 <__aeabi_dcmpeq>
    d202:	2800      	cmp	r0, #0
    d204:	d038      	beq.n	d278 <log+0xec>
    d206:	2302      	movs	r3, #2
    d208:	9302      	str	r3, [sp, #8]
    d20a:	a802      	add	r0, sp, #8
    d20c:	f000 fa1c 	bl	d648 <matherr>
    d210:	2800      	cmp	r0, #0
    d212:	d017      	beq.n	d244 <log+0xb8>
    d214:	9b0a      	ldr	r3, [sp, #40]	; 0x28
    d216:	9301      	str	r3, [sp, #4]
    d218:	2b00      	cmp	r3, #0
    d21a:	d118      	bne.n	d24e <log+0xc2>
    d21c:	9e08      	ldr	r6, [sp, #32]
    d21e:	9f09      	ldr	r7, [sp, #36]	; 0x24
    d220:	e7d4      	b.n	d1cc <log+0x40>
    d222:	2200      	movs	r2, #0
    d224:	4b1b      	ldr	r3, [pc, #108]	; (d294 <log+0x108>)
    d226:	0020      	movs	r0, r4
    d228:	9208      	str	r2, [sp, #32]
    d22a:	9309      	str	r3, [sp, #36]	; 0x24
    d22c:	0029      	movs	r1, r5
    d22e:	2200      	movs	r2, #0
    d230:	2300      	movs	r3, #0
    d232:	f7f9 fef9 	bl	7028 <__aeabi_dcmpeq>
    d236:	2800      	cmp	r0, #0
    d238:	d00f      	beq.n	d25a <log+0xce>
    d23a:	2302      	movs	r3, #2
    d23c:	9302      	str	r3, [sp, #8]
    d23e:	4643      	mov	r3, r8
    d240:	2b02      	cmp	r3, #2
    d242:	d1e2      	bne.n	d20a <log+0x7e>
    d244:	f000 fa08 	bl	d658 <__errno>
    d248:	2322      	movs	r3, #34	; 0x22
    d24a:	6003      	str	r3, [r0, #0]
    d24c:	e7e2      	b.n	d214 <log+0x88>
    d24e:	f000 fa03 	bl	d658 <__errno>
    d252:	9b0a      	ldr	r3, [sp, #40]	; 0x28
    d254:	9301      	str	r3, [sp, #4]
    d256:	6003      	str	r3, [r0, #0]
    d258:	e7e0      	b.n	d21c <log+0x90>
    d25a:	2301      	movs	r3, #1
    d25c:	9302      	str	r3, [sp, #8]
    d25e:	4643      	mov	r3, r8
    d260:	2b02      	cmp	r3, #2
    d262:	d10b      	bne.n	d27c <log+0xf0>
    d264:	f000 f9f8 	bl	d658 <__errno>
    d268:	2321      	movs	r3, #33	; 0x21
    d26a:	6003      	str	r3, [r0, #0]
    d26c:	480a      	ldr	r0, [pc, #40]	; (d298 <log+0x10c>)
    d26e:	f000 f9ed 	bl	d64c <nan>
    d272:	9008      	str	r0, [sp, #32]
    d274:	9109      	str	r1, [sp, #36]	; 0x24
    d276:	e7cd      	b.n	d214 <log+0x88>
    d278:	2301      	movs	r3, #1
    d27a:	9302      	str	r3, [sp, #8]
    d27c:	a802      	add	r0, sp, #8
    d27e:	f000 f9e3 	bl	d648 <matherr>
    d282:	2800      	cmp	r0, #0
    d284:	d1f2      	bne.n	d26c <log+0xe0>
    d286:	e7ed      	b.n	d264 <log+0xd8>
    d288:	2000000f 	.word	0x2000000f
    d28c:	0000e4c0 	.word	0x0000e4c0
    d290:	c7efffff 	.word	0xc7efffff
    d294:	fff00000 	.word	0xfff00000
    d298:	0000dba0 	.word	0x0000dba0

0000d29c <__ieee754_log>:
__ieee754_log():
    d29c:	b5f0      	push	{r4, r5, r6, r7, lr}
    d29e:	46d6      	mov	lr, sl
    d2a0:	464f      	mov	r7, r9
    d2a2:	4646      	mov	r6, r8
    d2a4:	b5c0      	push	{r6, r7, lr}
    d2a6:	4aca      	ldr	r2, [pc, #808]	; (d5d0 <__ieee754_log+0x334>)
    d2a8:	b086      	sub	sp, #24
    d2aa:	000b      	movs	r3, r1
    d2ac:	4291      	cmp	r1, r2
    d2ae:	dd00      	ble.n	d2b2 <__ieee754_log+0x16>
    d2b0:	e0cc      	b.n	d44c <__ieee754_log+0x1b0>
    d2b2:	004a      	lsls	r2, r1, #1
    d2b4:	0852      	lsrs	r2, r2, #1
    d2b6:	4302      	orrs	r2, r0
    d2b8:	d100      	bne.n	d2bc <__ieee754_log+0x20>
    d2ba:	e0d6      	b.n	d46a <__ieee754_log+0x1ce>
    d2bc:	2900      	cmp	r1, #0
    d2be:	da00      	bge.n	d2c2 <__ieee754_log+0x26>
    d2c0:	e0e6      	b.n	d490 <__ieee754_log+0x1f4>
    d2c2:	4bc4      	ldr	r3, [pc, #784]	; (d5d4 <__ieee754_log+0x338>)
    d2c4:	2200      	movs	r2, #0
    d2c6:	f7fb fd15 	bl	8cf4 <__aeabi_dmul>
    d2ca:	2536      	movs	r5, #54	; 0x36
    d2cc:	4cc2      	ldr	r4, [pc, #776]	; (d5d8 <__ieee754_log+0x33c>)
    d2ce:	000b      	movs	r3, r1
    d2d0:	426d      	negs	r5, r5
    d2d2:	42a3      	cmp	r3, r4
    d2d4:	dd00      	ble.n	d2d8 <__ieee754_log+0x3c>
    d2d6:	e0be      	b.n	d456 <__ieee754_log+0x1ba>
    d2d8:	151a      	asrs	r2, r3, #20
    d2da:	4cc0      	ldr	r4, [pc, #768]	; (d5dc <__ieee754_log+0x340>)
    d2dc:	031b      	lsls	r3, r3, #12
    d2de:	0b1b      	lsrs	r3, r3, #12
    d2e0:	4698      	mov	r8, r3
    d2e2:	46a4      	mov	ip, r4
    d2e4:	2480      	movs	r4, #128	; 0x80
    d2e6:	4bbe      	ldr	r3, [pc, #760]	; (d5e0 <__ieee754_log+0x344>)
    d2e8:	0364      	lsls	r4, r4, #13
    d2ea:	4443      	add	r3, r8
    d2ec:	4023      	ands	r3, r4
    d2ee:	4cbd      	ldr	r4, [pc, #756]	; (d5e4 <__ieee754_log+0x348>)
    d2f0:	4462      	add	r2, ip
    d2f2:	1952      	adds	r2, r2, r5
    d2f4:	405c      	eors	r4, r3
    d2f6:	4645      	mov	r5, r8
    d2f8:	151b      	asrs	r3, r3, #20
    d2fa:	4699      	mov	r9, r3
    d2fc:	4325      	orrs	r5, r4
    d2fe:	4bb9      	ldr	r3, [pc, #740]	; (d5e4 <__ieee754_log+0x348>)
    d300:	0029      	movs	r1, r5
    d302:	4491      	add	r9, r2
    d304:	2200      	movs	r2, #0
    d306:	f7fb ff67 	bl	91d8 <__aeabi_dsub>
    d30a:	4643      	mov	r3, r8
    d30c:	3302      	adds	r3, #2
    d30e:	031b      	lsls	r3, r3, #12
    d310:	0006      	movs	r6, r0
    d312:	000f      	movs	r7, r1
    d314:	0b1b      	lsrs	r3, r3, #12
    d316:	2200      	movs	r2, #0
    d318:	2b02      	cmp	r3, #2
    d31a:	dc00      	bgt.n	d31e <__ieee754_log+0x82>
    d31c:	e0ac      	b.n	d478 <__ieee754_log+0x1dc>
    d31e:	2380      	movs	r3, #128	; 0x80
    d320:	05db      	lsls	r3, r3, #23
    d322:	f7fa fdc1 	bl	7ea8 <__aeabi_dadd>
    d326:	0002      	movs	r2, r0
    d328:	000b      	movs	r3, r1
    d32a:	0030      	movs	r0, r6
    d32c:	0039      	movs	r1, r7
    d32e:	f7fb f8d7 	bl	84e0 <__aeabi_ddiv>
    d332:	0004      	movs	r4, r0
    d334:	4648      	mov	r0, r9
    d336:	000d      	movs	r5, r1
    d338:	f7fc fae8 	bl	990c <__aeabi_i2d>
    d33c:	0022      	movs	r2, r4
    d33e:	9000      	str	r0, [sp, #0]
    d340:	9101      	str	r1, [sp, #4]
    d342:	002b      	movs	r3, r5
    d344:	0020      	movs	r0, r4
    d346:	0029      	movs	r1, r5
    d348:	9404      	str	r4, [sp, #16]
    d34a:	9505      	str	r5, [sp, #20]
    d34c:	f7fb fcd2 	bl	8cf4 <__aeabi_dmul>
    d350:	000d      	movs	r5, r1
    d352:	0004      	movs	r4, r0
    d354:	49a4      	ldr	r1, [pc, #656]	; (d5e8 <__ieee754_log+0x34c>)
    d356:	0022      	movs	r2, r4
    d358:	4441      	add	r1, r8
    d35a:	002b      	movs	r3, r5
    d35c:	468a      	mov	sl, r1
    d35e:	0020      	movs	r0, r4
    d360:	0029      	movs	r1, r5
    d362:	9402      	str	r4, [sp, #8]
    d364:	9503      	str	r5, [sp, #12]
    d366:	f7fb fcc5 	bl	8cf4 <__aeabi_dmul>
    d36a:	0004      	movs	r4, r0
    d36c:	000d      	movs	r5, r1
    d36e:	4a9f      	ldr	r2, [pc, #636]	; (d5ec <__ieee754_log+0x350>)
    d370:	4b9f      	ldr	r3, [pc, #636]	; (d5f0 <__ieee754_log+0x354>)
    d372:	f7fb fcbf 	bl	8cf4 <__aeabi_dmul>
    d376:	4a9f      	ldr	r2, [pc, #636]	; (d5f4 <__ieee754_log+0x358>)
    d378:	4b9f      	ldr	r3, [pc, #636]	; (d5f8 <__ieee754_log+0x35c>)
    d37a:	f7fa fd95 	bl	7ea8 <__aeabi_dadd>
    d37e:	0022      	movs	r2, r4
    d380:	002b      	movs	r3, r5
    d382:	f7fb fcb7 	bl	8cf4 <__aeabi_dmul>
    d386:	4a9d      	ldr	r2, [pc, #628]	; (d5fc <__ieee754_log+0x360>)
    d388:	4b9d      	ldr	r3, [pc, #628]	; (d600 <__ieee754_log+0x364>)
    d38a:	f7fa fd8d 	bl	7ea8 <__aeabi_dadd>
    d38e:	0022      	movs	r2, r4
    d390:	002b      	movs	r3, r5
    d392:	f7fb fcaf 	bl	8cf4 <__aeabi_dmul>
    d396:	4a9b      	ldr	r2, [pc, #620]	; (d604 <__ieee754_log+0x368>)
    d398:	4b9b      	ldr	r3, [pc, #620]	; (d608 <__ieee754_log+0x36c>)
    d39a:	f7fa fd85 	bl	7ea8 <__aeabi_dadd>
    d39e:	9a02      	ldr	r2, [sp, #8]
    d3a0:	9b03      	ldr	r3, [sp, #12]
    d3a2:	f7fb fca7 	bl	8cf4 <__aeabi_dmul>
    d3a6:	4a99      	ldr	r2, [pc, #612]	; (d60c <__ieee754_log+0x370>)
    d3a8:	9002      	str	r0, [sp, #8]
    d3aa:	9103      	str	r1, [sp, #12]
    d3ac:	4b98      	ldr	r3, [pc, #608]	; (d610 <__ieee754_log+0x374>)
    d3ae:	0020      	movs	r0, r4
    d3b0:	0029      	movs	r1, r5
    d3b2:	f7fb fc9f 	bl	8cf4 <__aeabi_dmul>
    d3b6:	4a97      	ldr	r2, [pc, #604]	; (d614 <__ieee754_log+0x378>)
    d3b8:	4b97      	ldr	r3, [pc, #604]	; (d618 <__ieee754_log+0x37c>)
    d3ba:	f7fa fd75 	bl	7ea8 <__aeabi_dadd>
    d3be:	0022      	movs	r2, r4
    d3c0:	002b      	movs	r3, r5
    d3c2:	f7fb fc97 	bl	8cf4 <__aeabi_dmul>
    d3c6:	4a95      	ldr	r2, [pc, #596]	; (d61c <__ieee754_log+0x380>)
    d3c8:	4b95      	ldr	r3, [pc, #596]	; (d620 <__ieee754_log+0x384>)
    d3ca:	f7fa fd6d 	bl	7ea8 <__aeabi_dadd>
    d3ce:	0022      	movs	r2, r4
    d3d0:	002b      	movs	r3, r5
    d3d2:	f7fb fc8f 	bl	8cf4 <__aeabi_dmul>
    d3d6:	000b      	movs	r3, r1
    d3d8:	0002      	movs	r2, r0
    d3da:	9802      	ldr	r0, [sp, #8]
    d3dc:	9903      	ldr	r1, [sp, #12]
    d3de:	f7fa fd63 	bl	7ea8 <__aeabi_dadd>
    d3e2:	000d      	movs	r5, r1
    d3e4:	4641      	mov	r1, r8
    d3e6:	4b8f      	ldr	r3, [pc, #572]	; (d624 <__ieee754_log+0x388>)
    d3e8:	0004      	movs	r4, r0
    d3ea:	1a5b      	subs	r3, r3, r1
    d3ec:	4651      	mov	r1, sl
    d3ee:	430b      	orrs	r3, r1
    d3f0:	2b00      	cmp	r3, #0
    d3f2:	dc00      	bgt.n	d3f6 <__ieee754_log+0x15a>
    d3f4:	e095      	b.n	d522 <__ieee754_log+0x286>
    d3f6:	2200      	movs	r2, #0
    d3f8:	4b8b      	ldr	r3, [pc, #556]	; (d628 <__ieee754_log+0x38c>)
    d3fa:	0030      	movs	r0, r6
    d3fc:	0039      	movs	r1, r7
    d3fe:	f7fb fc79 	bl	8cf4 <__aeabi_dmul>
    d402:	0032      	movs	r2, r6
    d404:	003b      	movs	r3, r7
    d406:	f7fb fc75 	bl	8cf4 <__aeabi_dmul>
    d40a:	000a      	movs	r2, r1
    d40c:	0001      	movs	r1, r0
    d40e:	0013      	movs	r3, r2
    d410:	9102      	str	r1, [sp, #8]
    d412:	9203      	str	r2, [sp, #12]
    d414:	0002      	movs	r2, r0
    d416:	0029      	movs	r1, r5
    d418:	0020      	movs	r0, r4
    d41a:	f7fa fd45 	bl	7ea8 <__aeabi_dadd>
    d41e:	9a04      	ldr	r2, [sp, #16]
    d420:	9b05      	ldr	r3, [sp, #20]
    d422:	f7fb fc67 	bl	8cf4 <__aeabi_dmul>
    d426:	464b      	mov	r3, r9
    d428:	0004      	movs	r4, r0
    d42a:	000d      	movs	r5, r1
    d42c:	2b00      	cmp	r3, #0
    d42e:	d000      	beq.n	d432 <__ieee754_log+0x196>
    d430:	e08d      	b.n	d54e <__ieee754_log+0x2b2>
    d432:	0002      	movs	r2, r0
    d434:	000b      	movs	r3, r1
    d436:	9802      	ldr	r0, [sp, #8]
    d438:	9903      	ldr	r1, [sp, #12]
    d43a:	f7fb fecd 	bl	91d8 <__aeabi_dsub>
    d43e:	0002      	movs	r2, r0
    d440:	000b      	movs	r3, r1
    d442:	0030      	movs	r0, r6
    d444:	0039      	movs	r1, r7
    d446:	f7fb fec7 	bl	91d8 <__aeabi_dsub>
    d44a:	e008      	b.n	d45e <__ieee754_log+0x1c2>
    d44c:	4c62      	ldr	r4, [pc, #392]	; (d5d8 <__ieee754_log+0x33c>)
    d44e:	2500      	movs	r5, #0
    d450:	42a3      	cmp	r3, r4
    d452:	dc00      	bgt.n	d456 <__ieee754_log+0x1ba>
    d454:	e740      	b.n	d2d8 <__ieee754_log+0x3c>
    d456:	0002      	movs	r2, r0
    d458:	000b      	movs	r3, r1
    d45a:	f7fa fd25 	bl	7ea8 <__aeabi_dadd>
    d45e:	b006      	add	sp, #24
    d460:	bc1c      	pop	{r2, r3, r4}
    d462:	4690      	mov	r8, r2
    d464:	4699      	mov	r9, r3
    d466:	46a2      	mov	sl, r4
    d468:	bdf0      	pop	{r4, r5, r6, r7, pc}
    d46a:	2200      	movs	r2, #0
    d46c:	2300      	movs	r3, #0
    d46e:	2000      	movs	r0, #0
    d470:	496e      	ldr	r1, [pc, #440]	; (d62c <__ieee754_log+0x390>)
    d472:	f7fb f835 	bl	84e0 <__aeabi_ddiv>
    d476:	e7f2      	b.n	d45e <__ieee754_log+0x1c2>
    d478:	2300      	movs	r3, #0
    d47a:	f7f9 fdd5 	bl	7028 <__aeabi_dcmpeq>
    d47e:	2800      	cmp	r0, #0
    d480:	d00e      	beq.n	d4a0 <__ieee754_log+0x204>
    d482:	464b      	mov	r3, r9
    d484:	2b00      	cmp	r3, #0
    d486:	d000      	beq.n	d48a <__ieee754_log+0x1ee>
    d488:	e084      	b.n	d594 <__ieee754_log+0x2f8>
    d48a:	2000      	movs	r0, #0
    d48c:	2100      	movs	r1, #0
    d48e:	e7e6      	b.n	d45e <__ieee754_log+0x1c2>
    d490:	0002      	movs	r2, r0
    d492:	f7fb fea1 	bl	91d8 <__aeabi_dsub>
    d496:	2200      	movs	r2, #0
    d498:	2300      	movs	r3, #0
    d49a:	f7fb f821 	bl	84e0 <__aeabi_ddiv>
    d49e:	e7de      	b.n	d45e <__ieee754_log+0x1c2>
    d4a0:	4a63      	ldr	r2, [pc, #396]	; (d630 <__ieee754_log+0x394>)
    d4a2:	4b64      	ldr	r3, [pc, #400]	; (d634 <__ieee754_log+0x398>)
    d4a4:	0030      	movs	r0, r6
    d4a6:	0039      	movs	r1, r7
    d4a8:	f7fb fc24 	bl	8cf4 <__aeabi_dmul>
    d4ac:	0002      	movs	r2, r0
    d4ae:	000b      	movs	r3, r1
    d4b0:	2000      	movs	r0, #0
    d4b2:	495d      	ldr	r1, [pc, #372]	; (d628 <__ieee754_log+0x38c>)
    d4b4:	f7fb fe90 	bl	91d8 <__aeabi_dsub>
    d4b8:	0032      	movs	r2, r6
    d4ba:	0004      	movs	r4, r0
    d4bc:	000d      	movs	r5, r1
    d4be:	003b      	movs	r3, r7
    d4c0:	0030      	movs	r0, r6
    d4c2:	0039      	movs	r1, r7
    d4c4:	f7fb fc16 	bl	8cf4 <__aeabi_dmul>
    d4c8:	000b      	movs	r3, r1
    d4ca:	0002      	movs	r2, r0
    d4cc:	0029      	movs	r1, r5
    d4ce:	0020      	movs	r0, r4
    d4d0:	f7fb fc10 	bl	8cf4 <__aeabi_dmul>
    d4d4:	464b      	mov	r3, r9
    d4d6:	0004      	movs	r4, r0
    d4d8:	000d      	movs	r5, r1
    d4da:	2b00      	cmp	r3, #0
    d4dc:	d030      	beq.n	d540 <__ieee754_log+0x2a4>
    d4de:	4648      	mov	r0, r9
    d4e0:	f7fc fa14 	bl	990c <__aeabi_i2d>
    d4e4:	9000      	str	r0, [sp, #0]
    d4e6:	9101      	str	r1, [sp, #4]
    d4e8:	4a53      	ldr	r2, [pc, #332]	; (d638 <__ieee754_log+0x39c>)
    d4ea:	4b54      	ldr	r3, [pc, #336]	; (d63c <__ieee754_log+0x3a0>)
    d4ec:	f7fb fc02 	bl	8cf4 <__aeabi_dmul>
    d4f0:	4a53      	ldr	r2, [pc, #332]	; (d640 <__ieee754_log+0x3a4>)
    d4f2:	9002      	str	r0, [sp, #8]
    d4f4:	9103      	str	r1, [sp, #12]
    d4f6:	9800      	ldr	r0, [sp, #0]
    d4f8:	9901      	ldr	r1, [sp, #4]
    d4fa:	4b52      	ldr	r3, [pc, #328]	; (d644 <__ieee754_log+0x3a8>)
    d4fc:	f7fb fbfa 	bl	8cf4 <__aeabi_dmul>
    d500:	0002      	movs	r2, r0
    d502:	000b      	movs	r3, r1
    d504:	0020      	movs	r0, r4
    d506:	0029      	movs	r1, r5
    d508:	f7fb fe66 	bl	91d8 <__aeabi_dsub>
    d50c:	0032      	movs	r2, r6
    d50e:	003b      	movs	r3, r7
    d510:	f7fb fe62 	bl	91d8 <__aeabi_dsub>
    d514:	0002      	movs	r2, r0
    d516:	000b      	movs	r3, r1
    d518:	9802      	ldr	r0, [sp, #8]
    d51a:	9903      	ldr	r1, [sp, #12]
    d51c:	f7fb fe5c 	bl	91d8 <__aeabi_dsub>
    d520:	e79d      	b.n	d45e <__ieee754_log+0x1c2>
    d522:	0022      	movs	r2, r4
    d524:	002b      	movs	r3, r5
    d526:	0030      	movs	r0, r6
    d528:	0039      	movs	r1, r7
    d52a:	f7fb fe55 	bl	91d8 <__aeabi_dsub>
    d52e:	9a04      	ldr	r2, [sp, #16]
    d530:	9b05      	ldr	r3, [sp, #20]
    d532:	f7fb fbdf 	bl	8cf4 <__aeabi_dmul>
    d536:	464b      	mov	r3, r9
    d538:	0004      	movs	r4, r0
    d53a:	000d      	movs	r5, r1
    d53c:	2b00      	cmp	r3, #0
    d53e:	d141      	bne.n	d5c4 <__ieee754_log+0x328>
    d540:	0022      	movs	r2, r4
    d542:	002b      	movs	r3, r5
    d544:	0030      	movs	r0, r6
    d546:	0039      	movs	r1, r7
    d548:	f7fb fe46 	bl	91d8 <__aeabi_dsub>
    d54c:	e787      	b.n	d45e <__ieee754_log+0x1c2>
    d54e:	4a3a      	ldr	r2, [pc, #232]	; (d638 <__ieee754_log+0x39c>)
    d550:	4b3a      	ldr	r3, [pc, #232]	; (d63c <__ieee754_log+0x3a0>)
    d552:	9800      	ldr	r0, [sp, #0]
    d554:	9901      	ldr	r1, [sp, #4]
    d556:	f7fb fbcd 	bl	8cf4 <__aeabi_dmul>
    d55a:	4a39      	ldr	r2, [pc, #228]	; (d640 <__ieee754_log+0x3a4>)
    d55c:	9004      	str	r0, [sp, #16]
    d55e:	9105      	str	r1, [sp, #20]
    d560:	9800      	ldr	r0, [sp, #0]
    d562:	9901      	ldr	r1, [sp, #4]
    d564:	4b37      	ldr	r3, [pc, #220]	; (d644 <__ieee754_log+0x3a8>)
    d566:	f7fb fbc5 	bl	8cf4 <__aeabi_dmul>
    d56a:	0022      	movs	r2, r4
    d56c:	002b      	movs	r3, r5
    d56e:	f7fa fc9b 	bl	7ea8 <__aeabi_dadd>
    d572:	0002      	movs	r2, r0
    d574:	000b      	movs	r3, r1
    d576:	9802      	ldr	r0, [sp, #8]
    d578:	9903      	ldr	r1, [sp, #12]
    d57a:	f7fb fe2d 	bl	91d8 <__aeabi_dsub>
    d57e:	0032      	movs	r2, r6
    d580:	003b      	movs	r3, r7
    d582:	f7fb fe29 	bl	91d8 <__aeabi_dsub>
    d586:	0002      	movs	r2, r0
    d588:	000b      	movs	r3, r1
    d58a:	9804      	ldr	r0, [sp, #16]
    d58c:	9905      	ldr	r1, [sp, #20]
    d58e:	f7fb fe23 	bl	91d8 <__aeabi_dsub>
    d592:	e764      	b.n	d45e <__ieee754_log+0x1c2>
    d594:	4648      	mov	r0, r9
    d596:	f7fc f9b9 	bl	990c <__aeabi_i2d>
    d59a:	4a27      	ldr	r2, [pc, #156]	; (d638 <__ieee754_log+0x39c>)
    d59c:	4b27      	ldr	r3, [pc, #156]	; (d63c <__ieee754_log+0x3a0>)
    d59e:	0004      	movs	r4, r0
    d5a0:	000d      	movs	r5, r1
    d5a2:	f7fb fba7 	bl	8cf4 <__aeabi_dmul>
    d5a6:	4a26      	ldr	r2, [pc, #152]	; (d640 <__ieee754_log+0x3a4>)
    d5a8:	0006      	movs	r6, r0
    d5aa:	000f      	movs	r7, r1
    d5ac:	4b25      	ldr	r3, [pc, #148]	; (d644 <__ieee754_log+0x3a8>)
    d5ae:	0020      	movs	r0, r4
    d5b0:	0029      	movs	r1, r5
    d5b2:	f7fb fb9f 	bl	8cf4 <__aeabi_dmul>
    d5b6:	0002      	movs	r2, r0
    d5b8:	000b      	movs	r3, r1
    d5ba:	0030      	movs	r0, r6
    d5bc:	0039      	movs	r1, r7
    d5be:	f7fa fc73 	bl	7ea8 <__aeabi_dadd>
    d5c2:	e74c      	b.n	d45e <__ieee754_log+0x1c2>
    d5c4:	4a1c      	ldr	r2, [pc, #112]	; (d638 <__ieee754_log+0x39c>)
    d5c6:	4b1d      	ldr	r3, [pc, #116]	; (d63c <__ieee754_log+0x3a0>)
    d5c8:	9800      	ldr	r0, [sp, #0]
    d5ca:	9901      	ldr	r1, [sp, #4]
    d5cc:	e78e      	b.n	d4ec <__ieee754_log+0x250>
    d5ce:	46c0      	nop			; (mov r8, r8)
    d5d0:	000fffff 	.word	0x000fffff
    d5d4:	43500000 	.word	0x43500000
    d5d8:	7fefffff 	.word	0x7fefffff
    d5dc:	fffffc01 	.word	0xfffffc01
    d5e0:	00095f64 	.word	0x00095f64
    d5e4:	3ff00000 	.word	0x3ff00000
    d5e8:	fff9eb86 	.word	0xfff9eb86
    d5ec:	df3e5244 	.word	0xdf3e5244
    d5f0:	3fc2f112 	.word	0x3fc2f112
    d5f4:	96cb03de 	.word	0x96cb03de
    d5f8:	3fc74664 	.word	0x3fc74664
    d5fc:	94229359 	.word	0x94229359
    d600:	3fd24924 	.word	0x3fd24924
    d604:	55555593 	.word	0x55555593
    d608:	3fe55555 	.word	0x3fe55555
    d60c:	d078c69f 	.word	0xd078c69f
    d610:	3fc39a09 	.word	0x3fc39a09
    d614:	1d8e78af 	.word	0x1d8e78af
    d618:	3fcc71c5 	.word	0x3fcc71c5
    d61c:	9997fa04 	.word	0x9997fa04
    d620:	3fd99999 	.word	0x3fd99999
    d624:	0006b851 	.word	0x0006b851
    d628:	3fe00000 	.word	0x3fe00000
    d62c:	c3500000 	.word	0xc3500000
    d630:	55555555 	.word	0x55555555
    d634:	3fd55555 	.word	0x3fd55555
    d638:	fee00000 	.word	0xfee00000
    d63c:	3fe62e42 	.word	0x3fe62e42
    d640:	35793c76 	.word	0x35793c76
    d644:	3dea39ef 	.word	0x3dea39ef

0000d648 <matherr>:
matherr():
    d648:	2000      	movs	r0, #0
    d64a:	4770      	bx	lr

0000d64c <nan>:
nan():
    d64c:	2000      	movs	r0, #0
    d64e:	4901      	ldr	r1, [pc, #4]	; (d654 <nan+0x8>)
    d650:	4770      	bx	lr
    d652:	46c0      	nop			; (mov r8, r8)
    d654:	7ff80000 	.word	0x7ff80000

0000d658 <__errno>:
__errno():
    d658:	4b01      	ldr	r3, [pc, #4]	; (d660 <__errno+0x8>)
    d65a:	6818      	ldr	r0, [r3, #0]
    d65c:	4770      	bx	lr
    d65e:	46c0      	nop			; (mov r8, r8)
    d660:	20000010 	.word	0x20000010

0000d664 <exit>:
exit():
    d664:	4b08      	ldr	r3, [pc, #32]	; (d688 <exit+0x24>)
    d666:	b510      	push	{r4, lr}
    d668:	0004      	movs	r4, r0
    d66a:	2b00      	cmp	r3, #0
    d66c:	d002      	beq.n	d674 <exit+0x10>
    d66e:	2100      	movs	r1, #0
    d670:	e000      	b.n	d674 <exit+0x10>
    d672:	bf00      	nop
    d674:	4b05      	ldr	r3, [pc, #20]	; (d68c <exit+0x28>)
    d676:	6818      	ldr	r0, [r3, #0]
    d678:	6a83      	ldr	r3, [r0, #40]	; 0x28
    d67a:	2b00      	cmp	r3, #0
    d67c:	d000      	beq.n	d680 <exit+0x1c>
    d67e:	4798      	blx	r3
    d680:	0020      	movs	r0, r4
    d682:	f000 f83b 	bl	d6fc <_exit>
    d686:	46c0      	nop			; (mov r8, r8)
    d688:	00000000 	.word	0x00000000
    d68c:	0000e4c4 	.word	0x0000e4c4

0000d690 <__libc_init_array>:
__libc_init_array():
    d690:	b570      	push	{r4, r5, r6, lr}
    d692:	2600      	movs	r6, #0
    d694:	4d0c      	ldr	r5, [pc, #48]	; (d6c8 <__libc_init_array+0x38>)
    d696:	4c0d      	ldr	r4, [pc, #52]	; (d6cc <__libc_init_array+0x3c>)
    d698:	1b64      	subs	r4, r4, r5
    d69a:	10a4      	asrs	r4, r4, #2
    d69c:	42a6      	cmp	r6, r4
    d69e:	d109      	bne.n	d6b4 <__libc_init_array+0x24>
    d6a0:	2600      	movs	r6, #0
    d6a2:	f000 ff11 	bl	e4c8 <_init>
    d6a6:	4d0a      	ldr	r5, [pc, #40]	; (d6d0 <__libc_init_array+0x40>)
    d6a8:	4c0a      	ldr	r4, [pc, #40]	; (d6d4 <__libc_init_array+0x44>)
    d6aa:	1b64      	subs	r4, r4, r5
    d6ac:	10a4      	asrs	r4, r4, #2
    d6ae:	42a6      	cmp	r6, r4
    d6b0:	d105      	bne.n	d6be <__libc_init_array+0x2e>
    d6b2:	bd70      	pop	{r4, r5, r6, pc}
    d6b4:	00b3      	lsls	r3, r6, #2
    d6b6:	58eb      	ldr	r3, [r5, r3]
    d6b8:	4798      	blx	r3
    d6ba:	3601      	adds	r6, #1
    d6bc:	e7ee      	b.n	d69c <__libc_init_array+0xc>
    d6be:	00b3      	lsls	r3, r6, #2
    d6c0:	58eb      	ldr	r3, [r5, r3]
    d6c2:	4798      	blx	r3
    d6c4:	3601      	adds	r6, #1
    d6c6:	e7f2      	b.n	d6ae <__libc_init_array+0x1e>
    d6c8:	0000e4e8 	.word	0x0000e4e8
    d6cc:	0000e4e8 	.word	0x0000e4e8
    d6d0:	0000e4e8 	.word	0x0000e4e8
    d6d4:	0000e4ec 	.word	0x0000e4ec

0000d6d8 <memcpy>:
memcpy():
    d6d8:	2300      	movs	r3, #0
    d6da:	b510      	push	{r4, lr}
    d6dc:	429a      	cmp	r2, r3
    d6de:	d100      	bne.n	d6e2 <memcpy+0xa>
    d6e0:	bd10      	pop	{r4, pc}
    d6e2:	5ccc      	ldrb	r4, [r1, r3]
    d6e4:	54c4      	strb	r4, [r0, r3]
    d6e6:	3301      	adds	r3, #1
    d6e8:	e7f8      	b.n	d6dc <memcpy+0x4>

0000d6ea <memset>:
memset():
    d6ea:	0003      	movs	r3, r0
    d6ec:	1812      	adds	r2, r2, r0
    d6ee:	4293      	cmp	r3, r2
    d6f0:	d100      	bne.n	d6f4 <memset+0xa>
    d6f2:	4770      	bx	lr
    d6f4:	7019      	strb	r1, [r3, #0]
    d6f6:	3301      	adds	r3, #1
    d6f8:	e7f9      	b.n	d6ee <memset+0x4>
	...

0000d6fc <_exit>:
_exit():
    d6fc:	e7fe      	b.n	d6fc <_exit>
    d6fe:	46c0      	nop			; (mov r8, r8)
	...
    d708:	0000001f 	.word	0x0000001f
    d70c:	00000000 	.word	0x00000000
    d710:	0000003b 	.word	0x0000003b
    d714:	00000000 	.word	0x00000000
    d718:	0000005a 	.word	0x0000005a
    d71c:	00000000 	.word	0x00000000
    d720:	00000078 	.word	0x00000078
    d724:	00000000 	.word	0x00000000
    d728:	00000097 	.word	0x00000097
    d72c:	00000000 	.word	0x00000000
    d730:	000000b5 	.word	0x000000b5
    d734:	00000000 	.word	0x00000000
    d738:	000000d4 	.word	0x000000d4
    d73c:	00000000 	.word	0x00000000
    d740:	000000f3 	.word	0x000000f3
    d744:	00000000 	.word	0x00000000
    d748:	00000111 	.word	0x00000111
    d74c:	00000000 	.word	0x00000000
    d750:	00000130 	.word	0x00000130
    d754:	00000000 	.word	0x00000000
    d758:	0000014e 	.word	0x0000014e
    d75c:	00000000 	.word	0x00000000
    d760:	0000016d 	.word	0x0000016d
    d764:	00000000 	.word	0x00000000
    d768:	00007536 	.word	0x00007536
    d76c:	00007472 	.word	0x00007472
    d770:	00007496 	.word	0x00007496
    d774:	00007434 	.word	0x00007434
    d778:	00007496 	.word	0x00007496
    d77c:	00007512 	.word	0x00007512
    d780:	00007496 	.word	0x00007496
    d784:	00007434 	.word	0x00007434
    d788:	00007472 	.word	0x00007472
    d78c:	00007472 	.word	0x00007472
    d790:	00007512 	.word	0x00007512
    d794:	00007434 	.word	0x00007434
    d798:	00007568 	.word	0x00007568
    d79c:	00007568 	.word	0x00007568
    d7a0:	00007568 	.word	0x00007568
    d7a4:	0000751e 	.word	0x0000751e
    d7a8:	00007472 	.word	0x00007472
    d7ac:	00007472 	.word	0x00007472
    d7b0:	00007496 	.word	0x00007496
    d7b4:	00007432 	.word	0x00007432
    d7b8:	00007496 	.word	0x00007496
    d7bc:	00007512 	.word	0x00007512
    d7c0:	00007496 	.word	0x00007496
    d7c4:	00007432 	.word	0x00007432
    d7c8:	00007472 	.word	0x00007472
    d7cc:	00007472 	.word	0x00007472
    d7d0:	00007512 	.word	0x00007512
    d7d4:	00007432 	.word	0x00007432
    d7d8:	00007568 	.word	0x00007568
    d7dc:	00007568 	.word	0x00007568
    d7e0:	00007568 	.word	0x00007568
    d7e4:	0000751c 	.word	0x0000751c
    d7e8:	00007860 	.word	0x00007860
    d7ec:	0000780a 	.word	0x0000780a
    d7f0:	0000780a 	.word	0x0000780a
    d7f4:	00007938 	.word	0x00007938
    d7f8:	00007806 	.word	0x00007806
    d7fc:	00007806 	.word	0x00007806
    d800:	0000792e 	.word	0x0000792e
    d804:	00007938 	.word	0x00007938
    d808:	00007806 	.word	0x00007806
    d80c:	0000792e 	.word	0x0000792e
    d810:	00007806 	.word	0x00007806
    d814:	00007938 	.word	0x00007938
    d818:	0000793c 	.word	0x0000793c
    d81c:	0000793c 	.word	0x0000793c
    d820:	0000793c 	.word	0x0000793c
    d824:	00007944 	.word	0x00007944
    d828:	00008784 	.word	0x00008784
    d82c:	000085f6 	.word	0x000085f6
    d830:	0000863a 	.word	0x0000863a
    d834:	0000859e 	.word	0x0000859e
    d838:	0000863a 	.word	0x0000863a
    d83c:	0000872a 	.word	0x0000872a
    d840:	0000863a 	.word	0x0000863a
    d844:	0000859e 	.word	0x0000859e
    d848:	000085f6 	.word	0x000085f6
    d84c:	000085f6 	.word	0x000085f6
    d850:	0000872a 	.word	0x0000872a
    d854:	0000859e 	.word	0x0000859e
    d858:	00008596 	.word	0x00008596
    d85c:	00008596 	.word	0x00008596
    d860:	00008596 	.word	0x00008596
    d864:	00008738 	.word	0x00008738
    d868:	00008eac 	.word	0x00008eac
    d86c:	00008dae 	.word	0x00008dae
    d870:	00008dae 	.word	0x00008dae
    d874:	000090cc 	.word	0x000090cc
    d878:	00008da8 	.word	0x00008da8
    d87c:	00008da8 	.word	0x00008da8
    d880:	000090b4 	.word	0x000090b4
    d884:	000090cc 	.word	0x000090cc
    d888:	00008da8 	.word	0x00008da8
    d88c:	000090b4 	.word	0x000090b4
    d890:	00008da8 	.word	0x00008da8
    d894:	000090cc 	.word	0x000090cc
    d898:	000090c2 	.word	0x000090c2
    d89c:	000090c2 	.word	0x000090c2
    d8a0:	000090c2 	.word	0x000090c2
    d8a4:	000090d0 	.word	0x000090d0
    d8a8:	f9baf0bd 	.word	0xf9baf0bd
    d8ac:	6f49abc2 	.word	0x6f49abc2
    d8b0:	45472d54 	.word	0x45472d54
    d8b4:	00000043 	.word	0x00000043
    d8b8:	7079545b 	.word	0x7079545b
    d8bc:	20205d65 	.word	0x20205d65
    d8c0:	20202020 	.word	0x20202020
    d8c4:	20202020 	.word	0x20202020
    d8c8:	20202020 	.word	0x20202020
    d8cc:	20202020 	.word	0x20202020
    d8d0:	00202020 	.word	0x00202020
    d8d4:	4f49425b 	.word	0x4f49425b
    d8d8:	45565f53 	.word	0x45565f53
    d8dc:	20205d52 	.word	0x20205d52
    d8e0:	20202020 	.word	0x20202020
    d8e4:	20202020 	.word	0x20202020
    d8e8:	20202020 	.word	0x20202020
    d8ec:	20202020 	.word	0x20202020
    d8f0:	00000000 	.word	0x00000000
    d8f4:	4553555b 	.word	0x4553555b
    d8f8:	45565f52 	.word	0x45565f52
    d8fc:	20205d52 	.word	0x20205d52
    d900:	00002020 	.word	0x00002020
    d904:	534d495b 	.word	0x534d495b
    d908:	20205d49 	.word	0x20205d49
    d90c:	20202020 	.word	0x20202020
    d910:	20202020 	.word	0x20202020
    d914:	20202020 	.word	0x20202020
    d918:	20202020 	.word	0x20202020
    d91c:	20202020 	.word	0x20202020
    d920:	00000000 	.word	0x00000000
    d924:	55434d5b 	.word	0x55434d5b
    d928:	6d65745f 	.word	0x6d65745f
    d92c:	61726570 	.word	0x61726570
    d930:	65727574 	.word	0x65727574
    d934:	2020205d 	.word	0x2020205d
    d938:	20202020 	.word	0x20202020
    d93c:	20202020 	.word	0x20202020
    d940:	00000000 	.word	0x00000000
    d944:	53424c5b 	.word	0x53424c5b
    d948:	2020205d 	.word	0x2020205d
    d94c:	20202020 	.word	0x20202020
    d950:	20202020 	.word	0x20202020
    d954:	20202020 	.word	0x20202020
    d958:	20202020 	.word	0x20202020
    d95c:	00202020 	.word	0x00202020
    d960:	6769535b 	.word	0x6769535b
    d964:	206c616e 	.word	0x206c616e
    d968:	65727473 	.word	0x65727473
    d96c:	6874676e 	.word	0x6874676e
    d970:	5d292528 	.word	0x5d292528
    d974:	20202020 	.word	0x20202020
    d978:	00202020 	.word	0x00202020
    d97c:	3a50495b 	.word	0x3a50495b
    d980:	205d5450 	.word	0x205d5450
    d984:	20202020 	.word	0x20202020
    d988:	20202020 	.word	0x20202020
    d98c:	20202020 	.word	0x20202020
    d990:	20202020 	.word	0x20202020
    d994:	00202020 	.word	0x00202020
    d998:	0000003a 	.word	0x0000003a
    d99c:	3a495354 	.word	0x3a495354
    d9a0:	20202020 	.word	0x20202020
    d9a4:	46202020 	.word	0x46202020
    d9a8:	28716572 	.word	0x28716572
    d9ac:	203a2973 	.word	0x203a2973
    d9b0:	20202020 	.word	0x20202020
    d9b4:	00202020 	.word	0x00202020
    d9b8:	20202020 	.word	0x20202020
    d9bc:	00002020 	.word	0x00002020
    d9c0:	00000030 	.word	0x00000030
    d9c4:	656d6954 	.word	0x656d6954
    d9c8:	2020203a 	.word	0x2020203a
    d9cc:	20202020 	.word	0x20202020
    d9d0:	20202020 	.word	0x20202020
    d9d4:	20202020 	.word	0x20202020
    d9d8:	20202020 	.word	0x20202020
    d9dc:	00202020 	.word	0x00202020
    d9e0:	38313032 	.word	0x38313032
    d9e4:	2d37302d 	.word	0x2d37302d
    d9e8:	32203130 	.word	0x32203130
    d9ec:	35353a31 	.word	0x35353a31
    d9f0:	0030303a 	.word	0x0030303a
    d9f4:	65736552 	.word	0x65736552
    d9f8:	64657672 	.word	0x64657672
    d9fc:	65726120 	.word	0x65726120
    da00:	6f792c61 	.word	0x6f792c61
    da04:	61632075 	.word	0x61632075
    da08:	7375206e 	.word	0x7375206e
    da0c:	74692065 	.word	0x74692065
    da10:	00000000 	.word	0x00000000
    da14:	76636552 	.word	0x76636552
    da18:	6e756f43 	.word	0x6e756f43
    da1c:	20203a74 	.word	0x20203a74
    da20:	20202020 	.word	0x20202020
    da24:	20202020 	.word	0x20202020
    da28:	20202020 	.word	0x20202020
    da2c:	00202020 	.word	0x00202020
    da30:	206e7552 	.word	0x206e7552
    da34:	74617453 	.word	0x74617453
    da38:	20203a65 	.word	0x20203a65
    da3c:	20202020 	.word	0x20202020
    da40:	20202020 	.word	0x20202020
    da44:	20202020 	.word	0x20202020
    da48:	00202020 	.word	0x00202020
    da4c:	204c4841 	.word	0x204c4841
    da50:	74696e49 	.word	0x74696e49
    da54:	20202020 	.word	0x20202020
    da58:	20202020 	.word	0x20202020
    da5c:	20202020 	.word	0x20202020
    da60:	20202020 	.word	0x20202020
    da64:	20202020 	.word	0x20202020
    da68:	00000000 	.word	0x00000000
    da6c:	204c4841 	.word	0x204c4841
    da70:	74696e49 	.word	0x74696e49
    da74:	20202e20 	.word	0x20202e20
    da78:	20202020 	.word	0x20202020
    da7c:	20202020 	.word	0x20202020
    da80:	20202020 	.word	0x20202020
    da84:	20202020 	.word	0x20202020
    da88:	00000000 	.word	0x00000000
    da8c:	204c4841 	.word	0x204c4841
    da90:	74696e49 	.word	0x74696e49
    da94:	202e2e20 	.word	0x202e2e20
    da98:	20202020 	.word	0x20202020
    da9c:	20202020 	.word	0x20202020
    daa0:	20202020 	.word	0x20202020
    daa4:	20202020 	.word	0x20202020
    daa8:	00000000 	.word	0x00000000
    daac:	204c4841 	.word	0x204c4841
    dab0:	74696e49 	.word	0x74696e49
    dab4:	202e2e20 	.word	0x202e2e20
    dab8:	45205441 	.word	0x45205441
    dabc:	726f7272 	.word	0x726f7272
    dac0:	20202020 	.word	0x20202020
    dac4:	20202020 	.word	0x20202020
    dac8:	00000000 	.word	0x00000000
    dacc:	204c4841 	.word	0x204c4841
    dad0:	74696e49 	.word	0x74696e49
    dad4:	202e2e20 	.word	0x202e2e20
    dad8:	206d6973 	.word	0x206d6973
    dadc:	6f727245 	.word	0x6f727245
    dae0:	20202072 	.word	0x20202072
    dae4:	20202020 	.word	0x20202020
    dae8:	00000000 	.word	0x00000000
    daec:	204c4841 	.word	0x204c4841
    daf0:	74696e49 	.word	0x74696e49
    daf4:	2e2e2e20 	.word	0x2e2e2e20
    daf8:	20202020 	.word	0x20202020
    dafc:	20202020 	.word	0x20202020
    db00:	20202020 	.word	0x20202020
    db04:	20202020 	.word	0x20202020
    db08:	00000000 	.word	0x00000000
    db0c:	204c4841 	.word	0x204c4841
    db10:	74696e49 	.word	0x74696e49
    db14:	2e2e2e20 	.word	0x2e2e2e20
    db18:	6b6e696c 	.word	0x6b6e696c
    db1c:	73616220 	.word	0x73616220
    db20:	72452065 	.word	0x72452065
    db24:	20726f72 	.word	0x20726f72
    db28:	00000000 	.word	0x00000000
    db2c:	204c4841 	.word	0x204c4841
    db30:	74696e49 	.word	0x74696e49
    db34:	2e2e2e20 	.word	0x2e2e2e20
    db38:	2020202e 	.word	0x2020202e
    db3c:	20202020 	.word	0x20202020
    db40:	20202020 	.word	0x20202020
    db44:	20202020 	.word	0x20202020
    db48:	00000000 	.word	0x00000000
    db4c:	2e4c4841 	.word	0x2e4c4841
    db50:	4c2e2e2e 	.word	0x4c2e2e2e
    db54:	206b6e69 	.word	0x206b6e69
    db58:	4d2d5343 	.word	0x4d2d5343
    db5c:	74696e6f 	.word	0x74696e6f
    db60:	4520726f 	.word	0x4520726f
    db64:	726f7272 	.word	0x726f7272
    db68:	00000000 	.word	0x00000000
    db6c:	204c4841 	.word	0x204c4841
    db70:	74696e49 	.word	0x74696e49
    db74:	2e2e2e20 	.word	0x2e2e2e20
    db78:	53202e2e 	.word	0x53202e2e
    db7c:	65636375 	.word	0x65636375
    db80:	75667373 	.word	0x75667373
    db84:	20796c6c 	.word	0x20796c6c
    db88:	00000000 	.word	0x00000000
    db8c:	d8b9aabf 	.word	0xd8b9aabf
    db90:	acccb4d7 	.word	0xacccb4d7
    db94:	252c6425 	.word	0x252c6425
    db98:	64252c64 	.word	0x64252c64
    db9c:	0a64252c 	.word	0x0a64252c
    dba0:	00000000 	.word	0x00000000
    dba4:	d8b9aabf 	.word	0xd8b9aabf
    dba8:	acccb4d7 	.word	0xacccb4d7
    dbac:	000a6425 	.word	0x000a6425
    dbb0:	000a2020 	.word	0x000a2020
    dbb4:	204c4841 	.word	0x204c4841
    dbb8:	646e6553 	.word	0x646e6553
    dbbc:	20202e20 	.word	0x20202e20
    dbc0:	20202020 	.word	0x20202020
    dbc4:	20202020 	.word	0x20202020
    dbc8:	20202020 	.word	0x20202020
    dbcc:	20202020 	.word	0x20202020
    dbd0:	00000000 	.word	0x00000000
    dbd4:	204c4841 	.word	0x204c4841
    dbd8:	646e6553 	.word	0x646e6553
    dbdc:	202e2e20 	.word	0x202e2e20
    dbe0:	20202020 	.word	0x20202020
    dbe4:	20202020 	.word	0x20202020
    dbe8:	20202020 	.word	0x20202020
    dbec:	20202020 	.word	0x20202020
    dbf0:	00000000 	.word	0x00000000
    dbf4:	204c4841 	.word	0x204c4841
    dbf8:	646e6553 	.word	0x646e6553
    dbfc:	63755320 	.word	0x63755320
    dc00:	73736563 	.word	0x73736563
    dc04:	6c6c7566 	.word	0x6c6c7566
    dc08:	20202079 	.word	0x20202079
    dc0c:	20202020 	.word	0x20202020
    dc10:	00000000 	.word	0x00000000
    dc14:	646e6553 	.word	0x646e6553
    dc18:	72724520 	.word	0x72724520
    dc1c:	533a726f 	.word	0x533a726f
    dc20:	20646e65 	.word	0x20646e65
    dc24:	20746f4e 	.word	0x20746f4e
    dc28:	72617453 	.word	0x72617453
    dc2c:	20202074 	.word	0x20202074
    dc30:	00000000 	.word	0x00000000
    dc34:	646e6553 	.word	0x646e6553
    dc38:	72724520 	.word	0x72724520
    dc3c:	533a726f 	.word	0x533a726f
    dc40:	20646e65 	.word	0x20646e65
    dc44:	61746144 	.word	0x61746144
    dc48:	746f4e20 	.word	0x746f4e20
    dc4c:	204b4f20 	.word	0x204b4f20
    dc50:	00000000 	.word	0x00000000
    dc54:	204c4841 	.word	0x204c4841
    dc58:	6e696552 	.word	0x6e696552
    dc5c:	2e207469 	.word	0x2e207469
    dc60:	20202020 	.word	0x20202020
    dc64:	20202020 	.word	0x20202020
    dc68:	20202020 	.word	0x20202020
    dc6c:	20202020 	.word	0x20202020
    dc70:	00000000 	.word	0x00000000
    dc74:	204c4841 	.word	0x204c4841
    dc78:	6e696552 	.word	0x6e696552
    dc7c:	2e207469 	.word	0x2e207469
    dc80:	2020202e 	.word	0x2020202e
    dc84:	20202020 	.word	0x20202020
    dc88:	20202020 	.word	0x20202020
    dc8c:	20202020 	.word	0x20202020
    dc90:	00000000 	.word	0x00000000
    dc94:	204c4841 	.word	0x204c4841
    dc98:	6e696552 	.word	0x6e696552
    dc9c:	2e207469 	.word	0x2e207469
    dca0:	20202e2e 	.word	0x20202e2e
    dca4:	20202020 	.word	0x20202020
    dca8:	20202020 	.word	0x20202020
    dcac:	20202020 	.word	0x20202020
    dcb0:	00000020 	.word	0x00000020
    dcb4:	204c4841 	.word	0x204c4841
    dcb8:	6e696552 	.word	0x6e696552
    dcbc:	2e207469 	.word	0x2e207469
    dcc0:	202e2e2e 	.word	0x202e2e2e
    dcc4:	6c696146 	.word	0x6c696146
    dcc8:	20202020 	.word	0x20202020
    dccc:	20202020 	.word	0x20202020
    dcd0:	00000000 	.word	0x00000000
    dcd4:	204c4841 	.word	0x204c4841
    dcd8:	6e696552 	.word	0x6e696552
    dcdc:	2e207469 	.word	0x2e207469
    dce0:	202e2e2e 	.word	0x202e2e2e
    dce4:	63637553 	.word	0x63637553
    dce8:	20737365 	.word	0x20737365
    dcec:	20202020 	.word	0x20202020
    dcf0:	00000000 	.word	0x00000000
    dcf4:	204c4841 	.word	0x204c4841
    dcf8:	76636552 	.word	0x76636552
    dcfc:	656e6f20 	.word	0x656e6f20
    dd00:	61726620 	.word	0x61726620
    dd04:	2020656d 	.word	0x2020656d
    dd08:	20202020 	.word	0x20202020
    dd0c:	20202020 	.word	0x20202020
    dd10:	00000000 	.word	0x00000000
    dd14:	63637573 	.word	0x63637573
    dd18:	00737365 	.word	0x00737365
    dd1c:	204c4841 	.word	0x204c4841
    dd20:	6c706552 	.word	0x6c706552
    dd24:	75532079 	.word	0x75532079
    dd28:	73656363 	.word	0x73656363
    dd2c:	6c756673 	.word	0x6c756673
    dd30:	2020796c 	.word	0x2020796c
    dd34:	20202020 	.word	0x20202020
    dd38:	00000000 	.word	0x00000000
    dd3c:	204c4841 	.word	0x204c4841
    dd40:	76636552 	.word	0x76636552
    dd44:	63755320 	.word	0x63755320
    dd48:	73736563 	.word	0x73736563
    dd4c:	6c6c7566 	.word	0x6c6c7566
    dd50:	20202079 	.word	0x20202079
    dd54:	20202020 	.word	0x20202020
    dd58:	00000000 	.word	0x00000000
    dd5c:	00003055 	.word	0x00003055

0000dd60 <GB_16>:
    dd60:	0080f0bd 01400080 04100220 77f40a08     ......@. ......w
    dd70:	00802083 00800ff8 04900888 3ffe12a0     . .............?
    dd80:	f9ba0000 22200220 02207fff 22903e10     .... . ".. ..>."
    dd90:	3e1023fe 22fc2250 22443e44 227c2244     .#.>P"."D>D"D"|"
    dda0:	10802944 0410abc2 7fff2410 10800410     D).......$......
    ddb0:	10043ffc 1ffc1004 00041004 00040004     .?..............
    ddc0:	00020002 00000001                       ........

0000ddc8 <nAsciiDot>:
	...
    ddd8:	3c180000 18183c3c 18180018 00000000     ...<<<..........
    dde8:	66666600 00000024 00000000 00000000     .fff$...........
    ddf8:	36000000 36367f36 36367f36 00000000     ...66.666.66....
    de08:	633e1818 603e0343 183e6361 00000018     ..>cC.>`ac>.....
    de18:	00000000 18306343 6163060c 00000000     ....Cc0...ca....
    de28:	361c0000 3b6e1c36 6e333333 00000000     ...66.n;333n....
    de38:	0c0c0c00 00000006 00000000 00000000     ................
    de48:	18300000 0c0c0c0c 30180c0c 00000000     ..0........0....
    de58:	180c0000 30303030 0c183030 00000000     ....000000......
    de68:	00000000 ff3c6600 0000663c 00000000     .....f<.<f......
    de78:	00000000 7e181800 00001818 00000000     .......~........
	...
    de90:	18181800 0000000c 00000000 7f000000     ................
	...
    deb0:	18180000 00000000 00000000 18306040     ............@`0.
    dec0:	0103060c 00000000 633e0000 6b6b7363     ..........>ccskk
    ded0:	3e636367 00000000 1c180000 1818181e     gcc>............
    dee0:	7e181818 00000000 633e0000 0c183060     ...~......>c`0..
    def0:	7f630306 00000000 633e0000 603c6060     ..c.......>c``<`
    df00:	3e636060 00000000 38300000 7f33363c     ``c>......08<63.
    df10:	78303030 00000000 037f0000 703f0303     000x..........?p
    df20:	3e636060 00000000 061c0000 633f0303     ``c>..........?c
    df30:	3e636363 00000000 637f0000 18306060     ccc>.......c``0.
    df40:	0c0c0c0c 00000000 633e0000 633e6363     ..........>ccc>c
    df50:	3e636363 00000000 633e0000 607e6363     ccc>......>ccc~`
    df60:	1e306060 00000000 00000000 00001818     ``0.............
    df70:	00181800 00000000 00000000 00001818     ................
    df80:	0c181800 00000000 60000000 060c1830     ...........`0...
    df90:	6030180c 00000000 00000000 007f0000     ..0`............
    dfa0:	00007f00 00000000 06000000 6030180c     ..............0`
    dfb0:	060c1830 00000000 633e0000 18183063     0.........>cc0..
    dfc0:	18180018 00000000 3e000000 7b7b6363     ...........>cc{{
    dfd0:	3e033b7b 00000000 1c080000 7f636336     {;.>........6cc.
    dfe0:	63636363 00000000 663f0000 663e6666     cccc......?fff>f
    dff0:	3f666666 00000000 663c0000 03030343     fff?......<fC...
    e000:	3c664303 00000000 361f0000 66666666     .Cf<.......6ffff
    e010:	1f366666 00000000 667f0000 161e1646     ff6........fF...
    e020:	7f664606 00000000 667f0000 161e1646     .Ff........fF...
    e030:	0f060606 00000000 663c0000 7b030343     ..........<fC..{
    e040:	5c666363 00000000 63630000 637f6363     ccf\......cccc.c
    e050:	63636363 00000000 183c0000 18181818     cccc......<.....
    e060:	3c181818 00000000 30780000 30303030     ...<......x00000
    e070:	1e333333 00000000 66670000 1e1e3636     333.......gf66..
    e080:	67666636 00000000 060f0000 06060606     6ffg............
    e090:	7f664606 00000000 77630000 636b7f7f     .Ff.......cw..kc
    e0a0:	63636363 00000000 67630000 737b7f6f     cccc......cgo.{s
    e0b0:	63636363 00000000 361c0000 63636363     cccc.......6cccc
    e0c0:	1c366363 00000000 663f0000 063e6666     cc6.......?fff>.
    e0d0:	0f060606 00000000 633e0000 63636363     ..........>ccccc
    e0e0:	3e7b6b63 00007030 663f0000 363e6666     ck{>0p....?fff>6
    e0f0:	67666666 00000000 633e0000 301c0663     fffg......>cc..0
    e100:	3e636360 00000000 7e7e0000 1818185a     `cc>......~~Z...
    e110:	3c181818 00000000 63630000 63636363     ...<......cccccc
    e120:	3e636363 00000000 63630000 63636363     ccc>......cccccc
    e130:	081c3663 00000000 63630000 6b636363     c6........ccccck
    e140:	36367f6b 00000000 63630000 1c1c3636     k.66......cc66..
    e150:	63633636 00000000 66660000 183c6666     66cc......ffff<.
    e160:	3c181818 00000000 637f0000 0c183061     ...<.......ca0..
    e170:	7f634306 00000000 0c3c0000 0c0c0c0c     .Cc.......<.....
    e180:	3c0c0c0c 00000000 01000000 1c0e0703     ...<............
    e190:	40607038 00000000 303c0000 30303030     8p`@......<00000
    e1a0:	3c303030 00000000 63361c08 00000000     000<......6c....
	...
    e1c4:	0000ff00 00180c0c 00000000 00000000     ................
	...
    e1dc:	3e301e00 6e333333 00000000 06070000     ..0>333n........
    e1ec:	66361e06 3b666666 00000000 00000000     ..6ffff;........
    e1fc:	03633e00 3e630303 00000000 30380000     .>c...c>......80
    e20c:	33363c30 6e333333 00000000 00000000     0<63333n........
    e21c:	7f633e00 3e630303 00000000 361c0000     .>c...c>.......6
    e22c:	060f0626 0f060606 00000000 00000000     &...............
    e23c:	33336e00 3e333333 001e3330 06070000     .n33333>03......
    e24c:	666e3606 67666666 00000000 18180000     .6nffffg........
    e25c:	18181c00 3c181818 00000000 60600000     .......<......``
    e26c:	60607000 60606060 003c6666 06070000     .p``````ff<.....
    e27c:	1e366606 6766361e 00000000 181c0000     .f6..6fg........
    e28c:	18181818 3c181818 00000000 00000000     .......<........
    e29c:	6b7f3700 6b6b6b6b 00000000 00000000     .7.kkkkk........
    e2ac:	66663b00 66666666 00000000 00000000     .;ffffff........
    e2bc:	63633e00 3e636363 00000000 00000000     .>ccccc>........
    e2cc:	66663b00 3e666666 000f0606 00000000     .;fffff>........
    e2dc:	33336e00 3e333333 00783030 00000000     .n33333>00x.....
    e2ec:	466e3b00 0f060606 00000000 00000000     .;nF............
    e2fc:	06633e00 3e63301c 00000000 0c080000     .>c..0c>........
    e30c:	0c0c3f0c 386c0c0c 00000000 00000000     .?....l8........
    e31c:	33333300 6e333333 00000000 00000000     .333333n........
    e32c:	66666600 183c6666 00000000 00000000     .fffff<.........
    e33c:	63636300 367f6b6b 00000000 00000000     .ccckk.6........
    e34c:	1c366300 63361c1c 00000000 00000000     .c6...6c........
    e35c:	63636300 7e636363 001f3060 00000000     .cccccc~`0......
    e36c:	18337f00 7f63060c 00000000 18700000     ..3...c.......p.
    e37c:	180e1818 70181818 00000000 18180000     .......p........
    e38c:	18001818 18181818 00000000 180e0000     ................
    e39c:	18701818 0e181818 00000000 3b6e0000     ..p...........n;
	...
    e3bc:	63361c08 007f6363 00000000 0000c386     ..6ccc..........
    e3cc:	0000c396 0000c396 0000c390 0000c396     ................
    e3dc:	0000c396 0000c396 0000c396 0000c396     ................
    e3ec:	0000c396 0000c396 0000c382 0000c396     ................
    e3fc:	0000c36a 0000c396 0000c396 0000c38a     j...............
    e40c:	0000c634 0000c896 0000c896 0000c896     4...............
    e41c:	0000c896 0000c896 0000c896 0000c896     ................
    e42c:	0000c896 0000c896 0000c730 0000c7f6     ........0.......
    e43c:	0000c436 0000c896 0000c4ee 0000c896     6...............
    e44c:	0000c896 0000c436 0000c896 0000c896     ....6...........
    e45c:	0000c896 0000c896 0000c886 0000c702     ................
    e46c:	0000c74a 0000c896 0000c896 0000c80a     J...............
    e47c:	0000c896 0000c764 0000c896 0000c896     ....d...........
    e48c:	0000c634 0000cbb8 0000cbb8 0000cbb0     4...............
    e49c:	0000cbb0 0000cbac 0000cbac 0000d05e     ............^...
    e4ac:	0000d058 0000d0b0 0000d0b8 0000d0c0     X...............
    e4bc:	0000d0c8 00676f6c                       ....log.

0000e4c4 <_global_impure_ptr>:
    e4c4:	20000014                                ... 

0000e4c8 <_init>:
_init():
    e4c8:	b5f8      	push	{r3, r4, r5, r6, r7, lr}
    e4ca:	46c0      	nop			; (mov r8, r8)
    e4cc:	bcf8      	pop	{r3, r4, r5, r6, r7}
    e4ce:	bc08      	pop	{r3}
    e4d0:	469e      	mov	lr, r3
    e4d2:	4770      	bx	lr

0000e4d4 <_fini>:
_fini():
    e4d4:	b5f8      	push	{r3, r4, r5, r6, r7, lr}
    e4d6:	46c0      	nop			; (mov r8, r8)
    e4d8:	bcf8      	pop	{r3, r4, r5, r6, r7}
    e4da:	bc08      	pop	{r3}
    e4dc:	469e      	mov	lr, r3
    e4de:	4770      	bx	lr
